
timers_output_b.elf:     file format elf32-littlearm

Sections:
Idx Name          Size      VMA       LMA       File off  Algn
  0 .isr_vector   00000194  08000000  08000000  00010000  2**0
                  CONTENTS, ALLOC, LOAD, READONLY, DATA
  1 .text         00001f7c  08000194  08000194  00010194  2**2
                  CONTENTS, ALLOC, LOAD, READONLY, CODE
  2 .rodata       00000030  08002110  08002110  00012110  2**2
                  CONTENTS, ALLOC, LOAD, READONLY, DATA
  3 .ARM.extab    00000000  08002140  08002140  00020010  2**0
                  CONTENTS
  4 .ARM          00000000  08002140  08002140  00020010  2**0
                  CONTENTS
  5 .preinit_array 00000000  08002140  08002140  00020010  2**0
                  CONTENTS, ALLOC, LOAD, DATA
  6 .init_array   00000004  08002140  08002140  00012140  2**2
                  CONTENTS, ALLOC, LOAD, DATA
  7 .fini_array   00000004  08002144  08002144  00012144  2**2
                  CONTENTS, ALLOC, LOAD, DATA
  8 .data         00000010  20000000  08002148  00020000  2**2
                  CONTENTS, ALLOC, LOAD, DATA
  9 .ccmram       00000000  10000000  10000000  00020010  2**0
                  CONTENTS
 10 .bss          00000024  20000010  20000010  00020010  2**2
                  ALLOC
 11 ._user_heap_stack 00000604  20000034  20000034  00020010  2**0
                  ALLOC
 12 .ARM.attributes 00000030  00000000  00000000  00020010  2**0
                  CONTENTS, READONLY
 13 .comment      00000043  00000000  00000000  00020040  2**0
                  CONTENTS, READONLY
 14 .debug_info   00004384  00000000  00000000  00020083  2**0
                  CONTENTS, READONLY, DEBUGGING, OCTETS
 15 .debug_abbrev 00000f26  00000000  00000000  00024407  2**0
                  CONTENTS, READONLY, DEBUGGING, OCTETS
 16 .debug_aranges 00000410  00000000  00000000  00025330  2**3
                  CONTENTS, READONLY, DEBUGGING, OCTETS
 17 .debug_rnglists 000002ec  00000000  00000000  00025740  2**0
                  CONTENTS, READONLY, DEBUGGING, OCTETS
 18 .debug_macro  0001e25e  00000000  00000000  00025a2c  2**0
                  CONTENTS, READONLY, DEBUGGING, OCTETS
 19 .debug_line   000054f7  00000000  00000000  00043c8a  2**0
                  CONTENTS, READONLY, DEBUGGING, OCTETS
 20 .debug_str    000b6e4f  00000000  00000000  00049181  2**0
                  CONTENTS, READONLY, DEBUGGING, OCTETS
 21 .debug_frame  00000e64  00000000  00000000  000fffd0  2**2
                  CONTENTS, READONLY, DEBUGGING, OCTETS
 22 .debug_line_str 00000059  00000000  00000000  00100e34  2**0
                  CONTENTS, READONLY, DEBUGGING, OCTETS

Disassembly of section .text:

08000194 <__do_global_dtors_aux>:
 8000194:	b510      	push	{r4, lr}
 8000196:	4c05      	ldr	r4, [pc, #20]	; (80001ac <__do_global_dtors_aux+0x18>)
 8000198:	7823      	ldrb	r3, [r4, #0]
 800019a:	b933      	cbnz	r3, 80001aa <__do_global_dtors_aux+0x16>
 800019c:	4b04      	ldr	r3, [pc, #16]	; (80001b0 <__do_global_dtors_aux+0x1c>)
 800019e:	b113      	cbz	r3, 80001a6 <__do_global_dtors_aux+0x12>
 80001a0:	4804      	ldr	r0, [pc, #16]	; (80001b4 <__do_global_dtors_aux+0x20>)
 80001a2:	f3af 8000 	nop.w
 80001a6:	2301      	movs	r3, #1
 80001a8:	7023      	strb	r3, [r4, #0]
 80001aa:	bd10      	pop	{r4, pc}
 80001ac:	20000010 	.word	0x20000010
 80001b0:	00000000 	.word	0x00000000
 80001b4:	080020f8 	.word	0x080020f8

080001b8 <frame_dummy>:
 80001b8:	b508      	push	{r3, lr}
 80001ba:	4b03      	ldr	r3, [pc, #12]	; (80001c8 <frame_dummy+0x10>)
 80001bc:	b11b      	cbz	r3, 80001c6 <frame_dummy+0xe>
 80001be:	4903      	ldr	r1, [pc, #12]	; (80001cc <frame_dummy+0x14>)
 80001c0:	4803      	ldr	r0, [pc, #12]	; (80001d0 <frame_dummy+0x18>)
 80001c2:	f3af 8000 	nop.w
 80001c6:	bd08      	pop	{r3, pc}
 80001c8:	00000000 	.word	0x00000000
 80001cc:	20000014 	.word	0x20000014
 80001d0:	080020f8 	.word	0x080020f8

080001d4 <__NVIC_EnableIRQ>:
  \details Enables a device specific interrupt in the NVIC interrupt controller.
  \param [in]      IRQn  Device specific interrupt number.
  \note    IRQn must not be negative.
 */
__STATIC_INLINE void __NVIC_EnableIRQ(IRQn_Type IRQn)
{
 80001d4:	b480      	push	{r7}
 80001d6:	b083      	sub	sp, #12
 80001d8:	af00      	add	r7, sp, #0
 80001da:	4603      	mov	r3, r0
 80001dc:	71fb      	strb	r3, [r7, #7]
  if ((int32_t)(IRQn) >= 0)
 80001de:	f997 3007 	ldrsb.w	r3, [r7, #7]
 80001e2:	2b00      	cmp	r3, #0
 80001e4:	db0b      	blt.n	80001fe <__NVIC_EnableIRQ+0x2a>
  {
    NVIC->ISER[(((uint32_t)IRQn) >> 5UL)] = (uint32_t)(1UL << (((uint32_t)IRQn) & 0x1FUL));
 80001e6:	79fb      	ldrb	r3, [r7, #7]
 80001e8:	f003 021f 	and.w	r2, r3, #31
 80001ec:	4907      	ldr	r1, [pc, #28]	; (800020c <__NVIC_EnableIRQ+0x38>)
 80001ee:	f997 3007 	ldrsb.w	r3, [r7, #7]
 80001f2:	095b      	lsrs	r3, r3, #5
 80001f4:	2001      	movs	r0, #1
 80001f6:	fa00 f202 	lsl.w	r2, r0, r2
 80001fa:	f841 2023 	str.w	r2, [r1, r3, lsl #2]
  }
}
 80001fe:	bf00      	nop
 8000200:	370c      	adds	r7, #12
 8000202:	46bd      	mov	sp, r7
 8000204:	f85d 7b04 	ldr.w	r7, [sp], #4
 8000208:	4770      	bx	lr
 800020a:	bf00      	nop
 800020c:	e000e100 	.word	0xe000e100

08000210 <__NVIC_SetPriority>:
  \param [in]      IRQn  Interrupt number.
  \param [in]  priority  Priority to set.
  \note    The priority cannot be set for every processor exception.
 */
__STATIC_INLINE void __NVIC_SetPriority(IRQn_Type IRQn, uint32_t priority)
{
 8000210:	b480      	push	{r7}
 8000212:	b083      	sub	sp, #12
 8000214:	af00      	add	r7, sp, #0
 8000216:	4603      	mov	r3, r0
 8000218:	6039      	str	r1, [r7, #0]
 800021a:	71fb      	strb	r3, [r7, #7]
  if ((int32_t)(IRQn) >= 0)
 800021c:	f997 3007 	ldrsb.w	r3, [r7, #7]
 8000220:	2b00      	cmp	r3, #0
 8000222:	db0a      	blt.n	800023a <__NVIC_SetPriority+0x2a>
  {
    NVIC->IP[((uint32_t)IRQn)]               = (uint8_t)((priority << (8U - __NVIC_PRIO_BITS)) & (uint32_t)0xFFUL);
 8000224:	683b      	ldr	r3, [r7, #0]
 8000226:	b2da      	uxtb	r2, r3
 8000228:	490c      	ldr	r1, [pc, #48]	; (800025c <__NVIC_SetPriority+0x4c>)
 800022a:	f997 3007 	ldrsb.w	r3, [r7, #7]
 800022e:	0112      	lsls	r2, r2, #4
 8000230:	b2d2      	uxtb	r2, r2
 8000232:	440b      	add	r3, r1
 8000234:	f883 2300 	strb.w	r2, [r3, #768]	; 0x300
  }
  else
  {
    SCB->SHP[(((uint32_t)IRQn) & 0xFUL)-4UL] = (uint8_t)((priority << (8U - __NVIC_PRIO_BITS)) & (uint32_t)0xFFUL);
  }
}
 8000238:	e00a      	b.n	8000250 <__NVIC_SetPriority+0x40>
    SCB->SHP[(((uint32_t)IRQn) & 0xFUL)-4UL] = (uint8_t)((priority << (8U - __NVIC_PRIO_BITS)) & (uint32_t)0xFFUL);
 800023a:	683b      	ldr	r3, [r7, #0]
 800023c:	b2da      	uxtb	r2, r3
 800023e:	4908      	ldr	r1, [pc, #32]	; (8000260 <__NVIC_SetPriority+0x50>)
 8000240:	79fb      	ldrb	r3, [r7, #7]
 8000242:	f003 030f 	and.w	r3, r3, #15
 8000246:	3b04      	subs	r3, #4
 8000248:	0112      	lsls	r2, r2, #4
 800024a:	b2d2      	uxtb	r2, r2
 800024c:	440b      	add	r3, r1
 800024e:	761a      	strb	r2, [r3, #24]
}
 8000250:	bf00      	nop
 8000252:	370c      	adds	r7, #12
 8000254:	46bd      	mov	sp, r7
 8000256:	f85d 7b04 	ldr.w	r7, [sp], #4
 800025a:	4770      	bx	lr
 800025c:	e000e100 	.word	0xe000e100
 8000260:	e000ed00 	.word	0xe000ed00

08000264 <main>:

/**
 * @brief  The application entry point.
 * @retval int
 */
int main(void) {
 8000264:	b580      	push	{r7, lr}
 8000266:	af00      	add	r7, sp, #0
	/* USER CODE END 1 */

	/* MCU Configuration--------------------------------------------------------*/

	/* Reset of all peripherals, Initializes the Flash interface and the Systick. */
	HAL_Init();
 8000268:	f000 fa0a 	bl	8000680 <HAL_Init>

	/* USER CODE BEGIN Init */
	Timer2_Init();
 800026c:	f000 f878 	bl	8000360 <Timer2_Init>
	Channel2_Init();
 8000270:	f000 f8aa 	bl	80003c8 <Channel2_Init>
	LED_Alternate_Config();
 8000274:	f000 f8ee 	bl	8000454 <LED_Alternate_Config>
	/* USER CODE END Init */

	/* Configure the system clock */
	SystemClock_Config();
 8000278:	f000 f803 	bl	8000282 <SystemClock_Config>
	/* USER CODE BEGIN SysInit */

	/* USER CODE END SysInit */

	/* Initialize all configured peripherals */
	MX_GPIO_Init();
 800027c:	f000 f844 	bl	8000308 <MX_GPIO_Init>

	/* USER CODE END 2 */

	/* Infinite loop */
	/* USER CODE BEGIN WHILE */
	while (1) {
 8000280:	e7fe      	b.n	8000280 <main+0x1c>

08000282 <SystemClock_Config>:

/**
 * @brief System Clock Configuration
 * @retval None
 */
void SystemClock_Config(void) {
 8000282:	b580      	push	{r7, lr}
 8000284:	b090      	sub	sp, #64	; 0x40
 8000286:	af00      	add	r7, sp, #0
	RCC_OscInitTypeDef RCC_OscInitStruct = { 0 };
 8000288:	f107 0318 	add.w	r3, r7, #24
 800028c:	2228      	movs	r2, #40	; 0x28
 800028e:	2100      	movs	r1, #0
 8000290:	4618      	mov	r0, r3
 8000292:	f001 ff05 	bl	80020a0 <memset>
	RCC_ClkInitTypeDef RCC_ClkInitStruct = { 0 };
 8000296:	1d3b      	adds	r3, r7, #4
 8000298:	2200      	movs	r2, #0
 800029a:	601a      	str	r2, [r3, #0]
 800029c:	605a      	str	r2, [r3, #4]
 800029e:	609a      	str	r2, [r3, #8]
 80002a0:	60da      	str	r2, [r3, #12]
 80002a2:	611a      	str	r2, [r3, #16]

	/** Initializes the RCC Oscillators according to the specified parameters
	 * in the RCC_OscInitTypeDef structure.
	 */
	RCC_OscInitStruct.OscillatorType = RCC_OSCILLATORTYPE_HSI;
 80002a4:	2302      	movs	r3, #2
 80002a6:	61bb      	str	r3, [r7, #24]
	RCC_OscInitStruct.HSIState = RCC_HSI_ON;
 80002a8:	2301      	movs	r3, #1
 80002aa:	627b      	str	r3, [r7, #36]	; 0x24
	RCC_OscInitStruct.HSICalibrationValue = RCC_HSICALIBRATION_DEFAULT;
 80002ac:	2310      	movs	r3, #16
 80002ae:	62bb      	str	r3, [r7, #40]	; 0x28
	RCC_OscInitStruct.PLL.PLLState = RCC_PLL_ON;
 80002b0:	2302      	movs	r3, #2
 80002b2:	633b      	str	r3, [r7, #48]	; 0x30
	RCC_OscInitStruct.PLL.PLLSource = RCC_PLLSOURCE_HSI;
 80002b4:	f44f 4300 	mov.w	r3, #32768	; 0x8000
 80002b8:	637b      	str	r3, [r7, #52]	; 0x34
	RCC_OscInitStruct.PLL.PLLMUL = RCC_PLL_MUL2;
 80002ba:	2300      	movs	r3, #0
 80002bc:	63bb      	str	r3, [r7, #56]	; 0x38
	RCC_OscInitStruct.PLL.PREDIV = RCC_PREDIV_DIV1;
 80002be:	2300      	movs	r3, #0
 80002c0:	63fb      	str	r3, [r7, #60]	; 0x3c
	if (HAL_RCC_OscConfig(&RCC_OscInitStruct) != HAL_OK) {
 80002c2:	f107 0318 	add.w	r3, r7, #24
 80002c6:	4618      	mov	r0, r3
 80002c8:	f000 fcb0 	bl	8000c2c <HAL_RCC_OscConfig>
 80002cc:	4603      	mov	r3, r0
 80002ce:	2b00      	cmp	r3, #0
 80002d0:	d001      	beq.n	80002d6 <SystemClock_Config+0x54>
		Error_Handler();
 80002d2:	f000 f945 	bl	8000560 <Error_Handler>
	}

	/** Initializes the CPU, AHB and APB buses clocks
	 */
	RCC_ClkInitStruct.ClockType = RCC_CLOCKTYPE_HCLK | RCC_CLOCKTYPE_SYSCLK
 80002d6:	230f      	movs	r3, #15
 80002d8:	607b      	str	r3, [r7, #4]
			| RCC_CLOCKTYPE_PCLK1 | RCC_CLOCKTYPE_PCLK2;
	RCC_ClkInitStruct.SYSCLKSource = RCC_SYSCLKSOURCE_PLLCLK;
 80002da:	2302      	movs	r3, #2
 80002dc:	60bb      	str	r3, [r7, #8]
	RCC_ClkInitStruct.AHBCLKDivider = RCC_SYSCLK_DIV1;
 80002de:	2300      	movs	r3, #0
 80002e0:	60fb      	str	r3, [r7, #12]
	RCC_ClkInitStruct.APB1CLKDivider = RCC_HCLK_DIV1;
 80002e2:	2300      	movs	r3, #0
 80002e4:	613b      	str	r3, [r7, #16]
	RCC_ClkInitStruct.APB2CLKDivider = RCC_HCLK_DIV1;
 80002e6:	2300      	movs	r3, #0
 80002e8:	617b      	str	r3, [r7, #20]

	if (HAL_RCC_ClockConfig(&RCC_ClkInitStruct, FLASH_LATENCY_0) != HAL_OK) {
 80002ea:	1d3b      	adds	r3, r7, #4
 80002ec:	2100      	movs	r1, #0
 80002ee:	4618      	mov	r0, r3
 80002f0:	f001 fcf0 	bl	8001cd4 <HAL_RCC_ClockConfig>
 80002f4:	4603      	mov	r3, r0
 80002f6:	2b00      	cmp	r3, #0
 80002f8:	d001      	beq.n	80002fe <SystemClock_Config+0x7c>
		Error_Handler();
 80002fa:	f000 f931 	bl	8000560 <Error_Handler>
	}
}
 80002fe:	bf00      	nop
 8000300:	3740      	adds	r7, #64	; 0x40
 8000302:	46bd      	mov	sp, r7
 8000304:	bd80      	pop	{r7, pc}
	...

08000308 <MX_GPIO_Init>:
/**
 * @brief GPIO Initialization Function
 * @param None
 * @retval None
 */
static void MX_GPIO_Init(void) {
 8000308:	b580      	push	{r7, lr}
 800030a:	b086      	sub	sp, #24
 800030c:	af00      	add	r7, sp, #0
	GPIO_InitTypeDef GPIO_InitStruct = { 0 };
 800030e:	1d3b      	adds	r3, r7, #4
 8000310:	2200      	movs	r2, #0
 8000312:	601a      	str	r2, [r3, #0]
 8000314:	605a      	str	r2, [r3, #4]
 8000316:	609a      	str	r2, [r3, #8]
 8000318:	60da      	str	r2, [r3, #12]
 800031a:	611a      	str	r2, [r3, #16]
	/* USER CODE BEGIN MX_GPIO_Init_1 */
	/* USER CODE END MX_GPIO_Init_1 */

	/* GPIO Ports Clock Enable */
	__HAL_RCC_GPIOA_CLK_ENABLE();
 800031c:	4b0f      	ldr	r3, [pc, #60]	; (800035c <MX_GPIO_Init+0x54>)
 800031e:	695b      	ldr	r3, [r3, #20]
 8000320:	4a0e      	ldr	r2, [pc, #56]	; (800035c <MX_GPIO_Init+0x54>)
 8000322:	f443 3300 	orr.w	r3, r3, #131072	; 0x20000
 8000326:	6153      	str	r3, [r2, #20]
 8000328:	4b0c      	ldr	r3, [pc, #48]	; (800035c <MX_GPIO_Init+0x54>)
 800032a:	695b      	ldr	r3, [r3, #20]
 800032c:	f403 3300 	and.w	r3, r3, #131072	; 0x20000
 8000330:	603b      	str	r3, [r7, #0]
 8000332:	683b      	ldr	r3, [r7, #0]

	/*Configure GPIO pins : PA2 PA3 */
	GPIO_InitStruct.Pin = GPIO_PIN_2 | GPIO_PIN_3;
 8000334:	230c      	movs	r3, #12
 8000336:	607b      	str	r3, [r7, #4]
	GPIO_InitStruct.Mode = GPIO_MODE_AF_PP;
 8000338:	2302      	movs	r3, #2
 800033a:	60bb      	str	r3, [r7, #8]
	GPIO_InitStruct.Pull = GPIO_NOPULL;
 800033c:	2300      	movs	r3, #0
 800033e:	60fb      	str	r3, [r7, #12]
	GPIO_InitStruct.Speed = GPIO_SPEED_FREQ_HIGH;
 8000340:	2303      	movs	r3, #3
 8000342:	613b      	str	r3, [r7, #16]
	GPIO_InitStruct.Alternate = GPIO_AF7_USART2;
 8000344:	2307      	movs	r3, #7
 8000346:	617b      	str	r3, [r7, #20]
	HAL_GPIO_Init(GPIOA, &GPIO_InitStruct);
 8000348:	1d3b      	adds	r3, r7, #4
 800034a:	4619      	mov	r1, r3
 800034c:	f04f 4090 	mov.w	r0, #1207959552	; 0x48000000
 8000350:	f000 fae2 	bl	8000918 <HAL_GPIO_Init>

	/* USER CODE BEGIN MX_GPIO_Init_2 */
	/* USER CODE END MX_GPIO_Init_2 */
}
 8000354:	bf00      	nop
 8000356:	3718      	adds	r7, #24
 8000358:	46bd      	mov	sp, r7
 800035a:	bd80      	pop	{r7, pc}
 800035c:	40021000 	.word	0x40021000

08000360 <Timer2_Init>:

/* USER CODE BEGIN 4 */
void Timer2_Init(void) {
 8000360:	b580      	push	{r7, lr}
 8000362:	af00      	add	r7, sp, #0
	//Activate Timer 2 in APB register.
	RCC->APB1ENR |= RCC_APB1ENR_TIM2EN;
 8000364:	4b17      	ldr	r3, [pc, #92]	; (80003c4 <Timer2_Init+0x64>)
 8000366:	69db      	ldr	r3, [r3, #28]
 8000368:	4a16      	ldr	r2, [pc, #88]	; (80003c4 <Timer2_Init+0x64>)
 800036a:	f043 0301 	orr.w	r3, r3, #1
 800036e:	61d3      	str	r3, [r2, #28]

	//disable the timer.
	TIM2->CR1 &= ~TIM_CR1_CEN;
 8000370:	f04f 4380 	mov.w	r3, #1073741824	; 0x40000000
 8000374:	681b      	ldr	r3, [r3, #0]
 8000376:	f04f 4280 	mov.w	r2, #1073741824	; 0x40000000
 800037a:	f023 0301 	bic.w	r3, r3, #1
 800037e:	6013      	str	r3, [r2, #0]

	//prescale the system using 16MHz frequency.
	TIM2->PSC = 16 - 1;
 8000380:	f04f 4380 	mov.w	r3, #1073741824	; 0x40000000
 8000384:	220f      	movs	r2, #15
 8000386:	629a      	str	r2, [r3, #40]	; 0x28
	//set the PWM period in 1 ms.
	TIM2->ARR = 1000 - 1;
 8000388:	f04f 4380 	mov.w	r3, #1073741824	; 0x40000000
 800038c:	f240 32e7 	movw	r2, #999	; 0x3e7
 8000390:	62da      	str	r2, [r3, #44]	; 0x2c

	//configure NVIC for TIM2 interrupt.
	NVIC_EnableIRQ(TIM2_IRQn);
 8000392:	201c      	movs	r0, #28
 8000394:	f7ff ff1e 	bl	80001d4 <__NVIC_EnableIRQ>
	NVIC_SetPriority(TIM2_IRQn, 0);
 8000398:	2100      	movs	r1, #0
 800039a:	201c      	movs	r0, #28
 800039c:	f7ff ff38 	bl	8000210 <__NVIC_SetPriority>

	//reset counter of Timer 2 to 0.
	TIM2->CNT &= ~TIM_CNT_CNT;
 80003a0:	f04f 4380 	mov.w	r3, #1073741824	; 0x40000000
 80003a4:	6a5b      	ldr	r3, [r3, #36]	; 0x24
 80003a6:	f04f 4380 	mov.w	r3, #1073741824	; 0x40000000
 80003aa:	2200      	movs	r2, #0
 80003ac:	625a      	str	r2, [r3, #36]	; 0x24

	//enable the timer.
	TIM2->CR1 |= TIM_CR1_CEN;
 80003ae:	f04f 4380 	mov.w	r3, #1073741824	; 0x40000000
 80003b2:	681b      	ldr	r3, [r3, #0]
 80003b4:	f04f 4280 	mov.w	r2, #1073741824	; 0x40000000
 80003b8:	f043 0301 	orr.w	r3, r3, #1
 80003bc:	6013      	str	r3, [r2, #0]
}
 80003be:	bf00      	nop
 80003c0:	bd80      	pop	{r7, pc}
 80003c2:	bf00      	nop
 80003c4:	40021000 	.word	0x40021000

080003c8 <Channel2_Init>:

void Channel2_Init(void) {
 80003c8:	b480      	push	{r7}
 80003ca:	af00      	add	r7, sp, #0
	//set enable the compare register of channel 2 in timer 2.
	TIM2->CCER |= TIM_CCER_CC2E;
 80003cc:	f04f 4380 	mov.w	r3, #1073741824	; 0x40000000
 80003d0:	6a1b      	ldr	r3, [r3, #32]
 80003d2:	f04f 4280 	mov.w	r2, #1073741824	; 0x40000000
 80003d6:	f043 0310 	orr.w	r3, r3, #16
 80003da:	6213      	str	r3, [r2, #32]

	//clean bits the channel 2 in timer 2 register.
	TIM2->CCMR1 &= ~TIM_CCMR1_CC2S;
 80003dc:	f04f 4380 	mov.w	r3, #1073741824	; 0x40000000
 80003e0:	699b      	ldr	r3, [r3, #24]
 80003e2:	f04f 4280 	mov.w	r2, #1073741824	; 0x40000000
 80003e6:	f423 7340 	bic.w	r3, r3, #768	; 0x300
 80003ea:	6193      	str	r3, [r2, #24]
	TIM2->CCMR1 &= ~TIM_CCMR1_OC2M;
 80003ec:	f04f 4380 	mov.w	r3, #1073741824	; 0x40000000
 80003f0:	699b      	ldr	r3, [r3, #24]
 80003f2:	f04f 4280 	mov.w	r2, #1073741824	; 0x40000000
 80003f6:	f023 7380 	bic.w	r3, r3, #16777216	; 0x1000000
 80003fa:	f423 43e0 	bic.w	r3, r3, #28672	; 0x7000
 80003fe:	6193      	str	r3, [r2, #24]
	TIM2->CCMR1 &= ~TIM_CCMR1_OC2PE;
 8000400:	f04f 4380 	mov.w	r3, #1073741824	; 0x40000000
 8000404:	699b      	ldr	r3, [r3, #24]
 8000406:	f04f 4280 	mov.w	r2, #1073741824	; 0x40000000
 800040a:	f423 6300 	bic.w	r3, r3, #2048	; 0x800
 800040e:	6193      	str	r3, [r2, #24]

	//set interrupt enable register in channel 2.
	TIM2->DIER |= TIM_DIER_CC2IE;
 8000410:	f04f 4380 	mov.w	r3, #1073741824	; 0x40000000
 8000414:	68db      	ldr	r3, [r3, #12]
 8000416:	f04f 4280 	mov.w	r2, #1073741824	; 0x40000000
 800041a:	f043 0304 	orr.w	r3, r3, #4
 800041e:	60d3      	str	r3, [r2, #12]

	//set the PWM in channel 2 of timer 2 as the output compare mode.
	TIM2->CCMR1 |= (TIM_CCMR1_OC2M_1 | TIM_CCMR1_OC2M_2);
 8000420:	f04f 4380 	mov.w	r3, #1073741824	; 0x40000000
 8000424:	699b      	ldr	r3, [r3, #24]
 8000426:	f04f 4280 	mov.w	r2, #1073741824	; 0x40000000
 800042a:	f443 43c0 	orr.w	r3, r3, #24576	; 0x6000
 800042e:	6193      	str	r3, [r2, #24]
	//enable the preload.
	TIM2->CCMR1 |= TIM_CCMR1_OC2PE;
 8000430:	f04f 4380 	mov.w	r3, #1073741824	; 0x40000000
 8000434:	699b      	ldr	r3, [r3, #24]
 8000436:	f04f 4280 	mov.w	r2, #1073741824	; 0x40000000
 800043a:	f443 6300 	orr.w	r3, r3, #2048	; 0x800
 800043e:	6193      	str	r3, [r2, #24]

	//set output range to 0 in setup.
	TIM2->CCR2 = OFF_BRIGHTNESS;
 8000440:	f04f 4380 	mov.w	r3, #1073741824	; 0x40000000
 8000444:	2200      	movs	r2, #0
 8000446:	639a      	str	r2, [r3, #56]	; 0x38
}
 8000448:	bf00      	nop
 800044a:	46bd      	mov	sp, r7
 800044c:	f85d 7b04 	ldr.w	r7, [sp], #4
 8000450:	4770      	bx	lr
	...

08000454 <LED_Alternate_Config>:

void LED_Alternate_Config() {
 8000454:	b480      	push	{r7}
 8000456:	af00      	add	r7, sp, #0
	//enable GPIOB in RCC register.
	RCC->AHBENR |= RCC_AHBENR_GPIOBEN;
 8000458:	4b1d      	ldr	r3, [pc, #116]	; (80004d0 <LED_Alternate_Config+0x7c>)
 800045a:	695b      	ldr	r3, [r3, #20]
 800045c:	4a1c      	ldr	r2, [pc, #112]	; (80004d0 <LED_Alternate_Config+0x7c>)
 800045e:	f443 2380 	orr.w	r3, r3, #262144	; 0x40000
 8000462:	6153      	str	r3, [r2, #20]

	//resets the LED's pin MODE.
	GPIOB->MODER &= ~GPIO_MODER_MODER3;
 8000464:	4b1b      	ldr	r3, [pc, #108]	; (80004d4 <LED_Alternate_Config+0x80>)
 8000466:	681b      	ldr	r3, [r3, #0]
 8000468:	4a1a      	ldr	r2, [pc, #104]	; (80004d4 <LED_Alternate_Config+0x80>)
 800046a:	f023 03c0 	bic.w	r3, r3, #192	; 0xc0
 800046e:	6013      	str	r3, [r2, #0]
	//resets the LED's pin OTYPE to 0 as push-pull.
	GPIOB->OTYPER &= ~GPIO_OTYPER_OT_3;
 8000470:	4b18      	ldr	r3, [pc, #96]	; (80004d4 <LED_Alternate_Config+0x80>)
 8000472:	685b      	ldr	r3, [r3, #4]
 8000474:	4a17      	ldr	r2, [pc, #92]	; (80004d4 <LED_Alternate_Config+0x80>)
 8000476:	f023 0308 	bic.w	r3, r3, #8
 800047a:	6053      	str	r3, [r2, #4]
	//resets the LED's pin SPEED.
	GPIOB->OSPEEDR &= ~GPIO_OSPEEDER_OSPEEDR3;
 800047c:	4b15      	ldr	r3, [pc, #84]	; (80004d4 <LED_Alternate_Config+0x80>)
 800047e:	689b      	ldr	r3, [r3, #8]
 8000480:	4a14      	ldr	r2, [pc, #80]	; (80004d4 <LED_Alternate_Config+0x80>)
 8000482:	f023 03c0 	bic.w	r3, r3, #192	; 0xc0
 8000486:	6093      	str	r3, [r2, #8]

	//sets the LED's pin MODE to 0b10 as an alternated output.
	GPIOB->MODER |= GPIO_MODER_MODER3_1;
 8000488:	4b12      	ldr	r3, [pc, #72]	; (80004d4 <LED_Alternate_Config+0x80>)
 800048a:	681b      	ldr	r3, [r3, #0]
 800048c:	4a11      	ldr	r2, [pc, #68]	; (80004d4 <LED_Alternate_Config+0x80>)
 800048e:	f043 0380 	orr.w	r3, r3, #128	; 0x80
 8000492:	6013      	str	r3, [r2, #0]
	//sets the LED's pin SPEED to medium.
	GPIOB->OSPEEDR |= GPIO_OSPEEDER_OSPEEDR3_0;
 8000494:	4b0f      	ldr	r3, [pc, #60]	; (80004d4 <LED_Alternate_Config+0x80>)
 8000496:	689b      	ldr	r3, [r3, #8]
 8000498:	4a0e      	ldr	r2, [pc, #56]	; (80004d4 <LED_Alternate_Config+0x80>)
 800049a:	f043 0340 	orr.w	r3, r3, #64	; 0x40
 800049e:	6093      	str	r3, [r2, #8]
	//resets the LED's PUPD register.
	GPIOB->PUPDR &= ~GPIO_PUPDR_PUPDR3;
 80004a0:	4b0c      	ldr	r3, [pc, #48]	; (80004d4 <LED_Alternate_Config+0x80>)
 80004a2:	68db      	ldr	r3, [r3, #12]
 80004a4:	4a0b      	ldr	r2, [pc, #44]	; (80004d4 <LED_Alternate_Config+0x80>)
 80004a6:	f023 03c0 	bic.w	r3, r3, #192	; 0xc0
 80004aa:	60d3      	str	r3, [r2, #12]

	//resets the low alternate function for pin PB3.
	GPIOB->AFR[0] &= ~GPIO_AFRL_AFRL3;
 80004ac:	4b09      	ldr	r3, [pc, #36]	; (80004d4 <LED_Alternate_Config+0x80>)
 80004ae:	6a1b      	ldr	r3, [r3, #32]
 80004b0:	4a08      	ldr	r2, [pc, #32]	; (80004d4 <LED_Alternate_Config+0x80>)
 80004b2:	f423 4370 	bic.w	r3, r3, #61440	; 0xf000
 80004b6:	6213      	str	r3, [r2, #32]
	//activate alternate function 1 to use timer 2 and channel 2 for PB3.
	GPIOB->AFR[0] |= (0b0001 << GPIO_AFRL_AFRL3_Pos);
 80004b8:	4b06      	ldr	r3, [pc, #24]	; (80004d4 <LED_Alternate_Config+0x80>)
 80004ba:	6a1b      	ldr	r3, [r3, #32]
 80004bc:	4a05      	ldr	r2, [pc, #20]	; (80004d4 <LED_Alternate_Config+0x80>)
 80004be:	f443 5380 	orr.w	r3, r3, #4096	; 0x1000
 80004c2:	6213      	str	r3, [r2, #32]
}
 80004c4:	bf00      	nop
 80004c6:	46bd      	mov	sp, r7
 80004c8:	f85d 7b04 	ldr.w	r7, [sp], #4
 80004cc:	4770      	bx	lr
 80004ce:	bf00      	nop
 80004d0:	40021000 	.word	0x40021000
 80004d4:	48000400 	.word	0x48000400

080004d8 <TIM2_IRQHandler>:

void TIM2_IRQHandler(void) {
 80004d8:	b480      	push	{r7}
 80004da:	af00      	add	r7, sp, #0
	//read interrupt flag.
	if (TIM2->SR & TIM_SR_CC2IF) {
 80004dc:	f04f 4380 	mov.w	r3, #1073741824	; 0x40000000
 80004e0:	691b      	ldr	r3, [r3, #16]
 80004e2:	f003 0304 	and.w	r3, r3, #4
 80004e6:	2b00      	cmp	r3, #0
 80004e8:	d031      	beq.n	800054e <TIM2_IRQHandler+0x76>
		//reset the flag.
		TIM2->SR &= ~TIM_SR_CC2IF;
 80004ea:	f04f 4380 	mov.w	r3, #1073741824	; 0x40000000
 80004ee:	691b      	ldr	r3, [r3, #16]
 80004f0:	f04f 4280 	mov.w	r2, #1073741824	; 0x40000000
 80004f4:	f023 0304 	bic.w	r3, r3, #4
 80004f8:	6113      	str	r3, [r2, #16]
		//
		switch (led_status) {
 80004fa:	4b17      	ldr	r3, [pc, #92]	; (8000558 <TIM2_IRQHandler+0x80>)
 80004fc:	781b      	ldrb	r3, [r3, #0]
 80004fe:	b2db      	uxtb	r3, r3
 8000500:	2b00      	cmp	r3, #0
 8000502:	d010      	beq.n	8000526 <TIM2_IRQHandler+0x4e>
 8000504:	2b01      	cmp	r3, #1
 8000506:	d11c      	bne.n	8000542 <TIM2_IRQHandler+0x6a>
		case 1:
			if (brightness < MAX_BRIGHTNESS) {
 8000508:	4b14      	ldr	r3, [pc, #80]	; (800055c <TIM2_IRQHandler+0x84>)
 800050a:	681b      	ldr	r3, [r3, #0]
 800050c:	f5b3 7f7a 	cmp.w	r3, #1000	; 0x3e8
 8000510:	d205      	bcs.n	800051e <TIM2_IRQHandler+0x46>
				brightness++;
 8000512:	4b12      	ldr	r3, [pc, #72]	; (800055c <TIM2_IRQHandler+0x84>)
 8000514:	681b      	ldr	r3, [r3, #0]
 8000516:	3301      	adds	r3, #1
 8000518:	4a10      	ldr	r2, [pc, #64]	; (800055c <TIM2_IRQHandler+0x84>)
 800051a:	6013      	str	r3, [r2, #0]
			} else {
				led_status = 0;
			}
			break;
 800051c:	e012      	b.n	8000544 <TIM2_IRQHandler+0x6c>
				led_status = 0;
 800051e:	4b0e      	ldr	r3, [pc, #56]	; (8000558 <TIM2_IRQHandler+0x80>)
 8000520:	2200      	movs	r2, #0
 8000522:	701a      	strb	r2, [r3, #0]
			break;
 8000524:	e00e      	b.n	8000544 <TIM2_IRQHandler+0x6c>
		case 0:
			if (brightness > MIN_BRIGHTNESS) {
 8000526:	4b0d      	ldr	r3, [pc, #52]	; (800055c <TIM2_IRQHandler+0x84>)
 8000528:	681b      	ldr	r3, [r3, #0]
 800052a:	2bc8      	cmp	r3, #200	; 0xc8
 800052c:	d905      	bls.n	800053a <TIM2_IRQHandler+0x62>
				brightness--;
 800052e:	4b0b      	ldr	r3, [pc, #44]	; (800055c <TIM2_IRQHandler+0x84>)
 8000530:	681b      	ldr	r3, [r3, #0]
 8000532:	3b01      	subs	r3, #1
 8000534:	4a09      	ldr	r2, [pc, #36]	; (800055c <TIM2_IRQHandler+0x84>)
 8000536:	6013      	str	r3, [r2, #0]
			} else {
				led_status = 1;
			}
			break;
 8000538:	e004      	b.n	8000544 <TIM2_IRQHandler+0x6c>
				led_status = 1;
 800053a:	4b07      	ldr	r3, [pc, #28]	; (8000558 <TIM2_IRQHandler+0x80>)
 800053c:	2201      	movs	r2, #1
 800053e:	701a      	strb	r2, [r3, #0]
			break;
 8000540:	e000      	b.n	8000544 <TIM2_IRQHandler+0x6c>
		default:
			break;
 8000542:	bf00      	nop
		}

		//use brightness value.
		TIM2->CCR2 = brightness;
 8000544:	f04f 4280 	mov.w	r2, #1073741824	; 0x40000000
 8000548:	4b04      	ldr	r3, [pc, #16]	; (800055c <TIM2_IRQHandler+0x84>)
 800054a:	681b      	ldr	r3, [r3, #0]
 800054c:	6393      	str	r3, [r2, #56]	; 0x38
	}
}
 800054e:	bf00      	nop
 8000550:	46bd      	mov	sp, r7
 8000552:	f85d 7b04 	ldr.w	r7, [sp], #4
 8000556:	4770      	bx	lr
 8000558:	20000000 	.word	0x20000000
 800055c:	2000002c 	.word	0x2000002c

08000560 <Error_Handler>:

/**
 * @brief  This function is executed in case of error occurrence.
 * @retval None
 */
void Error_Handler(void) {
 8000560:	b480      	push	{r7}
 8000562:	af00      	add	r7, sp, #0
  \details Disables IRQ interrupts by setting the I-bit in the CPSR.
           Can only be executed in Privileged modes.
 */
__STATIC_FORCEINLINE void __disable_irq(void)
{
  __ASM volatile ("cpsid i" : : : "memory");
 8000564:	b672      	cpsid	i
}
 8000566:	bf00      	nop
	/* USER CODE BEGIN Error_Handler_Debug */
	/* User can add his own implementation to report the HAL error return state */
	__disable_irq();
	while (1) {
 8000568:	e7fe      	b.n	8000568 <Error_Handler+0x8>
	...

0800056c <HAL_MspInit>:
/* USER CODE END 0 */
/**
  * Initializes the Global MSP.
  */
void HAL_MspInit(void)
{
 800056c:	b480      	push	{r7}
 800056e:	b083      	sub	sp, #12
 8000570:	af00      	add	r7, sp, #0
  /* USER CODE BEGIN MspInit 0 */

  /* USER CODE END MspInit 0 */

  __HAL_RCC_SYSCFG_CLK_ENABLE();
 8000572:	4b0f      	ldr	r3, [pc, #60]	; (80005b0 <HAL_MspInit+0x44>)
 8000574:	699b      	ldr	r3, [r3, #24]
 8000576:	4a0e      	ldr	r2, [pc, #56]	; (80005b0 <HAL_MspInit+0x44>)
 8000578:	f043 0301 	orr.w	r3, r3, #1
 800057c:	6193      	str	r3, [r2, #24]
 800057e:	4b0c      	ldr	r3, [pc, #48]	; (80005b0 <HAL_MspInit+0x44>)
 8000580:	699b      	ldr	r3, [r3, #24]
 8000582:	f003 0301 	and.w	r3, r3, #1
 8000586:	607b      	str	r3, [r7, #4]
 8000588:	687b      	ldr	r3, [r7, #4]
  __HAL_RCC_PWR_CLK_ENABLE();
 800058a:	4b09      	ldr	r3, [pc, #36]	; (80005b0 <HAL_MspInit+0x44>)
 800058c:	69db      	ldr	r3, [r3, #28]
 800058e:	4a08      	ldr	r2, [pc, #32]	; (80005b0 <HAL_MspInit+0x44>)
 8000590:	f043 5380 	orr.w	r3, r3, #268435456	; 0x10000000
 8000594:	61d3      	str	r3, [r2, #28]
 8000596:	4b06      	ldr	r3, [pc, #24]	; (80005b0 <HAL_MspInit+0x44>)
 8000598:	69db      	ldr	r3, [r3, #28]
 800059a:	f003 5380 	and.w	r3, r3, #268435456	; 0x10000000
 800059e:	603b      	str	r3, [r7, #0]
 80005a0:	683b      	ldr	r3, [r7, #0]
  /* System interrupt init*/

  /* USER CODE BEGIN MspInit 1 */

  /* USER CODE END MspInit 1 */
}
 80005a2:	bf00      	nop
 80005a4:	370c      	adds	r7, #12
 80005a6:	46bd      	mov	sp, r7
 80005a8:	f85d 7b04 	ldr.w	r7, [sp], #4
 80005ac:	4770      	bx	lr
 80005ae:	bf00      	nop
 80005b0:	40021000 	.word	0x40021000

080005b4 <NMI_Handler>:
/******************************************************************************/
/**
  * @brief This function handles Non maskable interrupt.
  */
void NMI_Handler(void)
{
 80005b4:	b480      	push	{r7}
 80005b6:	af00      	add	r7, sp, #0
  /* USER CODE BEGIN NonMaskableInt_IRQn 0 */

  /* USER CODE END NonMaskableInt_IRQn 0 */
  /* USER CODE BEGIN NonMaskableInt_IRQn 1 */
  while (1)
 80005b8:	e7fe      	b.n	80005b8 <NMI_Handler+0x4>

080005ba <HardFault_Handler>:

/**
  * @brief This function handles Hard fault interrupt.
  */
void HardFault_Handler(void)
{
 80005ba:	b480      	push	{r7}
 80005bc:	af00      	add	r7, sp, #0
  /* USER CODE BEGIN HardFault_IRQn 0 */

  /* USER CODE END HardFault_IRQn 0 */
  while (1)
 80005be:	e7fe      	b.n	80005be <HardFault_Handler+0x4>

080005c0 <MemManage_Handler>:

/**
  * @brief This function handles Memory management fault.
  */
void MemManage_Handler(void)
{
 80005c0:	b480      	push	{r7}
 80005c2:	af00      	add	r7, sp, #0
  /* USER CODE BEGIN MemoryManagement_IRQn 0 */

  /* USER CODE END MemoryManagement_IRQn 0 */
  while (1)
 80005c4:	e7fe      	b.n	80005c4 <MemManage_Handler+0x4>

080005c6 <BusFault_Handler>:

/**
  * @brief This function handles Pre-fetch fault, memory access fault.
  */
void BusFault_Handler(void)
{
 80005c6:	b480      	push	{r7}
 80005c8:	af00      	add	r7, sp, #0
  /* USER CODE BEGIN BusFault_IRQn 0 */

  /* USER CODE END BusFault_IRQn 0 */
  while (1)
 80005ca:	e7fe      	b.n	80005ca <BusFault_Handler+0x4>

080005cc <UsageFault_Handler>:

/**
  * @brief This function handles Undefined instruction or illegal state.
  */
void UsageFault_Handler(void)
{
 80005cc:	b480      	push	{r7}
 80005ce:	af00      	add	r7, sp, #0
  /* USER CODE BEGIN UsageFault_IRQn 0 */

  /* USER CODE END UsageFault_IRQn 0 */
  while (1)
 80005d0:	e7fe      	b.n	80005d0 <UsageFault_Handler+0x4>

080005d2 <SVC_Handler>:

/**
  * @brief This function handles System service call via SWI instruction.
  */
void SVC_Handler(void)
{
 80005d2:	b480      	push	{r7}
 80005d4:	af00      	add	r7, sp, #0

  /* USER CODE END SVCall_IRQn 0 */
  /* USER CODE BEGIN SVCall_IRQn 1 */

  /* USER CODE END SVCall_IRQn 1 */
}
 80005d6:	bf00      	nop
 80005d8:	46bd      	mov	sp, r7
 80005da:	f85d 7b04 	ldr.w	r7, [sp], #4
 80005de:	4770      	bx	lr

080005e0 <DebugMon_Handler>:

/**
  * @brief This function handles Debug monitor.
  */
void DebugMon_Handler(void)
{
 80005e0:	b480      	push	{r7}
 80005e2:	af00      	add	r7, sp, #0

  /* USER CODE END DebugMonitor_IRQn 0 */
  /* USER CODE BEGIN DebugMonitor_IRQn 1 */

  /* USER CODE END DebugMonitor_IRQn 1 */
}
 80005e4:	bf00      	nop
 80005e6:	46bd      	mov	sp, r7
 80005e8:	f85d 7b04 	ldr.w	r7, [sp], #4
 80005ec:	4770      	bx	lr

080005ee <PendSV_Handler>:

/**
  * @brief This function handles Pendable request for system service.
  */
void PendSV_Handler(void)
{
 80005ee:	b480      	push	{r7}
 80005f0:	af00      	add	r7, sp, #0

  /* USER CODE END PendSV_IRQn 0 */
  /* USER CODE BEGIN PendSV_IRQn 1 */

  /* USER CODE END PendSV_IRQn 1 */
}
 80005f2:	bf00      	nop
 80005f4:	46bd      	mov	sp, r7
 80005f6:	f85d 7b04 	ldr.w	r7, [sp], #4
 80005fa:	4770      	bx	lr

080005fc <SysTick_Handler>:

/**
  * @brief This function handles System tick timer.
  */
void SysTick_Handler(void)
{
 80005fc:	b580      	push	{r7, lr}
 80005fe:	af00      	add	r7, sp, #0
  /* USER CODE BEGIN SysTick_IRQn 0 */

  /* USER CODE END SysTick_IRQn 0 */
  HAL_IncTick();
 8000600:	f000 f884 	bl	800070c <HAL_IncTick>
  /* USER CODE BEGIN SysTick_IRQn 1 */

  /* USER CODE END SysTick_IRQn 1 */
}
 8000604:	bf00      	nop
 8000606:	bd80      	pop	{r7, pc}

08000608 <SystemInit>:
  * @brief  Setup the microcontroller system
  * @param  None
  * @retval None
  */
void SystemInit(void)
{
 8000608:	b480      	push	{r7}
 800060a:	af00      	add	r7, sp, #0
/* FPU settings --------------------------------------------------------------*/
#if (__FPU_PRESENT == 1) && (__FPU_USED == 1)
  SCB->CPACR |= ((3UL << 10*2)|(3UL << 11*2));  /* set CP10 and CP11 Full Access */
 800060c:	4b06      	ldr	r3, [pc, #24]	; (8000628 <SystemInit+0x20>)
 800060e:	f8d3 3088 	ldr.w	r3, [r3, #136]	; 0x88
 8000612:	4a05      	ldr	r2, [pc, #20]	; (8000628 <SystemInit+0x20>)
 8000614:	f443 0370 	orr.w	r3, r3, #15728640	; 0xf00000
 8000618:	f8c2 3088 	str.w	r3, [r2, #136]	; 0x88

  /* Configure the Vector Table location -------------------------------------*/
#if defined(USER_VECT_TAB_ADDRESS)
  SCB->VTOR = VECT_TAB_BASE_ADDRESS | VECT_TAB_OFFSET; /* Vector Table Relocation in Internal SRAM */
#endif /* USER_VECT_TAB_ADDRESS */
}
 800061c:	bf00      	nop
 800061e:	46bd      	mov	sp, r7
 8000620:	f85d 7b04 	ldr.w	r7, [sp], #4
 8000624:	4770      	bx	lr
 8000626:	bf00      	nop
 8000628:	e000ed00 	.word	0xe000ed00

0800062c <Reset_Handler>:

    .section	.text.Reset_Handler
	.weak	Reset_Handler
	.type	Reset_Handler, %function
Reset_Handler:
  ldr   sp, =_estack    /* Atollic update: set stack pointer */
 800062c:	f8df d034 	ldr.w	sp, [pc, #52]	; 8000664 <LoopForever+0x2>
  
/* Call the clock system initialization function.*/
    bl  SystemInit
 8000630:	f7ff ffea 	bl	8000608 <SystemInit>

/* Copy the data segment initializers from flash to SRAM */
  ldr r0, =_sdata
 8000634:	480c      	ldr	r0, [pc, #48]	; (8000668 <LoopForever+0x6>)
  ldr r1, =_edata
 8000636:	490d      	ldr	r1, [pc, #52]	; (800066c <LoopForever+0xa>)
  ldr r2, =_sidata
 8000638:	4a0d      	ldr	r2, [pc, #52]	; (8000670 <LoopForever+0xe>)
  movs r3, #0
 800063a:	2300      	movs	r3, #0
  b LoopCopyDataInit
 800063c:	e002      	b.n	8000644 <LoopCopyDataInit>

0800063e <CopyDataInit>:

CopyDataInit:
  ldr r4, [r2, r3]
 800063e:	58d4      	ldr	r4, [r2, r3]
  str r4, [r0, r3]
 8000640:	50c4      	str	r4, [r0, r3]
  adds r3, r3, #4
 8000642:	3304      	adds	r3, #4

08000644 <LoopCopyDataInit>:

LoopCopyDataInit:
  adds r4, r0, r3
 8000644:	18c4      	adds	r4, r0, r3
  cmp r4, r1
 8000646:	428c      	cmp	r4, r1
  bcc CopyDataInit
 8000648:	d3f9      	bcc.n	800063e <CopyDataInit>
  
/* Zero fill the bss segment. */
  ldr r2, =_sbss
 800064a:	4a0a      	ldr	r2, [pc, #40]	; (8000674 <LoopForever+0x12>)
  ldr r4, =_ebss
 800064c:	4c0a      	ldr	r4, [pc, #40]	; (8000678 <LoopForever+0x16>)
  movs r3, #0
 800064e:	2300      	movs	r3, #0
  b LoopFillZerobss
 8000650:	e001      	b.n	8000656 <LoopFillZerobss>

08000652 <FillZerobss>:

FillZerobss:
  str  r3, [r2]
 8000652:	6013      	str	r3, [r2, #0]
  adds r2, r2, #4
 8000654:	3204      	adds	r2, #4

08000656 <LoopFillZerobss>:

LoopFillZerobss:
  cmp r2, r4
 8000656:	42a2      	cmp	r2, r4
  bcc FillZerobss
 8000658:	d3fb      	bcc.n	8000652 <FillZerobss>

/* Call static constructors */
    bl __libc_init_array
 800065a:	f001 fd29 	bl	80020b0 <__libc_init_array>
/* Call the application's entry point.*/
	bl	main
 800065e:	f7ff fe01 	bl	8000264 <main>

08000662 <LoopForever>:

LoopForever:
    b LoopForever
 8000662:	e7fe      	b.n	8000662 <LoopForever>
  ldr   sp, =_estack    /* Atollic update: set stack pointer */
 8000664:	20010000 	.word	0x20010000
  ldr r0, =_sdata
 8000668:	20000000 	.word	0x20000000
  ldr r1, =_edata
 800066c:	20000010 	.word	0x20000010
  ldr r2, =_sidata
 8000670:	08002148 	.word	0x08002148
  ldr r2, =_sbss
 8000674:	20000010 	.word	0x20000010
  ldr r4, =_ebss
 8000678:	20000034 	.word	0x20000034

0800067c <ADC1_2_IRQHandler>:
 * @retval : None
*/
    .section	.text.Default_Handler,"ax",%progbits
Default_Handler:
Infinite_Loop:
	b	Infinite_Loop
 800067c:	e7fe      	b.n	800067c <ADC1_2_IRQHandler>
	...

08000680 <HAL_Init>:
  *         In the default implementation,Systick is used as source of time base.
  *       The tick variable is incremented each 1ms in its ISR.
  * @retval HAL status
  */
HAL_StatusTypeDef HAL_Init(void)
{
 8000680:	b580      	push	{r7, lr}
 8000682:	af00      	add	r7, sp, #0
  /* Configure Flash prefetch */
#if (PREFETCH_ENABLE != 0U)
  __HAL_FLASH_PREFETCH_BUFFER_ENABLE();
 8000684:	4b08      	ldr	r3, [pc, #32]	; (80006a8 <HAL_Init+0x28>)
 8000686:	681b      	ldr	r3, [r3, #0]
 8000688:	4a07      	ldr	r2, [pc, #28]	; (80006a8 <HAL_Init+0x28>)
 800068a:	f043 0310 	orr.w	r3, r3, #16
 800068e:	6013      	str	r3, [r2, #0]
#endif /* PREFETCH_ENABLE */

  /* Set Interrupt Group Priority */
  HAL_NVIC_SetPriorityGrouping(NVIC_PRIORITYGROUP_4);
 8000690:	2003      	movs	r0, #3
 8000692:	f000 f90d 	bl	80008b0 <HAL_NVIC_SetPriorityGrouping>

  /* Enable systick and configure 1ms tick (default clock after Reset is HSI) */
  HAL_InitTick(TICK_INT_PRIORITY);
 8000696:	200f      	movs	r0, #15
 8000698:	f000 f808 	bl	80006ac <HAL_InitTick>

  /* Init the low level hardware */
  HAL_MspInit();
 800069c:	f7ff ff66 	bl	800056c <HAL_MspInit>

  /* Return function status */
  return HAL_OK;
 80006a0:	2300      	movs	r3, #0
}
 80006a2:	4618      	mov	r0, r3
 80006a4:	bd80      	pop	{r7, pc}
 80006a6:	bf00      	nop
 80006a8:	40022000 	.word	0x40022000

080006ac <HAL_InitTick>:
  *         implementation  in user file.
  * @param TickPriority Tick interrupt priority.
  * @retval HAL status
  */
__weak HAL_StatusTypeDef HAL_InitTick(uint32_t TickPriority)
{
 80006ac:	b580      	push	{r7, lr}
 80006ae:	b082      	sub	sp, #8
 80006b0:	af00      	add	r7, sp, #0
 80006b2:	6078      	str	r0, [r7, #4]
  /* Configure the SysTick to have interrupt in 1ms time basis*/
  if (HAL_SYSTICK_Config(SystemCoreClock / (1000U / uwTickFreq)) > 0U)
 80006b4:	4b12      	ldr	r3, [pc, #72]	; (8000700 <HAL_InitTick+0x54>)
 80006b6:	681a      	ldr	r2, [r3, #0]
 80006b8:	4b12      	ldr	r3, [pc, #72]	; (8000704 <HAL_InitTick+0x58>)
 80006ba:	781b      	ldrb	r3, [r3, #0]
 80006bc:	4619      	mov	r1, r3
 80006be:	f44f 737a 	mov.w	r3, #1000	; 0x3e8
 80006c2:	fbb3 f3f1 	udiv	r3, r3, r1
 80006c6:	fbb2 f3f3 	udiv	r3, r2, r3
 80006ca:	4618      	mov	r0, r3
 80006cc:	f000 f917 	bl	80008fe <HAL_SYSTICK_Config>
 80006d0:	4603      	mov	r3, r0
 80006d2:	2b00      	cmp	r3, #0
 80006d4:	d001      	beq.n	80006da <HAL_InitTick+0x2e>
  {
    return HAL_ERROR;
 80006d6:	2301      	movs	r3, #1
 80006d8:	e00e      	b.n	80006f8 <HAL_InitTick+0x4c>
  }

  /* Configure the SysTick IRQ priority */
  if (TickPriority < (1UL << __NVIC_PRIO_BITS))
 80006da:	687b      	ldr	r3, [r7, #4]
 80006dc:	2b0f      	cmp	r3, #15
 80006de:	d80a      	bhi.n	80006f6 <HAL_InitTick+0x4a>
  {
    HAL_NVIC_SetPriority(SysTick_IRQn, TickPriority, 0U);
 80006e0:	2200      	movs	r2, #0
 80006e2:	6879      	ldr	r1, [r7, #4]
 80006e4:	f04f 30ff 	mov.w	r0, #4294967295
 80006e8:	f000 f8ed 	bl	80008c6 <HAL_NVIC_SetPriority>
    uwTickPrio = TickPriority;
 80006ec:	4a06      	ldr	r2, [pc, #24]	; (8000708 <HAL_InitTick+0x5c>)
 80006ee:	687b      	ldr	r3, [r7, #4]
 80006f0:	6013      	str	r3, [r2, #0]
  else
  {
    return HAL_ERROR;
  }
   /* Return function status */
  return HAL_OK;
 80006f2:	2300      	movs	r3, #0
 80006f4:	e000      	b.n	80006f8 <HAL_InitTick+0x4c>
    return HAL_ERROR;
 80006f6:	2301      	movs	r3, #1
}
 80006f8:	4618      	mov	r0, r3
 80006fa:	3708      	adds	r7, #8
 80006fc:	46bd      	mov	sp, r7
 80006fe:	bd80      	pop	{r7, pc}
 8000700:	20000004 	.word	0x20000004
 8000704:	2000000c 	.word	0x2000000c
 8000708:	20000008 	.word	0x20000008

0800070c <HAL_IncTick>:
  * @note This function is declared as __weak to be overwritten in case of other 
  *         implementations  in user file.
  * @retval None
  */
__weak void HAL_IncTick(void)
{
 800070c:	b480      	push	{r7}
 800070e:	af00      	add	r7, sp, #0
  uwTick += uwTickFreq;
 8000710:	4b06      	ldr	r3, [pc, #24]	; (800072c <HAL_IncTick+0x20>)
 8000712:	781b      	ldrb	r3, [r3, #0]
 8000714:	461a      	mov	r2, r3
 8000716:	4b06      	ldr	r3, [pc, #24]	; (8000730 <HAL_IncTick+0x24>)
 8000718:	681b      	ldr	r3, [r3, #0]
 800071a:	4413      	add	r3, r2
 800071c:	4a04      	ldr	r2, [pc, #16]	; (8000730 <HAL_IncTick+0x24>)
 800071e:	6013      	str	r3, [r2, #0]
}
 8000720:	bf00      	nop
 8000722:	46bd      	mov	sp, r7
 8000724:	f85d 7b04 	ldr.w	r7, [sp], #4
 8000728:	4770      	bx	lr
 800072a:	bf00      	nop
 800072c:	2000000c 	.word	0x2000000c
 8000730:	20000030 	.word	0x20000030

08000734 <HAL_GetTick>:
  * @note   The function is declared as __Weak  to be overwritten  in case of other 
  *         implementations  in user file.
  * @retval tick value
  */
__weak uint32_t HAL_GetTick(void)
{
 8000734:	b480      	push	{r7}
 8000736:	af00      	add	r7, sp, #0
  return uwTick;  
 8000738:	4b03      	ldr	r3, [pc, #12]	; (8000748 <HAL_GetTick+0x14>)
 800073a:	681b      	ldr	r3, [r3, #0]
}
 800073c:	4618      	mov	r0, r3
 800073e:	46bd      	mov	sp, r7
 8000740:	f85d 7b04 	ldr.w	r7, [sp], #4
 8000744:	4770      	bx	lr
 8000746:	bf00      	nop
 8000748:	20000030 	.word	0x20000030

0800074c <__NVIC_SetPriorityGrouping>:
{
 800074c:	b480      	push	{r7}
 800074e:	b085      	sub	sp, #20
 8000750:	af00      	add	r7, sp, #0
 8000752:	6078      	str	r0, [r7, #4]
  uint32_t PriorityGroupTmp = (PriorityGroup & (uint32_t)0x07UL);             /* only values 0..7 are used          */
 8000754:	687b      	ldr	r3, [r7, #4]
 8000756:	f003 0307 	and.w	r3, r3, #7
 800075a:	60fb      	str	r3, [r7, #12]
  reg_value  =  SCB->AIRCR;                                                   /* read old register configuration    */
 800075c:	4b0c      	ldr	r3, [pc, #48]	; (8000790 <__NVIC_SetPriorityGrouping+0x44>)
 800075e:	68db      	ldr	r3, [r3, #12]
 8000760:	60bb      	str	r3, [r7, #8]
  reg_value &= ~((uint32_t)(SCB_AIRCR_VECTKEY_Msk | SCB_AIRCR_PRIGROUP_Msk)); /* clear bits to change               */
 8000762:	68ba      	ldr	r2, [r7, #8]
 8000764:	f64f 03ff 	movw	r3, #63743	; 0xf8ff
 8000768:	4013      	ands	r3, r2
 800076a:	60bb      	str	r3, [r7, #8]
                (PriorityGroupTmp << SCB_AIRCR_PRIGROUP_Pos)  );              /* Insert write key and priority group */
 800076c:	68fb      	ldr	r3, [r7, #12]
 800076e:	021a      	lsls	r2, r3, #8
                ((uint32_t)0x5FAUL << SCB_AIRCR_VECTKEY_Pos) |
 8000770:	68bb      	ldr	r3, [r7, #8]
 8000772:	4313      	orrs	r3, r2
  reg_value  =  (reg_value                                   |
 8000774:	f043 63bf 	orr.w	r3, r3, #100139008	; 0x5f80000
 8000778:	f443 3300 	orr.w	r3, r3, #131072	; 0x20000
 800077c:	60bb      	str	r3, [r7, #8]
  SCB->AIRCR =  reg_value;
 800077e:	4a04      	ldr	r2, [pc, #16]	; (8000790 <__NVIC_SetPriorityGrouping+0x44>)
 8000780:	68bb      	ldr	r3, [r7, #8]
 8000782:	60d3      	str	r3, [r2, #12]
}
 8000784:	bf00      	nop
 8000786:	3714      	adds	r7, #20
 8000788:	46bd      	mov	sp, r7
 800078a:	f85d 7b04 	ldr.w	r7, [sp], #4
 800078e:	4770      	bx	lr
 8000790:	e000ed00 	.word	0xe000ed00

08000794 <__NVIC_GetPriorityGrouping>:
{
 8000794:	b480      	push	{r7}
 8000796:	af00      	add	r7, sp, #0
  return ((uint32_t)((SCB->AIRCR & SCB_AIRCR_PRIGROUP_Msk) >> SCB_AIRCR_PRIGROUP_Pos));
 8000798:	4b04      	ldr	r3, [pc, #16]	; (80007ac <__NVIC_GetPriorityGrouping+0x18>)
 800079a:	68db      	ldr	r3, [r3, #12]
 800079c:	0a1b      	lsrs	r3, r3, #8
 800079e:	f003 0307 	and.w	r3, r3, #7
}
 80007a2:	4618      	mov	r0, r3
 80007a4:	46bd      	mov	sp, r7
 80007a6:	f85d 7b04 	ldr.w	r7, [sp], #4
 80007aa:	4770      	bx	lr
 80007ac:	e000ed00 	.word	0xe000ed00

080007b0 <__NVIC_SetPriority>:
{
 80007b0:	b480      	push	{r7}
 80007b2:	b083      	sub	sp, #12
 80007b4:	af00      	add	r7, sp, #0
 80007b6:	4603      	mov	r3, r0
 80007b8:	6039      	str	r1, [r7, #0]
 80007ba:	71fb      	strb	r3, [r7, #7]
  if ((int32_t)(IRQn) >= 0)
 80007bc:	f997 3007 	ldrsb.w	r3, [r7, #7]
 80007c0:	2b00      	cmp	r3, #0
 80007c2:	db0a      	blt.n	80007da <__NVIC_SetPriority+0x2a>
    NVIC->IP[((uint32_t)IRQn)]               = (uint8_t)((priority << (8U - __NVIC_PRIO_BITS)) & (uint32_t)0xFFUL);
 80007c4:	683b      	ldr	r3, [r7, #0]
 80007c6:	b2da      	uxtb	r2, r3
 80007c8:	490c      	ldr	r1, [pc, #48]	; (80007fc <__NVIC_SetPriority+0x4c>)
 80007ca:	f997 3007 	ldrsb.w	r3, [r7, #7]
 80007ce:	0112      	lsls	r2, r2, #4
 80007d0:	b2d2      	uxtb	r2, r2
 80007d2:	440b      	add	r3, r1
 80007d4:	f883 2300 	strb.w	r2, [r3, #768]	; 0x300
}
 80007d8:	e00a      	b.n	80007f0 <__NVIC_SetPriority+0x40>
    SCB->SHP[(((uint32_t)IRQn) & 0xFUL)-4UL] = (uint8_t)((priority << (8U - __NVIC_PRIO_BITS)) & (uint32_t)0xFFUL);
 80007da:	683b      	ldr	r3, [r7, #0]
 80007dc:	b2da      	uxtb	r2, r3
 80007de:	4908      	ldr	r1, [pc, #32]	; (8000800 <__NVIC_SetPriority+0x50>)
 80007e0:	79fb      	ldrb	r3, [r7, #7]
 80007e2:	f003 030f 	and.w	r3, r3, #15
 80007e6:	3b04      	subs	r3, #4
 80007e8:	0112      	lsls	r2, r2, #4
 80007ea:	b2d2      	uxtb	r2, r2
 80007ec:	440b      	add	r3, r1
 80007ee:	761a      	strb	r2, [r3, #24]
}
 80007f0:	bf00      	nop
 80007f2:	370c      	adds	r7, #12
 80007f4:	46bd      	mov	sp, r7
 80007f6:	f85d 7b04 	ldr.w	r7, [sp], #4
 80007fa:	4770      	bx	lr
 80007fc:	e000e100 	.word	0xe000e100
 8000800:	e000ed00 	.word	0xe000ed00

08000804 <NVIC_EncodePriority>:
  \param [in]   PreemptPriority  Preemptive priority value (starting from 0).
  \param [in]       SubPriority  Subpriority value (starting from 0).
  \return                        Encoded priority. Value can be used in the function \ref NVIC_SetPriority().
 */
__STATIC_INLINE uint32_t NVIC_EncodePriority (uint32_t PriorityGroup, uint32_t PreemptPriority, uint32_t SubPriority)
{
 8000804:	b480      	push	{r7}
 8000806:	b089      	sub	sp, #36	; 0x24
 8000808:	af00      	add	r7, sp, #0
 800080a:	60f8      	str	r0, [r7, #12]
 800080c:	60b9      	str	r1, [r7, #8]
 800080e:	607a      	str	r2, [r7, #4]
  uint32_t PriorityGroupTmp = (PriorityGroup & (uint32_t)0x07UL);   /* only values 0..7 are used          */
 8000810:	68fb      	ldr	r3, [r7, #12]
 8000812:	f003 0307 	and.w	r3, r3, #7
 8000816:	61fb      	str	r3, [r7, #28]
  uint32_t PreemptPriorityBits;
  uint32_t SubPriorityBits;

  PreemptPriorityBits = ((7UL - PriorityGroupTmp) > (uint32_t)(__NVIC_PRIO_BITS)) ? (uint32_t)(__NVIC_PRIO_BITS) : (uint32_t)(7UL - PriorityGroupTmp);
 8000818:	69fb      	ldr	r3, [r7, #28]
 800081a:	f1c3 0307 	rsb	r3, r3, #7
 800081e:	2b04      	cmp	r3, #4
 8000820:	bf28      	it	cs
 8000822:	2304      	movcs	r3, #4
 8000824:	61bb      	str	r3, [r7, #24]
  SubPriorityBits     = ((PriorityGroupTmp + (uint32_t)(__NVIC_PRIO_BITS)) < (uint32_t)7UL) ? (uint32_t)0UL : (uint32_t)((PriorityGroupTmp - 7UL) + (uint32_t)(__NVIC_PRIO_BITS));
 8000826:	69fb      	ldr	r3, [r7, #28]
 8000828:	3304      	adds	r3, #4
 800082a:	2b06      	cmp	r3, #6
 800082c:	d902      	bls.n	8000834 <NVIC_EncodePriority+0x30>
 800082e:	69fb      	ldr	r3, [r7, #28]
 8000830:	3b03      	subs	r3, #3
 8000832:	e000      	b.n	8000836 <NVIC_EncodePriority+0x32>
 8000834:	2300      	movs	r3, #0
 8000836:	617b      	str	r3, [r7, #20]

  return (
           ((PreemptPriority & (uint32_t)((1UL << (PreemptPriorityBits)) - 1UL)) << SubPriorityBits) |
 8000838:	f04f 32ff 	mov.w	r2, #4294967295
 800083c:	69bb      	ldr	r3, [r7, #24]
 800083e:	fa02 f303 	lsl.w	r3, r2, r3
 8000842:	43da      	mvns	r2, r3
 8000844:	68bb      	ldr	r3, [r7, #8]
 8000846:	401a      	ands	r2, r3
 8000848:	697b      	ldr	r3, [r7, #20]
 800084a:	409a      	lsls	r2, r3
           ((SubPriority     & (uint32_t)((1UL << (SubPriorityBits    )) - 1UL)))
 800084c:	f04f 31ff 	mov.w	r1, #4294967295
 8000850:	697b      	ldr	r3, [r7, #20]
 8000852:	fa01 f303 	lsl.w	r3, r1, r3
 8000856:	43d9      	mvns	r1, r3
 8000858:	687b      	ldr	r3, [r7, #4]
 800085a:	400b      	ands	r3, r1
           ((PreemptPriority & (uint32_t)((1UL << (PreemptPriorityBits)) - 1UL)) << SubPriorityBits) |
 800085c:	4313      	orrs	r3, r2
         );
}
 800085e:	4618      	mov	r0, r3
 8000860:	3724      	adds	r7, #36	; 0x24
 8000862:	46bd      	mov	sp, r7
 8000864:	f85d 7b04 	ldr.w	r7, [sp], #4
 8000868:	4770      	bx	lr
	...

0800086c <SysTick_Config>:
  \note    When the variable <b>__Vendor_SysTickConfig</b> is set to 1, then the
           function <b>SysTick_Config</b> is not included. In this case, the file <b><i>device</i>.h</b>
           must contain a vendor-specific implementation of this function.
 */
__STATIC_INLINE uint32_t SysTick_Config(uint32_t ticks)
{
 800086c:	b580      	push	{r7, lr}
 800086e:	b082      	sub	sp, #8
 8000870:	af00      	add	r7, sp, #0
 8000872:	6078      	str	r0, [r7, #4]
  if ((ticks - 1UL) > SysTick_LOAD_RELOAD_Msk)
 8000874:	687b      	ldr	r3, [r7, #4]
 8000876:	3b01      	subs	r3, #1
 8000878:	f1b3 7f80 	cmp.w	r3, #16777216	; 0x1000000
 800087c:	d301      	bcc.n	8000882 <SysTick_Config+0x16>
  {
    return (1UL);                                                   /* Reload value impossible */
 800087e:	2301      	movs	r3, #1
 8000880:	e00f      	b.n	80008a2 <SysTick_Config+0x36>
  }

  SysTick->LOAD  = (uint32_t)(ticks - 1UL);                         /* set reload register */
 8000882:	4a0a      	ldr	r2, [pc, #40]	; (80008ac <SysTick_Config+0x40>)
 8000884:	687b      	ldr	r3, [r7, #4]
 8000886:	3b01      	subs	r3, #1
 8000888:	6053      	str	r3, [r2, #4]
  NVIC_SetPriority (SysTick_IRQn, (1UL << __NVIC_PRIO_BITS) - 1UL); /* set Priority for Systick Interrupt */
 800088a:	210f      	movs	r1, #15
 800088c:	f04f 30ff 	mov.w	r0, #4294967295
 8000890:	f7ff ff8e 	bl	80007b0 <__NVIC_SetPriority>
  SysTick->VAL   = 0UL;                                             /* Load the SysTick Counter Value */
 8000894:	4b05      	ldr	r3, [pc, #20]	; (80008ac <SysTick_Config+0x40>)
 8000896:	2200      	movs	r2, #0
 8000898:	609a      	str	r2, [r3, #8]
  SysTick->CTRL  = SysTick_CTRL_CLKSOURCE_Msk |
 800089a:	4b04      	ldr	r3, [pc, #16]	; (80008ac <SysTick_Config+0x40>)
 800089c:	2207      	movs	r2, #7
 800089e:	601a      	str	r2, [r3, #0]
                   SysTick_CTRL_TICKINT_Msk   |
                   SysTick_CTRL_ENABLE_Msk;                         /* Enable SysTick IRQ and SysTick Timer */
  return (0UL);                                                     /* Function successful */
 80008a0:	2300      	movs	r3, #0
}
 80008a2:	4618      	mov	r0, r3
 80008a4:	3708      	adds	r7, #8
 80008a6:	46bd      	mov	sp, r7
 80008a8:	bd80      	pop	{r7, pc}
 80008aa:	bf00      	nop
 80008ac:	e000e010 	.word	0xe000e010

080008b0 <HAL_NVIC_SetPriorityGrouping>:
  * @note   When the NVIC_PriorityGroup_0 is selected, IRQ pre-emption is no more possible.
  *         The pending IRQ priority will be managed only by the subpriority.
  * @retval None
  */
void HAL_NVIC_SetPriorityGrouping(uint32_t PriorityGroup)
{
 80008b0:	b580      	push	{r7, lr}
 80008b2:	b082      	sub	sp, #8
 80008b4:	af00      	add	r7, sp, #0
 80008b6:	6078      	str	r0, [r7, #4]
  /* Check the parameters */
  assert_param(IS_NVIC_PRIORITY_GROUP(PriorityGroup));

  /* Set the PRIGROUP[10:8] bits according to the PriorityGroup parameter value */
  NVIC_SetPriorityGrouping(PriorityGroup);
 80008b8:	6878      	ldr	r0, [r7, #4]
 80008ba:	f7ff ff47 	bl	800074c <__NVIC_SetPriorityGrouping>
}
 80008be:	bf00      	nop
 80008c0:	3708      	adds	r7, #8
 80008c2:	46bd      	mov	sp, r7
 80008c4:	bd80      	pop	{r7, pc}

080008c6 <HAL_NVIC_SetPriority>:
  *         This parameter can be a value between 0 and 15 as described in the table CORTEX_NVIC_Priority_Table
  *         A lower priority value indicates a higher priority.
  * @retval None
  */
void HAL_NVIC_SetPriority(IRQn_Type IRQn, uint32_t PreemptPriority, uint32_t SubPriority)
{
 80008c6:	b580      	push	{r7, lr}
 80008c8:	b086      	sub	sp, #24
 80008ca:	af00      	add	r7, sp, #0
 80008cc:	4603      	mov	r3, r0
 80008ce:	60b9      	str	r1, [r7, #8]
 80008d0:	607a      	str	r2, [r7, #4]
 80008d2:	73fb      	strb	r3, [r7, #15]
  uint32_t prioritygroup = 0x00U;
 80008d4:	2300      	movs	r3, #0
 80008d6:	617b      	str	r3, [r7, #20]
  
  /* Check the parameters */
  assert_param(IS_NVIC_SUB_PRIORITY(SubPriority));
  assert_param(IS_NVIC_PREEMPTION_PRIORITY(PreemptPriority));
  
  prioritygroup = NVIC_GetPriorityGrouping();
 80008d8:	f7ff ff5c 	bl	8000794 <__NVIC_GetPriorityGrouping>
 80008dc:	6178      	str	r0, [r7, #20]
  
  NVIC_SetPriority(IRQn, NVIC_EncodePriority(prioritygroup, PreemptPriority, SubPriority));
 80008de:	687a      	ldr	r2, [r7, #4]
 80008e0:	68b9      	ldr	r1, [r7, #8]
 80008e2:	6978      	ldr	r0, [r7, #20]
 80008e4:	f7ff ff8e 	bl	8000804 <NVIC_EncodePriority>
 80008e8:	4602      	mov	r2, r0
 80008ea:	f997 300f 	ldrsb.w	r3, [r7, #15]
 80008ee:	4611      	mov	r1, r2
 80008f0:	4618      	mov	r0, r3
 80008f2:	f7ff ff5d 	bl	80007b0 <__NVIC_SetPriority>
}
 80008f6:	bf00      	nop
 80008f8:	3718      	adds	r7, #24
 80008fa:	46bd      	mov	sp, r7
 80008fc:	bd80      	pop	{r7, pc}

080008fe <HAL_SYSTICK_Config>:
  * @param  TicksNumb Specifies the ticks Number of ticks between two interrupts.
  * @retval status:  - 0  Function succeeded.
  *                  - 1  Function failed.
  */
uint32_t HAL_SYSTICK_Config(uint32_t TicksNumb)
{
 80008fe:	b580      	push	{r7, lr}
 8000900:	b082      	sub	sp, #8
 8000902:	af00      	add	r7, sp, #0
 8000904:	6078      	str	r0, [r7, #4]
   return SysTick_Config(TicksNumb);
 8000906:	6878      	ldr	r0, [r7, #4]
 8000908:	f7ff ffb0 	bl	800086c <SysTick_Config>
 800090c:	4603      	mov	r3, r0
}
 800090e:	4618      	mov	r0, r3
 8000910:	3708      	adds	r7, #8
 8000912:	46bd      	mov	sp, r7
 8000914:	bd80      	pop	{r7, pc}
	...

08000918 <HAL_GPIO_Init>:
  * @param  GPIO_Init pointer to a GPIO_InitTypeDef structure that contains
  *         the configuration information for the specified GPIO peripheral.
  * @retval None
  */
void HAL_GPIO_Init(GPIO_TypeDef  *GPIOx, GPIO_InitTypeDef *GPIO_Init)
{
 8000918:	b480      	push	{r7}
 800091a:	b087      	sub	sp, #28
 800091c:	af00      	add	r7, sp, #0
 800091e:	6078      	str	r0, [r7, #4]
 8000920:	6039      	str	r1, [r7, #0]
  uint32_t position = 0x00u;
 8000922:	2300      	movs	r3, #0
 8000924:	617b      	str	r3, [r7, #20]
  assert_param(IS_GPIO_ALL_INSTANCE(GPIOx));
  assert_param(IS_GPIO_PIN(GPIO_Init->Pin));
  assert_param(IS_GPIO_MODE(GPIO_Init->Mode));

  /* Configure the port pins */
  while (((GPIO_Init->Pin) >> position) != 0x00u)
 8000926:	e160      	b.n	8000bea <HAL_GPIO_Init+0x2d2>
  {
    /* Get current io position */
    iocurrent = (GPIO_Init->Pin) & (1uL << position);
 8000928:	683b      	ldr	r3, [r7, #0]
 800092a:	681a      	ldr	r2, [r3, #0]
 800092c:	2101      	movs	r1, #1
 800092e:	697b      	ldr	r3, [r7, #20]
 8000930:	fa01 f303 	lsl.w	r3, r1, r3
 8000934:	4013      	ands	r3, r2
 8000936:	60fb      	str	r3, [r7, #12]

    if (iocurrent != 0x00u)
 8000938:	68fb      	ldr	r3, [r7, #12]
 800093a:	2b00      	cmp	r3, #0
 800093c:	f000 8152 	beq.w	8000be4 <HAL_GPIO_Init+0x2cc>
    {
      /*--------------------- GPIO Mode Configuration ------------------------*/
      /* In case of Output or Alternate function mode selection */
      if(((GPIO_Init->Mode & GPIO_MODE) == MODE_OUTPUT) || ((GPIO_Init->Mode & GPIO_MODE) == MODE_AF))
 8000940:	683b      	ldr	r3, [r7, #0]
 8000942:	685b      	ldr	r3, [r3, #4]
 8000944:	f003 0303 	and.w	r3, r3, #3
 8000948:	2b01      	cmp	r3, #1
 800094a:	d005      	beq.n	8000958 <HAL_GPIO_Init+0x40>
 800094c:	683b      	ldr	r3, [r7, #0]
 800094e:	685b      	ldr	r3, [r3, #4]
 8000950:	f003 0303 	and.w	r3, r3, #3
 8000954:	2b02      	cmp	r3, #2
 8000956:	d130      	bne.n	80009ba <HAL_GPIO_Init+0xa2>
      {
        /* Check the Speed parameter */
        assert_param(IS_GPIO_SPEED(GPIO_Init->Speed));
        /* Configure the IO Speed */
        temp = GPIOx->OSPEEDR;
 8000958:	687b      	ldr	r3, [r7, #4]
 800095a:	689b      	ldr	r3, [r3, #8]
 800095c:	613b      	str	r3, [r7, #16]
        temp &= ~(GPIO_OSPEEDER_OSPEEDR0 << (position * 2u));
 800095e:	697b      	ldr	r3, [r7, #20]
 8000960:	005b      	lsls	r3, r3, #1
 8000962:	2203      	movs	r2, #3
 8000964:	fa02 f303 	lsl.w	r3, r2, r3
 8000968:	43db      	mvns	r3, r3
 800096a:	693a      	ldr	r2, [r7, #16]
 800096c:	4013      	ands	r3, r2
 800096e:	613b      	str	r3, [r7, #16]
        temp |= (GPIO_Init->Speed << (position * 2u));
 8000970:	683b      	ldr	r3, [r7, #0]
 8000972:	68da      	ldr	r2, [r3, #12]
 8000974:	697b      	ldr	r3, [r7, #20]
 8000976:	005b      	lsls	r3, r3, #1
 8000978:	fa02 f303 	lsl.w	r3, r2, r3
 800097c:	693a      	ldr	r2, [r7, #16]
 800097e:	4313      	orrs	r3, r2
 8000980:	613b      	str	r3, [r7, #16]
        GPIOx->OSPEEDR = temp;
 8000982:	687b      	ldr	r3, [r7, #4]
 8000984:	693a      	ldr	r2, [r7, #16]
 8000986:	609a      	str	r2, [r3, #8]

        /* Configure the IO Output Type */
        temp = GPIOx->OTYPER;
 8000988:	687b      	ldr	r3, [r7, #4]
 800098a:	685b      	ldr	r3, [r3, #4]
 800098c:	613b      	str	r3, [r7, #16]
        temp &= ~(GPIO_OTYPER_OT_0 << position) ;
 800098e:	2201      	movs	r2, #1
 8000990:	697b      	ldr	r3, [r7, #20]
 8000992:	fa02 f303 	lsl.w	r3, r2, r3
 8000996:	43db      	mvns	r3, r3
 8000998:	693a      	ldr	r2, [r7, #16]
 800099a:	4013      	ands	r3, r2
 800099c:	613b      	str	r3, [r7, #16]
        temp |= (((GPIO_Init->Mode & OUTPUT_TYPE) >> OUTPUT_TYPE_Pos) << position);
 800099e:	683b      	ldr	r3, [r7, #0]
 80009a0:	685b      	ldr	r3, [r3, #4]
 80009a2:	091b      	lsrs	r3, r3, #4
 80009a4:	f003 0201 	and.w	r2, r3, #1
 80009a8:	697b      	ldr	r3, [r7, #20]
 80009aa:	fa02 f303 	lsl.w	r3, r2, r3
 80009ae:	693a      	ldr	r2, [r7, #16]
 80009b0:	4313      	orrs	r3, r2
 80009b2:	613b      	str	r3, [r7, #16]
        GPIOx->OTYPER = temp;
 80009b4:	687b      	ldr	r3, [r7, #4]
 80009b6:	693a      	ldr	r2, [r7, #16]
 80009b8:	605a      	str	r2, [r3, #4]
      }

      if((GPIO_Init->Mode & GPIO_MODE) != MODE_ANALOG)
 80009ba:	683b      	ldr	r3, [r7, #0]
 80009bc:	685b      	ldr	r3, [r3, #4]
 80009be:	f003 0303 	and.w	r3, r3, #3
 80009c2:	2b03      	cmp	r3, #3
 80009c4:	d017      	beq.n	80009f6 <HAL_GPIO_Init+0xde>
      {
        /* Check the Pull parameter */
        assert_param(IS_GPIO_PULL(GPIO_Init->Pull));

        /* Activate the Pull-up or Pull down resistor for the current IO */
        temp = GPIOx->PUPDR;
 80009c6:	687b      	ldr	r3, [r7, #4]
 80009c8:	68db      	ldr	r3, [r3, #12]
 80009ca:	613b      	str	r3, [r7, #16]
        temp &= ~(GPIO_PUPDR_PUPDR0 << (position * 2u));
 80009cc:	697b      	ldr	r3, [r7, #20]
 80009ce:	005b      	lsls	r3, r3, #1
 80009d0:	2203      	movs	r2, #3
 80009d2:	fa02 f303 	lsl.w	r3, r2, r3
 80009d6:	43db      	mvns	r3, r3
 80009d8:	693a      	ldr	r2, [r7, #16]
 80009da:	4013      	ands	r3, r2
 80009dc:	613b      	str	r3, [r7, #16]
        temp |= ((GPIO_Init->Pull) << (position * 2u));
 80009de:	683b      	ldr	r3, [r7, #0]
 80009e0:	689a      	ldr	r2, [r3, #8]
 80009e2:	697b      	ldr	r3, [r7, #20]
 80009e4:	005b      	lsls	r3, r3, #1
 80009e6:	fa02 f303 	lsl.w	r3, r2, r3
 80009ea:	693a      	ldr	r2, [r7, #16]
 80009ec:	4313      	orrs	r3, r2
 80009ee:	613b      	str	r3, [r7, #16]
        GPIOx->PUPDR = temp;
 80009f0:	687b      	ldr	r3, [r7, #4]
 80009f2:	693a      	ldr	r2, [r7, #16]
 80009f4:	60da      	str	r2, [r3, #12]
      }

      /*--------------------- GPIO Mode Configuration ------------------------*/
      /* In case of Alternate function mode selection */
      if((GPIO_Init->Mode & GPIO_MODE) == MODE_AF)
 80009f6:	683b      	ldr	r3, [r7, #0]
 80009f8:	685b      	ldr	r3, [r3, #4]
 80009fa:	f003 0303 	and.w	r3, r3, #3
 80009fe:	2b02      	cmp	r3, #2
 8000a00:	d123      	bne.n	8000a4a <HAL_GPIO_Init+0x132>
        /* Check the Alternate function parameters */
        assert_param(IS_GPIO_AF_INSTANCE(GPIOx));
        assert_param(IS_GPIO_AF(GPIO_Init->Alternate));

        /* Configure Alternate function mapped with the current IO */
        temp = GPIOx->AFR[position >> 3u];
 8000a02:	697b      	ldr	r3, [r7, #20]
 8000a04:	08da      	lsrs	r2, r3, #3
 8000a06:	687b      	ldr	r3, [r7, #4]
 8000a08:	3208      	adds	r2, #8
 8000a0a:	f853 3022 	ldr.w	r3, [r3, r2, lsl #2]
 8000a0e:	613b      	str	r3, [r7, #16]
        temp &= ~(0xFu << ((position & 0x07u) * 4u));
 8000a10:	697b      	ldr	r3, [r7, #20]
 8000a12:	f003 0307 	and.w	r3, r3, #7
 8000a16:	009b      	lsls	r3, r3, #2
 8000a18:	220f      	movs	r2, #15
 8000a1a:	fa02 f303 	lsl.w	r3, r2, r3
 8000a1e:	43db      	mvns	r3, r3
 8000a20:	693a      	ldr	r2, [r7, #16]
 8000a22:	4013      	ands	r3, r2
 8000a24:	613b      	str	r3, [r7, #16]
        temp |= ((GPIO_Init->Alternate) << ((position & 0x07u) * 4u));
 8000a26:	683b      	ldr	r3, [r7, #0]
 8000a28:	691a      	ldr	r2, [r3, #16]
 8000a2a:	697b      	ldr	r3, [r7, #20]
 8000a2c:	f003 0307 	and.w	r3, r3, #7
 8000a30:	009b      	lsls	r3, r3, #2
 8000a32:	fa02 f303 	lsl.w	r3, r2, r3
 8000a36:	693a      	ldr	r2, [r7, #16]
 8000a38:	4313      	orrs	r3, r2
 8000a3a:	613b      	str	r3, [r7, #16]
        GPIOx->AFR[position >> 3u] = temp;
 8000a3c:	697b      	ldr	r3, [r7, #20]
 8000a3e:	08da      	lsrs	r2, r3, #3
 8000a40:	687b      	ldr	r3, [r7, #4]
 8000a42:	3208      	adds	r2, #8
 8000a44:	6939      	ldr	r1, [r7, #16]
 8000a46:	f843 1022 	str.w	r1, [r3, r2, lsl #2]
      }

      /* Configure IO Direction mode (Input, Output, Alternate or Analog) */
      temp = GPIOx->MODER;
 8000a4a:	687b      	ldr	r3, [r7, #4]
 8000a4c:	681b      	ldr	r3, [r3, #0]
 8000a4e:	613b      	str	r3, [r7, #16]
      temp &= ~(GPIO_MODER_MODER0 << (position * 2u));
 8000a50:	697b      	ldr	r3, [r7, #20]
 8000a52:	005b      	lsls	r3, r3, #1
 8000a54:	2203      	movs	r2, #3
 8000a56:	fa02 f303 	lsl.w	r3, r2, r3
 8000a5a:	43db      	mvns	r3, r3
 8000a5c:	693a      	ldr	r2, [r7, #16]
 8000a5e:	4013      	ands	r3, r2
 8000a60:	613b      	str	r3, [r7, #16]
      temp |= ((GPIO_Init->Mode & GPIO_MODE) << (position * 2u));
 8000a62:	683b      	ldr	r3, [r7, #0]
 8000a64:	685b      	ldr	r3, [r3, #4]
 8000a66:	f003 0203 	and.w	r2, r3, #3
 8000a6a:	697b      	ldr	r3, [r7, #20]
 8000a6c:	005b      	lsls	r3, r3, #1
 8000a6e:	fa02 f303 	lsl.w	r3, r2, r3
 8000a72:	693a      	ldr	r2, [r7, #16]
 8000a74:	4313      	orrs	r3, r2
 8000a76:	613b      	str	r3, [r7, #16]
      GPIOx->MODER = temp;
 8000a78:	687b      	ldr	r3, [r7, #4]
 8000a7a:	693a      	ldr	r2, [r7, #16]
 8000a7c:	601a      	str	r2, [r3, #0]

      /*--------------------- EXTI Mode Configuration ------------------------*/
      /* Configure the External Interrupt or event for the current IO */
      if((GPIO_Init->Mode & EXTI_MODE) != 0x00u)
 8000a7e:	683b      	ldr	r3, [r7, #0]
 8000a80:	685b      	ldr	r3, [r3, #4]
 8000a82:	f403 3340 	and.w	r3, r3, #196608	; 0x30000
 8000a86:	2b00      	cmp	r3, #0
 8000a88:	f000 80ac 	beq.w	8000be4 <HAL_GPIO_Init+0x2cc>
      {
        /* Enable SYSCFG Clock */
        __HAL_RCC_SYSCFG_CLK_ENABLE();
 8000a8c:	4b5e      	ldr	r3, [pc, #376]	; (8000c08 <HAL_GPIO_Init+0x2f0>)
 8000a8e:	699b      	ldr	r3, [r3, #24]
 8000a90:	4a5d      	ldr	r2, [pc, #372]	; (8000c08 <HAL_GPIO_Init+0x2f0>)
 8000a92:	f043 0301 	orr.w	r3, r3, #1
 8000a96:	6193      	str	r3, [r2, #24]
 8000a98:	4b5b      	ldr	r3, [pc, #364]	; (8000c08 <HAL_GPIO_Init+0x2f0>)
 8000a9a:	699b      	ldr	r3, [r3, #24]
 8000a9c:	f003 0301 	and.w	r3, r3, #1
 8000aa0:	60bb      	str	r3, [r7, #8]
 8000aa2:	68bb      	ldr	r3, [r7, #8]

        temp = SYSCFG->EXTICR[position >> 2u];
 8000aa4:	4a59      	ldr	r2, [pc, #356]	; (8000c0c <HAL_GPIO_Init+0x2f4>)
 8000aa6:	697b      	ldr	r3, [r7, #20]
 8000aa8:	089b      	lsrs	r3, r3, #2
 8000aaa:	3302      	adds	r3, #2
 8000aac:	f852 3023 	ldr.w	r3, [r2, r3, lsl #2]
 8000ab0:	613b      	str	r3, [r7, #16]
        temp &= ~(0x0FuL << (4u * (position & 0x03u)));
 8000ab2:	697b      	ldr	r3, [r7, #20]
 8000ab4:	f003 0303 	and.w	r3, r3, #3
 8000ab8:	009b      	lsls	r3, r3, #2
 8000aba:	220f      	movs	r2, #15
 8000abc:	fa02 f303 	lsl.w	r3, r2, r3
 8000ac0:	43db      	mvns	r3, r3
 8000ac2:	693a      	ldr	r2, [r7, #16]
 8000ac4:	4013      	ands	r3, r2
 8000ac6:	613b      	str	r3, [r7, #16]
        temp |= (GPIO_GET_INDEX(GPIOx) << (4u * (position & 0x03u)));
 8000ac8:	687b      	ldr	r3, [r7, #4]
 8000aca:	f1b3 4f90 	cmp.w	r3, #1207959552	; 0x48000000
 8000ace:	d025      	beq.n	8000b1c <HAL_GPIO_Init+0x204>
 8000ad0:	687b      	ldr	r3, [r7, #4]
 8000ad2:	4a4f      	ldr	r2, [pc, #316]	; (8000c10 <HAL_GPIO_Init+0x2f8>)
 8000ad4:	4293      	cmp	r3, r2
 8000ad6:	d01f      	beq.n	8000b18 <HAL_GPIO_Init+0x200>
 8000ad8:	687b      	ldr	r3, [r7, #4]
 8000ada:	4a4e      	ldr	r2, [pc, #312]	; (8000c14 <HAL_GPIO_Init+0x2fc>)
 8000adc:	4293      	cmp	r3, r2
 8000ade:	d019      	beq.n	8000b14 <HAL_GPIO_Init+0x1fc>
 8000ae0:	687b      	ldr	r3, [r7, #4]
 8000ae2:	4a4d      	ldr	r2, [pc, #308]	; (8000c18 <HAL_GPIO_Init+0x300>)
 8000ae4:	4293      	cmp	r3, r2
 8000ae6:	d013      	beq.n	8000b10 <HAL_GPIO_Init+0x1f8>
 8000ae8:	687b      	ldr	r3, [r7, #4]
 8000aea:	4a4c      	ldr	r2, [pc, #304]	; (8000c1c <HAL_GPIO_Init+0x304>)
 8000aec:	4293      	cmp	r3, r2
 8000aee:	d00d      	beq.n	8000b0c <HAL_GPIO_Init+0x1f4>
 8000af0:	687b      	ldr	r3, [r7, #4]
 8000af2:	4a4b      	ldr	r2, [pc, #300]	; (8000c20 <HAL_GPIO_Init+0x308>)
 8000af4:	4293      	cmp	r3, r2
 8000af6:	d007      	beq.n	8000b08 <HAL_GPIO_Init+0x1f0>
 8000af8:	687b      	ldr	r3, [r7, #4]
 8000afa:	4a4a      	ldr	r2, [pc, #296]	; (8000c24 <HAL_GPIO_Init+0x30c>)
 8000afc:	4293      	cmp	r3, r2
 8000afe:	d101      	bne.n	8000b04 <HAL_GPIO_Init+0x1ec>
 8000b00:	2306      	movs	r3, #6
 8000b02:	e00c      	b.n	8000b1e <HAL_GPIO_Init+0x206>
 8000b04:	2307      	movs	r3, #7
 8000b06:	e00a      	b.n	8000b1e <HAL_GPIO_Init+0x206>
 8000b08:	2305      	movs	r3, #5
 8000b0a:	e008      	b.n	8000b1e <HAL_GPIO_Init+0x206>
 8000b0c:	2304      	movs	r3, #4
 8000b0e:	e006      	b.n	8000b1e <HAL_GPIO_Init+0x206>
 8000b10:	2303      	movs	r3, #3
 8000b12:	e004      	b.n	8000b1e <HAL_GPIO_Init+0x206>
 8000b14:	2302      	movs	r3, #2
 8000b16:	e002      	b.n	8000b1e <HAL_GPIO_Init+0x206>
 8000b18:	2301      	movs	r3, #1
 8000b1a:	e000      	b.n	8000b1e <HAL_GPIO_Init+0x206>
 8000b1c:	2300      	movs	r3, #0
 8000b1e:	697a      	ldr	r2, [r7, #20]
 8000b20:	f002 0203 	and.w	r2, r2, #3
 8000b24:	0092      	lsls	r2, r2, #2
 8000b26:	4093      	lsls	r3, r2
 8000b28:	693a      	ldr	r2, [r7, #16]
 8000b2a:	4313      	orrs	r3, r2
 8000b2c:	613b      	str	r3, [r7, #16]
        SYSCFG->EXTICR[position >> 2u] = temp;
 8000b2e:	4937      	ldr	r1, [pc, #220]	; (8000c0c <HAL_GPIO_Init+0x2f4>)
 8000b30:	697b      	ldr	r3, [r7, #20]
 8000b32:	089b      	lsrs	r3, r3, #2
 8000b34:	3302      	adds	r3, #2
 8000b36:	693a      	ldr	r2, [r7, #16]
 8000b38:	f841 2023 	str.w	r2, [r1, r3, lsl #2]

        /* Clear Rising Falling edge configuration */
        temp = EXTI->RTSR;
 8000b3c:	4b3a      	ldr	r3, [pc, #232]	; (8000c28 <HAL_GPIO_Init+0x310>)
 8000b3e:	689b      	ldr	r3, [r3, #8]
 8000b40:	613b      	str	r3, [r7, #16]
        temp &= ~(iocurrent);
 8000b42:	68fb      	ldr	r3, [r7, #12]
 8000b44:	43db      	mvns	r3, r3
 8000b46:	693a      	ldr	r2, [r7, #16]
 8000b48:	4013      	ands	r3, r2
 8000b4a:	613b      	str	r3, [r7, #16]
        if((GPIO_Init->Mode & TRIGGER_RISING) != 0x00u)
 8000b4c:	683b      	ldr	r3, [r7, #0]
 8000b4e:	685b      	ldr	r3, [r3, #4]
 8000b50:	f403 1380 	and.w	r3, r3, #1048576	; 0x100000
 8000b54:	2b00      	cmp	r3, #0
 8000b56:	d003      	beq.n	8000b60 <HAL_GPIO_Init+0x248>
        {
          temp |= iocurrent;
 8000b58:	693a      	ldr	r2, [r7, #16]
 8000b5a:	68fb      	ldr	r3, [r7, #12]
 8000b5c:	4313      	orrs	r3, r2
 8000b5e:	613b      	str	r3, [r7, #16]
        }
        EXTI->RTSR = temp;
 8000b60:	4a31      	ldr	r2, [pc, #196]	; (8000c28 <HAL_GPIO_Init+0x310>)
 8000b62:	693b      	ldr	r3, [r7, #16]
 8000b64:	6093      	str	r3, [r2, #8]

        temp = EXTI->FTSR;
 8000b66:	4b30      	ldr	r3, [pc, #192]	; (8000c28 <HAL_GPIO_Init+0x310>)
 8000b68:	68db      	ldr	r3, [r3, #12]
 8000b6a:	613b      	str	r3, [r7, #16]
        temp &= ~(iocurrent);
 8000b6c:	68fb      	ldr	r3, [r7, #12]
 8000b6e:	43db      	mvns	r3, r3
 8000b70:	693a      	ldr	r2, [r7, #16]
 8000b72:	4013      	ands	r3, r2
 8000b74:	613b      	str	r3, [r7, #16]
        if((GPIO_Init->Mode & TRIGGER_FALLING) != 0x00u)
 8000b76:	683b      	ldr	r3, [r7, #0]
 8000b78:	685b      	ldr	r3, [r3, #4]
 8000b7a:	f403 1300 	and.w	r3, r3, #2097152	; 0x200000
 8000b7e:	2b00      	cmp	r3, #0
 8000b80:	d003      	beq.n	8000b8a <HAL_GPIO_Init+0x272>
        {
          temp |= iocurrent;
 8000b82:	693a      	ldr	r2, [r7, #16]
 8000b84:	68fb      	ldr	r3, [r7, #12]
 8000b86:	4313      	orrs	r3, r2
 8000b88:	613b      	str	r3, [r7, #16]
        }
        EXTI->FTSR = temp;
 8000b8a:	4a27      	ldr	r2, [pc, #156]	; (8000c28 <HAL_GPIO_Init+0x310>)
 8000b8c:	693b      	ldr	r3, [r7, #16]
 8000b8e:	60d3      	str	r3, [r2, #12]

        temp = EXTI->EMR;
 8000b90:	4b25      	ldr	r3, [pc, #148]	; (8000c28 <HAL_GPIO_Init+0x310>)
 8000b92:	685b      	ldr	r3, [r3, #4]
 8000b94:	613b      	str	r3, [r7, #16]
        temp &= ~(iocurrent);
 8000b96:	68fb      	ldr	r3, [r7, #12]
 8000b98:	43db      	mvns	r3, r3
 8000b9a:	693a      	ldr	r2, [r7, #16]
 8000b9c:	4013      	ands	r3, r2
 8000b9e:	613b      	str	r3, [r7, #16]
        if((GPIO_Init->Mode & EXTI_EVT) != 0x00u)
 8000ba0:	683b      	ldr	r3, [r7, #0]
 8000ba2:	685b      	ldr	r3, [r3, #4]
 8000ba4:	f403 3300 	and.w	r3, r3, #131072	; 0x20000
 8000ba8:	2b00      	cmp	r3, #0
 8000baa:	d003      	beq.n	8000bb4 <HAL_GPIO_Init+0x29c>
        {
          temp |= iocurrent;
 8000bac:	693a      	ldr	r2, [r7, #16]
 8000bae:	68fb      	ldr	r3, [r7, #12]
 8000bb0:	4313      	orrs	r3, r2
 8000bb2:	613b      	str	r3, [r7, #16]
        }
        EXTI->EMR = temp;
 8000bb4:	4a1c      	ldr	r2, [pc, #112]	; (8000c28 <HAL_GPIO_Init+0x310>)
 8000bb6:	693b      	ldr	r3, [r7, #16]
 8000bb8:	6053      	str	r3, [r2, #4]

        /* Clear EXTI line configuration */
        temp = EXTI->IMR;
 8000bba:	4b1b      	ldr	r3, [pc, #108]	; (8000c28 <HAL_GPIO_Init+0x310>)
 8000bbc:	681b      	ldr	r3, [r3, #0]
 8000bbe:	613b      	str	r3, [r7, #16]
        temp &= ~(iocurrent);
 8000bc0:	68fb      	ldr	r3, [r7, #12]
 8000bc2:	43db      	mvns	r3, r3
 8000bc4:	693a      	ldr	r2, [r7, #16]
 8000bc6:	4013      	ands	r3, r2
 8000bc8:	613b      	str	r3, [r7, #16]
        if((GPIO_Init->Mode & EXTI_IT) != 0x00u)
 8000bca:	683b      	ldr	r3, [r7, #0]
 8000bcc:	685b      	ldr	r3, [r3, #4]
 8000bce:	f403 3380 	and.w	r3, r3, #65536	; 0x10000
 8000bd2:	2b00      	cmp	r3, #0
 8000bd4:	d003      	beq.n	8000bde <HAL_GPIO_Init+0x2c6>
        {
          temp |= iocurrent;
 8000bd6:	693a      	ldr	r2, [r7, #16]
 8000bd8:	68fb      	ldr	r3, [r7, #12]
 8000bda:	4313      	orrs	r3, r2
 8000bdc:	613b      	str	r3, [r7, #16]
        }
        EXTI->IMR = temp;
 8000bde:	4a12      	ldr	r2, [pc, #72]	; (8000c28 <HAL_GPIO_Init+0x310>)
 8000be0:	693b      	ldr	r3, [r7, #16]
 8000be2:	6013      	str	r3, [r2, #0]
      }
    }

    position++;
 8000be4:	697b      	ldr	r3, [r7, #20]
 8000be6:	3301      	adds	r3, #1
 8000be8:	617b      	str	r3, [r7, #20]
  while (((GPIO_Init->Pin) >> position) != 0x00u)
 8000bea:	683b      	ldr	r3, [r7, #0]
 8000bec:	681a      	ldr	r2, [r3, #0]
 8000bee:	697b      	ldr	r3, [r7, #20]
 8000bf0:	fa22 f303 	lsr.w	r3, r2, r3
 8000bf4:	2b00      	cmp	r3, #0
 8000bf6:	f47f ae97 	bne.w	8000928 <HAL_GPIO_Init+0x10>
  }
}
 8000bfa:	bf00      	nop
 8000bfc:	bf00      	nop
 8000bfe:	371c      	adds	r7, #28
 8000c00:	46bd      	mov	sp, r7
 8000c02:	f85d 7b04 	ldr.w	r7, [sp], #4
 8000c06:	4770      	bx	lr
 8000c08:	40021000 	.word	0x40021000
 8000c0c:	40010000 	.word	0x40010000
 8000c10:	48000400 	.word	0x48000400
 8000c14:	48000800 	.word	0x48000800
 8000c18:	48000c00 	.word	0x48000c00
 8000c1c:	48001000 	.word	0x48001000
 8000c20:	48001400 	.word	0x48001400
 8000c24:	48001800 	.word	0x48001800
 8000c28:	40010400 	.word	0x40010400

08000c2c <HAL_RCC_OscConfig>:
  *         supported by this macro. User should request a transition to HSE Off
  *         first and then HSE On or HSE Bypass.
  * @retval HAL status
  */
HAL_StatusTypeDef HAL_RCC_OscConfig(RCC_OscInitTypeDef  *RCC_OscInitStruct)
{
 8000c2c:	b580      	push	{r7, lr}
 8000c2e:	f5ad 7d02 	sub.w	sp, sp, #520	; 0x208
 8000c32:	af00      	add	r7, sp, #0
 8000c34:	f507 7302 	add.w	r3, r7, #520	; 0x208
 8000c38:	f5a3 7301 	sub.w	r3, r3, #516	; 0x204
 8000c3c:	6018      	str	r0, [r3, #0]
#if defined(RCC_CFGR_PLLSRC_HSI_PREDIV)
  uint32_t pll_config2;
#endif /* RCC_CFGR_PLLSRC_HSI_PREDIV */

  /* Check Null pointer */
  if(RCC_OscInitStruct == NULL)
 8000c3e:	f507 7302 	add.w	r3, r7, #520	; 0x208
 8000c42:	f5a3 7301 	sub.w	r3, r3, #516	; 0x204
 8000c46:	681b      	ldr	r3, [r3, #0]
 8000c48:	2b00      	cmp	r3, #0
 8000c4a:	d102      	bne.n	8000c52 <HAL_RCC_OscConfig+0x26>
  {
    return HAL_ERROR;
 8000c4c:	2301      	movs	r3, #1
 8000c4e:	f001 b83a 	b.w	8001cc6 <HAL_RCC_OscConfig+0x109a>

  /* Check the parameters */
  assert_param(IS_RCC_OSCILLATORTYPE(RCC_OscInitStruct->OscillatorType));

  /*------------------------------- HSE Configuration ------------------------*/ 
  if(((RCC_OscInitStruct->OscillatorType) & RCC_OSCILLATORTYPE_HSE) == RCC_OSCILLATORTYPE_HSE)
 8000c52:	f507 7302 	add.w	r3, r7, #520	; 0x208
 8000c56:	f5a3 7301 	sub.w	r3, r3, #516	; 0x204
 8000c5a:	681b      	ldr	r3, [r3, #0]
 8000c5c:	681b      	ldr	r3, [r3, #0]
 8000c5e:	f003 0301 	and.w	r3, r3, #1
 8000c62:	2b00      	cmp	r3, #0
 8000c64:	f000 816f 	beq.w	8000f46 <HAL_RCC_OscConfig+0x31a>
  {
    /* Check the parameters */
    assert_param(IS_RCC_HSE(RCC_OscInitStruct->HSEState));

    /* When the HSE is used as system clock or clock source for PLL in these cases it is not allowed to be disabled */
    if((__HAL_RCC_GET_SYSCLK_SOURCE() == RCC_SYSCLKSOURCE_STATUS_HSE) 
 8000c68:	4bb5      	ldr	r3, [pc, #724]	; (8000f40 <HAL_RCC_OscConfig+0x314>)
 8000c6a:	685b      	ldr	r3, [r3, #4]
 8000c6c:	f003 030c 	and.w	r3, r3, #12
 8000c70:	2b04      	cmp	r3, #4
 8000c72:	d00c      	beq.n	8000c8e <HAL_RCC_OscConfig+0x62>
       || ((__HAL_RCC_GET_SYSCLK_SOURCE() == RCC_SYSCLKSOURCE_STATUS_PLLCLK) && (__HAL_RCC_GET_PLL_OSCSOURCE() == RCC_PLLSOURCE_HSE)))
 8000c74:	4bb2      	ldr	r3, [pc, #712]	; (8000f40 <HAL_RCC_OscConfig+0x314>)
 8000c76:	685b      	ldr	r3, [r3, #4]
 8000c78:	f003 030c 	and.w	r3, r3, #12
 8000c7c:	2b08      	cmp	r3, #8
 8000c7e:	d15c      	bne.n	8000d3a <HAL_RCC_OscConfig+0x10e>
 8000c80:	4baf      	ldr	r3, [pc, #700]	; (8000f40 <HAL_RCC_OscConfig+0x314>)
 8000c82:	685b      	ldr	r3, [r3, #4]
 8000c84:	f403 33c0 	and.w	r3, r3, #98304	; 0x18000
 8000c88:	f5b3 3f80 	cmp.w	r3, #65536	; 0x10000
 8000c8c:	d155      	bne.n	8000d3a <HAL_RCC_OscConfig+0x10e>
 8000c8e:	f44f 3300 	mov.w	r3, #131072	; 0x20000
 8000c92:	f8c7 31f4 	str.w	r3, [r7, #500]	; 0x1f4
  uint32_t result;

#if ((defined (__ARM_ARCH_7M__      ) && (__ARM_ARCH_7M__      == 1)) || \
     (defined (__ARM_ARCH_7EM__     ) && (__ARM_ARCH_7EM__     == 1)) || \
     (defined (__ARM_ARCH_8M_MAIN__ ) && (__ARM_ARCH_8M_MAIN__ == 1))    )
   __ASM volatile ("rbit %0, %1" : "=r" (result) : "r" (value) );
 8000c96:	f8d7 31f4 	ldr.w	r3, [r7, #500]	; 0x1f4
 8000c9a:	fa93 f3a3 	rbit	r3, r3
 8000c9e:	f8c7 31f0 	str.w	r3, [r7, #496]	; 0x1f0
    result |= value & 1U;
    s--;
  }
  result <<= s;                        /* shift when v's highest bits are zero */
#endif
  return result;
 8000ca2:	f8d7 31f0 	ldr.w	r3, [r7, #496]	; 0x1f0
    {
      if((__HAL_RCC_GET_FLAG(RCC_FLAG_HSERDY) != RESET) && (RCC_OscInitStruct->HSEState == RCC_HSE_OFF))
 8000ca6:	fab3 f383 	clz	r3, r3
 8000caa:	b2db      	uxtb	r3, r3
 8000cac:	095b      	lsrs	r3, r3, #5
 8000cae:	b2db      	uxtb	r3, r3
 8000cb0:	f043 0301 	orr.w	r3, r3, #1
 8000cb4:	b2db      	uxtb	r3, r3
 8000cb6:	2b01      	cmp	r3, #1
 8000cb8:	d102      	bne.n	8000cc0 <HAL_RCC_OscConfig+0x94>
 8000cba:	4ba1      	ldr	r3, [pc, #644]	; (8000f40 <HAL_RCC_OscConfig+0x314>)
 8000cbc:	681b      	ldr	r3, [r3, #0]
 8000cbe:	e015      	b.n	8000cec <HAL_RCC_OscConfig+0xc0>
 8000cc0:	f44f 3300 	mov.w	r3, #131072	; 0x20000
 8000cc4:	f8c7 31ec 	str.w	r3, [r7, #492]	; 0x1ec
   __ASM volatile ("rbit %0, %1" : "=r" (result) : "r" (value) );
 8000cc8:	f8d7 31ec 	ldr.w	r3, [r7, #492]	; 0x1ec
 8000ccc:	fa93 f3a3 	rbit	r3, r3
 8000cd0:	f8c7 31e8 	str.w	r3, [r7, #488]	; 0x1e8
 8000cd4:	f44f 3300 	mov.w	r3, #131072	; 0x20000
 8000cd8:	f8c7 31e4 	str.w	r3, [r7, #484]	; 0x1e4
 8000cdc:	f8d7 31e4 	ldr.w	r3, [r7, #484]	; 0x1e4
 8000ce0:	fa93 f3a3 	rbit	r3, r3
 8000ce4:	f8c7 31e0 	str.w	r3, [r7, #480]	; 0x1e0
 8000ce8:	4b95      	ldr	r3, [pc, #596]	; (8000f40 <HAL_RCC_OscConfig+0x314>)
 8000cea:	6a5b      	ldr	r3, [r3, #36]	; 0x24
 8000cec:	f44f 3200 	mov.w	r2, #131072	; 0x20000
 8000cf0:	f8c7 21dc 	str.w	r2, [r7, #476]	; 0x1dc
 8000cf4:	f8d7 21dc 	ldr.w	r2, [r7, #476]	; 0x1dc
 8000cf8:	fa92 f2a2 	rbit	r2, r2
 8000cfc:	f8c7 21d8 	str.w	r2, [r7, #472]	; 0x1d8
  return result;
 8000d00:	f8d7 21d8 	ldr.w	r2, [r7, #472]	; 0x1d8
 8000d04:	fab2 f282 	clz	r2, r2
 8000d08:	b2d2      	uxtb	r2, r2
 8000d0a:	f042 0220 	orr.w	r2, r2, #32
 8000d0e:	b2d2      	uxtb	r2, r2
 8000d10:	f002 021f 	and.w	r2, r2, #31
 8000d14:	2101      	movs	r1, #1
 8000d16:	fa01 f202 	lsl.w	r2, r1, r2
 8000d1a:	4013      	ands	r3, r2
 8000d1c:	2b00      	cmp	r3, #0
 8000d1e:	f000 8111 	beq.w	8000f44 <HAL_RCC_OscConfig+0x318>
 8000d22:	f507 7302 	add.w	r3, r7, #520	; 0x208
 8000d26:	f5a3 7301 	sub.w	r3, r3, #516	; 0x204
 8000d2a:	681b      	ldr	r3, [r3, #0]
 8000d2c:	685b      	ldr	r3, [r3, #4]
 8000d2e:	2b00      	cmp	r3, #0
 8000d30:	f040 8108 	bne.w	8000f44 <HAL_RCC_OscConfig+0x318>
      {
        return HAL_ERROR;
 8000d34:	2301      	movs	r3, #1
 8000d36:	f000 bfc6 	b.w	8001cc6 <HAL_RCC_OscConfig+0x109a>
      }
    }
    else
    {
      /* Set the new HSE configuration ---------------------------------------*/
      __HAL_RCC_HSE_CONFIG(RCC_OscInitStruct->HSEState);
 8000d3a:	f507 7302 	add.w	r3, r7, #520	; 0x208
 8000d3e:	f5a3 7301 	sub.w	r3, r3, #516	; 0x204
 8000d42:	681b      	ldr	r3, [r3, #0]
 8000d44:	685b      	ldr	r3, [r3, #4]
 8000d46:	f5b3 3f80 	cmp.w	r3, #65536	; 0x10000
 8000d4a:	d106      	bne.n	8000d5a <HAL_RCC_OscConfig+0x12e>
 8000d4c:	4b7c      	ldr	r3, [pc, #496]	; (8000f40 <HAL_RCC_OscConfig+0x314>)
 8000d4e:	681b      	ldr	r3, [r3, #0]
 8000d50:	4a7b      	ldr	r2, [pc, #492]	; (8000f40 <HAL_RCC_OscConfig+0x314>)
 8000d52:	f443 3380 	orr.w	r3, r3, #65536	; 0x10000
 8000d56:	6013      	str	r3, [r2, #0]
 8000d58:	e036      	b.n	8000dc8 <HAL_RCC_OscConfig+0x19c>
 8000d5a:	f507 7302 	add.w	r3, r7, #520	; 0x208
 8000d5e:	f5a3 7301 	sub.w	r3, r3, #516	; 0x204
 8000d62:	681b      	ldr	r3, [r3, #0]
 8000d64:	685b      	ldr	r3, [r3, #4]
 8000d66:	2b00      	cmp	r3, #0
 8000d68:	d10c      	bne.n	8000d84 <HAL_RCC_OscConfig+0x158>
 8000d6a:	4b75      	ldr	r3, [pc, #468]	; (8000f40 <HAL_RCC_OscConfig+0x314>)
 8000d6c:	681b      	ldr	r3, [r3, #0]
 8000d6e:	4a74      	ldr	r2, [pc, #464]	; (8000f40 <HAL_RCC_OscConfig+0x314>)
 8000d70:	f423 3380 	bic.w	r3, r3, #65536	; 0x10000
 8000d74:	6013      	str	r3, [r2, #0]
 8000d76:	4b72      	ldr	r3, [pc, #456]	; (8000f40 <HAL_RCC_OscConfig+0x314>)
 8000d78:	681b      	ldr	r3, [r3, #0]
 8000d7a:	4a71      	ldr	r2, [pc, #452]	; (8000f40 <HAL_RCC_OscConfig+0x314>)
 8000d7c:	f423 2380 	bic.w	r3, r3, #262144	; 0x40000
 8000d80:	6013      	str	r3, [r2, #0]
 8000d82:	e021      	b.n	8000dc8 <HAL_RCC_OscConfig+0x19c>
 8000d84:	f507 7302 	add.w	r3, r7, #520	; 0x208
 8000d88:	f5a3 7301 	sub.w	r3, r3, #516	; 0x204
 8000d8c:	681b      	ldr	r3, [r3, #0]
 8000d8e:	685b      	ldr	r3, [r3, #4]
 8000d90:	f5b3 2fa0 	cmp.w	r3, #327680	; 0x50000
 8000d94:	d10c      	bne.n	8000db0 <HAL_RCC_OscConfig+0x184>
 8000d96:	4b6a      	ldr	r3, [pc, #424]	; (8000f40 <HAL_RCC_OscConfig+0x314>)
 8000d98:	681b      	ldr	r3, [r3, #0]
 8000d9a:	4a69      	ldr	r2, [pc, #420]	; (8000f40 <HAL_RCC_OscConfig+0x314>)
 8000d9c:	f443 2380 	orr.w	r3, r3, #262144	; 0x40000
 8000da0:	6013      	str	r3, [r2, #0]
 8000da2:	4b67      	ldr	r3, [pc, #412]	; (8000f40 <HAL_RCC_OscConfig+0x314>)
 8000da4:	681b      	ldr	r3, [r3, #0]
 8000da6:	4a66      	ldr	r2, [pc, #408]	; (8000f40 <HAL_RCC_OscConfig+0x314>)
 8000da8:	f443 3380 	orr.w	r3, r3, #65536	; 0x10000
 8000dac:	6013      	str	r3, [r2, #0]
 8000dae:	e00b      	b.n	8000dc8 <HAL_RCC_OscConfig+0x19c>
 8000db0:	4b63      	ldr	r3, [pc, #396]	; (8000f40 <HAL_RCC_OscConfig+0x314>)
 8000db2:	681b      	ldr	r3, [r3, #0]
 8000db4:	4a62      	ldr	r2, [pc, #392]	; (8000f40 <HAL_RCC_OscConfig+0x314>)
 8000db6:	f423 3380 	bic.w	r3, r3, #65536	; 0x10000
 8000dba:	6013      	str	r3, [r2, #0]
 8000dbc:	4b60      	ldr	r3, [pc, #384]	; (8000f40 <HAL_RCC_OscConfig+0x314>)
 8000dbe:	681b      	ldr	r3, [r3, #0]
 8000dc0:	4a5f      	ldr	r2, [pc, #380]	; (8000f40 <HAL_RCC_OscConfig+0x314>)
 8000dc2:	f423 2380 	bic.w	r3, r3, #262144	; 0x40000
 8000dc6:	6013      	str	r3, [r2, #0]
      /* Configure the HSE predivision factor --------------------------------*/
      __HAL_RCC_HSE_PREDIV_CONFIG(RCC_OscInitStruct->HSEPredivValue);
#endif /* RCC_CFGR_PLLSRC_HSI_DIV2 */

       /* Check the HSE State */
      if(RCC_OscInitStruct->HSEState != RCC_HSE_OFF)
 8000dc8:	f507 7302 	add.w	r3, r7, #520	; 0x208
 8000dcc:	f5a3 7301 	sub.w	r3, r3, #516	; 0x204
 8000dd0:	681b      	ldr	r3, [r3, #0]
 8000dd2:	685b      	ldr	r3, [r3, #4]
 8000dd4:	2b00      	cmp	r3, #0
 8000dd6:	d059      	beq.n	8000e8c <HAL_RCC_OscConfig+0x260>
      {
        /* Get Start Tick */
        tickstart = HAL_GetTick();
 8000dd8:	f7ff fcac 	bl	8000734 <HAL_GetTick>
 8000ddc:	f8c7 0200 	str.w	r0, [r7, #512]	; 0x200
        
        /* Wait till HSE is ready */
        while(__HAL_RCC_GET_FLAG(RCC_FLAG_HSERDY) == RESET)
 8000de0:	e00a      	b.n	8000df8 <HAL_RCC_OscConfig+0x1cc>
        {
          if((HAL_GetTick() - tickstart ) > HSE_TIMEOUT_VALUE)
 8000de2:	f7ff fca7 	bl	8000734 <HAL_GetTick>
 8000de6:	4602      	mov	r2, r0
 8000de8:	f8d7 3200 	ldr.w	r3, [r7, #512]	; 0x200
 8000dec:	1ad3      	subs	r3, r2, r3
 8000dee:	2b64      	cmp	r3, #100	; 0x64
 8000df0:	d902      	bls.n	8000df8 <HAL_RCC_OscConfig+0x1cc>
          {
            return HAL_TIMEOUT;
 8000df2:	2303      	movs	r3, #3
 8000df4:	f000 bf67 	b.w	8001cc6 <HAL_RCC_OscConfig+0x109a>
 8000df8:	f44f 3300 	mov.w	r3, #131072	; 0x20000
 8000dfc:	f8c7 31d4 	str.w	r3, [r7, #468]	; 0x1d4
   __ASM volatile ("rbit %0, %1" : "=r" (result) : "r" (value) );
 8000e00:	f8d7 31d4 	ldr.w	r3, [r7, #468]	; 0x1d4
 8000e04:	fa93 f3a3 	rbit	r3, r3
 8000e08:	f8c7 31d0 	str.w	r3, [r7, #464]	; 0x1d0
  return result;
 8000e0c:	f8d7 31d0 	ldr.w	r3, [r7, #464]	; 0x1d0
        while(__HAL_RCC_GET_FLAG(RCC_FLAG_HSERDY) == RESET)
 8000e10:	fab3 f383 	clz	r3, r3
 8000e14:	b2db      	uxtb	r3, r3
 8000e16:	095b      	lsrs	r3, r3, #5
 8000e18:	b2db      	uxtb	r3, r3
 8000e1a:	f043 0301 	orr.w	r3, r3, #1
 8000e1e:	b2db      	uxtb	r3, r3
 8000e20:	2b01      	cmp	r3, #1
 8000e22:	d102      	bne.n	8000e2a <HAL_RCC_OscConfig+0x1fe>
 8000e24:	4b46      	ldr	r3, [pc, #280]	; (8000f40 <HAL_RCC_OscConfig+0x314>)
 8000e26:	681b      	ldr	r3, [r3, #0]
 8000e28:	e015      	b.n	8000e56 <HAL_RCC_OscConfig+0x22a>
 8000e2a:	f44f 3300 	mov.w	r3, #131072	; 0x20000
 8000e2e:	f8c7 31cc 	str.w	r3, [r7, #460]	; 0x1cc
   __ASM volatile ("rbit %0, %1" : "=r" (result) : "r" (value) );
 8000e32:	f8d7 31cc 	ldr.w	r3, [r7, #460]	; 0x1cc
 8000e36:	fa93 f3a3 	rbit	r3, r3
 8000e3a:	f8c7 31c8 	str.w	r3, [r7, #456]	; 0x1c8
 8000e3e:	f44f 3300 	mov.w	r3, #131072	; 0x20000
 8000e42:	f8c7 31c4 	str.w	r3, [r7, #452]	; 0x1c4
 8000e46:	f8d7 31c4 	ldr.w	r3, [r7, #452]	; 0x1c4
 8000e4a:	fa93 f3a3 	rbit	r3, r3
 8000e4e:	f8c7 31c0 	str.w	r3, [r7, #448]	; 0x1c0
 8000e52:	4b3b      	ldr	r3, [pc, #236]	; (8000f40 <HAL_RCC_OscConfig+0x314>)
 8000e54:	6a5b      	ldr	r3, [r3, #36]	; 0x24
 8000e56:	f44f 3200 	mov.w	r2, #131072	; 0x20000
 8000e5a:	f8c7 21bc 	str.w	r2, [r7, #444]	; 0x1bc
 8000e5e:	f8d7 21bc 	ldr.w	r2, [r7, #444]	; 0x1bc
 8000e62:	fa92 f2a2 	rbit	r2, r2
 8000e66:	f8c7 21b8 	str.w	r2, [r7, #440]	; 0x1b8
  return result;
 8000e6a:	f8d7 21b8 	ldr.w	r2, [r7, #440]	; 0x1b8
 8000e6e:	fab2 f282 	clz	r2, r2
 8000e72:	b2d2      	uxtb	r2, r2
 8000e74:	f042 0220 	orr.w	r2, r2, #32
 8000e78:	b2d2      	uxtb	r2, r2
 8000e7a:	f002 021f 	and.w	r2, r2, #31
 8000e7e:	2101      	movs	r1, #1
 8000e80:	fa01 f202 	lsl.w	r2, r1, r2
 8000e84:	4013      	ands	r3, r2
 8000e86:	2b00      	cmp	r3, #0
 8000e88:	d0ab      	beq.n	8000de2 <HAL_RCC_OscConfig+0x1b6>
 8000e8a:	e05c      	b.n	8000f46 <HAL_RCC_OscConfig+0x31a>
        }
      }
      else
      {
        /* Get Start Tick */
        tickstart = HAL_GetTick();
 8000e8c:	f7ff fc52 	bl	8000734 <HAL_GetTick>
 8000e90:	f8c7 0200 	str.w	r0, [r7, #512]	; 0x200
        
        /* Wait till HSE is disabled */
        while(__HAL_RCC_GET_FLAG(RCC_FLAG_HSERDY) != RESET)
 8000e94:	e00a      	b.n	8000eac <HAL_RCC_OscConfig+0x280>
        {
           if((HAL_GetTick() - tickstart ) > HSE_TIMEOUT_VALUE)
 8000e96:	f7ff fc4d 	bl	8000734 <HAL_GetTick>
 8000e9a:	4602      	mov	r2, r0
 8000e9c:	f8d7 3200 	ldr.w	r3, [r7, #512]	; 0x200
 8000ea0:	1ad3      	subs	r3, r2, r3
 8000ea2:	2b64      	cmp	r3, #100	; 0x64
 8000ea4:	d902      	bls.n	8000eac <HAL_RCC_OscConfig+0x280>
          {
            return HAL_TIMEOUT;
 8000ea6:	2303      	movs	r3, #3
 8000ea8:	f000 bf0d 	b.w	8001cc6 <HAL_RCC_OscConfig+0x109a>
 8000eac:	f44f 3300 	mov.w	r3, #131072	; 0x20000
 8000eb0:	f8c7 31b4 	str.w	r3, [r7, #436]	; 0x1b4
   __ASM volatile ("rbit %0, %1" : "=r" (result) : "r" (value) );
 8000eb4:	f8d7 31b4 	ldr.w	r3, [r7, #436]	; 0x1b4
 8000eb8:	fa93 f3a3 	rbit	r3, r3
 8000ebc:	f8c7 31b0 	str.w	r3, [r7, #432]	; 0x1b0
  return result;
 8000ec0:	f8d7 31b0 	ldr.w	r3, [r7, #432]	; 0x1b0
        while(__HAL_RCC_GET_FLAG(RCC_FLAG_HSERDY) != RESET)
 8000ec4:	fab3 f383 	clz	r3, r3
 8000ec8:	b2db      	uxtb	r3, r3
 8000eca:	095b      	lsrs	r3, r3, #5
 8000ecc:	b2db      	uxtb	r3, r3
 8000ece:	f043 0301 	orr.w	r3, r3, #1
 8000ed2:	b2db      	uxtb	r3, r3
 8000ed4:	2b01      	cmp	r3, #1
 8000ed6:	d102      	bne.n	8000ede <HAL_RCC_OscConfig+0x2b2>
 8000ed8:	4b19      	ldr	r3, [pc, #100]	; (8000f40 <HAL_RCC_OscConfig+0x314>)
 8000eda:	681b      	ldr	r3, [r3, #0]
 8000edc:	e015      	b.n	8000f0a <HAL_RCC_OscConfig+0x2de>
 8000ede:	f44f 3300 	mov.w	r3, #131072	; 0x20000
 8000ee2:	f8c7 31ac 	str.w	r3, [r7, #428]	; 0x1ac
   __ASM volatile ("rbit %0, %1" : "=r" (result) : "r" (value) );
 8000ee6:	f8d7 31ac 	ldr.w	r3, [r7, #428]	; 0x1ac
 8000eea:	fa93 f3a3 	rbit	r3, r3
 8000eee:	f8c7 31a8 	str.w	r3, [r7, #424]	; 0x1a8
 8000ef2:	f44f 3300 	mov.w	r3, #131072	; 0x20000
 8000ef6:	f8c7 31a4 	str.w	r3, [r7, #420]	; 0x1a4
 8000efa:	f8d7 31a4 	ldr.w	r3, [r7, #420]	; 0x1a4
 8000efe:	fa93 f3a3 	rbit	r3, r3
 8000f02:	f8c7 31a0 	str.w	r3, [r7, #416]	; 0x1a0
 8000f06:	4b0e      	ldr	r3, [pc, #56]	; (8000f40 <HAL_RCC_OscConfig+0x314>)
 8000f08:	6a5b      	ldr	r3, [r3, #36]	; 0x24
 8000f0a:	f44f 3200 	mov.w	r2, #131072	; 0x20000
 8000f0e:	f8c7 219c 	str.w	r2, [r7, #412]	; 0x19c
 8000f12:	f8d7 219c 	ldr.w	r2, [r7, #412]	; 0x19c
 8000f16:	fa92 f2a2 	rbit	r2, r2
 8000f1a:	f8c7 2198 	str.w	r2, [r7, #408]	; 0x198
  return result;
 8000f1e:	f8d7 2198 	ldr.w	r2, [r7, #408]	; 0x198
 8000f22:	fab2 f282 	clz	r2, r2
 8000f26:	b2d2      	uxtb	r2, r2
 8000f28:	f042 0220 	orr.w	r2, r2, #32
 8000f2c:	b2d2      	uxtb	r2, r2
 8000f2e:	f002 021f 	and.w	r2, r2, #31
 8000f32:	2101      	movs	r1, #1
 8000f34:	fa01 f202 	lsl.w	r2, r1, r2
 8000f38:	4013      	ands	r3, r2
 8000f3a:	2b00      	cmp	r3, #0
 8000f3c:	d1ab      	bne.n	8000e96 <HAL_RCC_OscConfig+0x26a>
 8000f3e:	e002      	b.n	8000f46 <HAL_RCC_OscConfig+0x31a>
 8000f40:	40021000 	.word	0x40021000
      if((__HAL_RCC_GET_FLAG(RCC_FLAG_HSERDY) != RESET) && (RCC_OscInitStruct->HSEState == RCC_HSE_OFF))
 8000f44:	bf00      	nop
        }
      }
    }
  }
  /*----------------------------- HSI Configuration --------------------------*/ 
  if(((RCC_OscInitStruct->OscillatorType) & RCC_OSCILLATORTYPE_HSI) == RCC_OSCILLATORTYPE_HSI)
 8000f46:	f507 7302 	add.w	r3, r7, #520	; 0x208
 8000f4a:	f5a3 7301 	sub.w	r3, r3, #516	; 0x204
 8000f4e:	681b      	ldr	r3, [r3, #0]
 8000f50:	681b      	ldr	r3, [r3, #0]
 8000f52:	f003 0302 	and.w	r3, r3, #2
 8000f56:	2b00      	cmp	r3, #0
 8000f58:	f000 817f 	beq.w	800125a <HAL_RCC_OscConfig+0x62e>
    /* Check the parameters */
    assert_param(IS_RCC_HSI(RCC_OscInitStruct->HSIState));
    assert_param(IS_RCC_CALIBRATION_VALUE(RCC_OscInitStruct->HSICalibrationValue));
    
    /* Check if HSI is used as system clock or as PLL source when PLL is selected as system clock */ 
    if((__HAL_RCC_GET_SYSCLK_SOURCE() == RCC_SYSCLKSOURCE_STATUS_HSI) 
 8000f5c:	4ba7      	ldr	r3, [pc, #668]	; (80011fc <HAL_RCC_OscConfig+0x5d0>)
 8000f5e:	685b      	ldr	r3, [r3, #4]
 8000f60:	f003 030c 	and.w	r3, r3, #12
 8000f64:	2b00      	cmp	r3, #0
 8000f66:	d00c      	beq.n	8000f82 <HAL_RCC_OscConfig+0x356>
       || ((__HAL_RCC_GET_SYSCLK_SOURCE() == RCC_SYSCLKSOURCE_STATUS_PLLCLK) && (__HAL_RCC_GET_PLL_OSCSOURCE() == RCC_PLLSOURCE_HSI)))
 8000f68:	4ba4      	ldr	r3, [pc, #656]	; (80011fc <HAL_RCC_OscConfig+0x5d0>)
 8000f6a:	685b      	ldr	r3, [r3, #4]
 8000f6c:	f003 030c 	and.w	r3, r3, #12
 8000f70:	2b08      	cmp	r3, #8
 8000f72:	d173      	bne.n	800105c <HAL_RCC_OscConfig+0x430>
 8000f74:	4ba1      	ldr	r3, [pc, #644]	; (80011fc <HAL_RCC_OscConfig+0x5d0>)
 8000f76:	685b      	ldr	r3, [r3, #4]
 8000f78:	f403 33c0 	and.w	r3, r3, #98304	; 0x18000
 8000f7c:	f5b3 4f00 	cmp.w	r3, #32768	; 0x8000
 8000f80:	d16c      	bne.n	800105c <HAL_RCC_OscConfig+0x430>
 8000f82:	2302      	movs	r3, #2
 8000f84:	f8c7 3194 	str.w	r3, [r7, #404]	; 0x194
   __ASM volatile ("rbit %0, %1" : "=r" (result) : "r" (value) );
 8000f88:	f8d7 3194 	ldr.w	r3, [r7, #404]	; 0x194
 8000f8c:	fa93 f3a3 	rbit	r3, r3
 8000f90:	f8c7 3190 	str.w	r3, [r7, #400]	; 0x190
  return result;
 8000f94:	f8d7 3190 	ldr.w	r3, [r7, #400]	; 0x190
    {
      /* When HSI is used as system clock it will not disabled */
      if((__HAL_RCC_GET_FLAG(RCC_FLAG_HSIRDY) != RESET) && (RCC_OscInitStruct->HSIState != RCC_HSI_ON))
 8000f98:	fab3 f383 	clz	r3, r3
 8000f9c:	b2db      	uxtb	r3, r3
 8000f9e:	095b      	lsrs	r3, r3, #5
 8000fa0:	b2db      	uxtb	r3, r3
 8000fa2:	f043 0301 	orr.w	r3, r3, #1
 8000fa6:	b2db      	uxtb	r3, r3
 8000fa8:	2b01      	cmp	r3, #1
 8000faa:	d102      	bne.n	8000fb2 <HAL_RCC_OscConfig+0x386>
 8000fac:	4b93      	ldr	r3, [pc, #588]	; (80011fc <HAL_RCC_OscConfig+0x5d0>)
 8000fae:	681b      	ldr	r3, [r3, #0]
 8000fb0:	e013      	b.n	8000fda <HAL_RCC_OscConfig+0x3ae>
 8000fb2:	2302      	movs	r3, #2
 8000fb4:	f8c7 318c 	str.w	r3, [r7, #396]	; 0x18c
   __ASM volatile ("rbit %0, %1" : "=r" (result) : "r" (value) );
 8000fb8:	f8d7 318c 	ldr.w	r3, [r7, #396]	; 0x18c
 8000fbc:	fa93 f3a3 	rbit	r3, r3
 8000fc0:	f8c7 3188 	str.w	r3, [r7, #392]	; 0x188
 8000fc4:	2302      	movs	r3, #2
 8000fc6:	f8c7 3184 	str.w	r3, [r7, #388]	; 0x184
 8000fca:	f8d7 3184 	ldr.w	r3, [r7, #388]	; 0x184
 8000fce:	fa93 f3a3 	rbit	r3, r3
 8000fd2:	f8c7 3180 	str.w	r3, [r7, #384]	; 0x180
 8000fd6:	4b89      	ldr	r3, [pc, #548]	; (80011fc <HAL_RCC_OscConfig+0x5d0>)
 8000fd8:	6a5b      	ldr	r3, [r3, #36]	; 0x24
 8000fda:	2202      	movs	r2, #2
 8000fdc:	f8c7 217c 	str.w	r2, [r7, #380]	; 0x17c
 8000fe0:	f8d7 217c 	ldr.w	r2, [r7, #380]	; 0x17c
 8000fe4:	fa92 f2a2 	rbit	r2, r2
 8000fe8:	f8c7 2178 	str.w	r2, [r7, #376]	; 0x178
  return result;
 8000fec:	f8d7 2178 	ldr.w	r2, [r7, #376]	; 0x178
 8000ff0:	fab2 f282 	clz	r2, r2
 8000ff4:	b2d2      	uxtb	r2, r2
 8000ff6:	f042 0220 	orr.w	r2, r2, #32
 8000ffa:	b2d2      	uxtb	r2, r2
 8000ffc:	f002 021f 	and.w	r2, r2, #31
 8001000:	2101      	movs	r1, #1
 8001002:	fa01 f202 	lsl.w	r2, r1, r2
 8001006:	4013      	ands	r3, r2
 8001008:	2b00      	cmp	r3, #0
 800100a:	d00a      	beq.n	8001022 <HAL_RCC_OscConfig+0x3f6>
 800100c:	f507 7302 	add.w	r3, r7, #520	; 0x208
 8001010:	f5a3 7301 	sub.w	r3, r3, #516	; 0x204
 8001014:	681b      	ldr	r3, [r3, #0]
 8001016:	68db      	ldr	r3, [r3, #12]
 8001018:	2b01      	cmp	r3, #1
 800101a:	d002      	beq.n	8001022 <HAL_RCC_OscConfig+0x3f6>
      {
        return HAL_ERROR;
 800101c:	2301      	movs	r3, #1
 800101e:	f000 be52 	b.w	8001cc6 <HAL_RCC_OscConfig+0x109a>
      }
      /* Otherwise, just the calibration is allowed */
      else
      {
        /* Adjusts the Internal High Speed oscillator (HSI) calibration value.*/
        __HAL_RCC_HSI_CALIBRATIONVALUE_ADJUST(RCC_OscInitStruct->HSICalibrationValue);
 8001022:	4b76      	ldr	r3, [pc, #472]	; (80011fc <HAL_RCC_OscConfig+0x5d0>)
 8001024:	681b      	ldr	r3, [r3, #0]
 8001026:	f023 02f8 	bic.w	r2, r3, #248	; 0xf8
 800102a:	f507 7302 	add.w	r3, r7, #520	; 0x208
 800102e:	f5a3 7301 	sub.w	r3, r3, #516	; 0x204
 8001032:	681b      	ldr	r3, [r3, #0]
 8001034:	691b      	ldr	r3, [r3, #16]
 8001036:	21f8      	movs	r1, #248	; 0xf8
 8001038:	f8c7 1174 	str.w	r1, [r7, #372]	; 0x174
   __ASM volatile ("rbit %0, %1" : "=r" (result) : "r" (value) );
 800103c:	f8d7 1174 	ldr.w	r1, [r7, #372]	; 0x174
 8001040:	fa91 f1a1 	rbit	r1, r1
 8001044:	f8c7 1170 	str.w	r1, [r7, #368]	; 0x170
  return result;
 8001048:	f8d7 1170 	ldr.w	r1, [r7, #368]	; 0x170
 800104c:	fab1 f181 	clz	r1, r1
 8001050:	b2c9      	uxtb	r1, r1
 8001052:	408b      	lsls	r3, r1
 8001054:	4969      	ldr	r1, [pc, #420]	; (80011fc <HAL_RCC_OscConfig+0x5d0>)
 8001056:	4313      	orrs	r3, r2
 8001058:	600b      	str	r3, [r1, #0]
      if((__HAL_RCC_GET_FLAG(RCC_FLAG_HSIRDY) != RESET) && (RCC_OscInitStruct->HSIState != RCC_HSI_ON))
 800105a:	e0fe      	b.n	800125a <HAL_RCC_OscConfig+0x62e>
      }
    }
    else
    {
      /* Check the HSI State */
      if(RCC_OscInitStruct->HSIState != RCC_HSI_OFF)
 800105c:	f507 7302 	add.w	r3, r7, #520	; 0x208
 8001060:	f5a3 7301 	sub.w	r3, r3, #516	; 0x204
 8001064:	681b      	ldr	r3, [r3, #0]
 8001066:	68db      	ldr	r3, [r3, #12]
 8001068:	2b00      	cmp	r3, #0
 800106a:	f000 8088 	beq.w	800117e <HAL_RCC_OscConfig+0x552>
 800106e:	2301      	movs	r3, #1
 8001070:	f8c7 316c 	str.w	r3, [r7, #364]	; 0x16c
   __ASM volatile ("rbit %0, %1" : "=r" (result) : "r" (value) );
 8001074:	f8d7 316c 	ldr.w	r3, [r7, #364]	; 0x16c
 8001078:	fa93 f3a3 	rbit	r3, r3
 800107c:	f8c7 3168 	str.w	r3, [r7, #360]	; 0x168
  return result;
 8001080:	f8d7 3168 	ldr.w	r3, [r7, #360]	; 0x168
      {
       /* Enable the Internal High Speed oscillator (HSI). */
        __HAL_RCC_HSI_ENABLE();
 8001084:	fab3 f383 	clz	r3, r3
 8001088:	b2db      	uxtb	r3, r3
 800108a:	f103 5384 	add.w	r3, r3, #276824064	; 0x10800000
 800108e:	f503 1384 	add.w	r3, r3, #1081344	; 0x108000
 8001092:	009b      	lsls	r3, r3, #2
 8001094:	461a      	mov	r2, r3
 8001096:	2301      	movs	r3, #1
 8001098:	6013      	str	r3, [r2, #0]
        
        /* Get Start Tick */
        tickstart = HAL_GetTick();
 800109a:	f7ff fb4b 	bl	8000734 <HAL_GetTick>
 800109e:	f8c7 0200 	str.w	r0, [r7, #512]	; 0x200
        
        /* Wait till HSI is ready */
        while(__HAL_RCC_GET_FLAG(RCC_FLAG_HSIRDY) == RESET)
 80010a2:	e00a      	b.n	80010ba <HAL_RCC_OscConfig+0x48e>
        {
          if((HAL_GetTick() - tickstart ) > HSI_TIMEOUT_VALUE)
 80010a4:	f7ff fb46 	bl	8000734 <HAL_GetTick>
 80010a8:	4602      	mov	r2, r0
 80010aa:	f8d7 3200 	ldr.w	r3, [r7, #512]	; 0x200
 80010ae:	1ad3      	subs	r3, r2, r3
 80010b0:	2b02      	cmp	r3, #2
 80010b2:	d902      	bls.n	80010ba <HAL_RCC_OscConfig+0x48e>
          {
            return HAL_TIMEOUT;
 80010b4:	2303      	movs	r3, #3
 80010b6:	f000 be06 	b.w	8001cc6 <HAL_RCC_OscConfig+0x109a>
 80010ba:	2302      	movs	r3, #2
 80010bc:	f8c7 3164 	str.w	r3, [r7, #356]	; 0x164
   __ASM volatile ("rbit %0, %1" : "=r" (result) : "r" (value) );
 80010c0:	f8d7 3164 	ldr.w	r3, [r7, #356]	; 0x164
 80010c4:	fa93 f3a3 	rbit	r3, r3
 80010c8:	f8c7 3160 	str.w	r3, [r7, #352]	; 0x160
  return result;
 80010cc:	f8d7 3160 	ldr.w	r3, [r7, #352]	; 0x160
        while(__HAL_RCC_GET_FLAG(RCC_FLAG_HSIRDY) == RESET)
 80010d0:	fab3 f383 	clz	r3, r3
 80010d4:	b2db      	uxtb	r3, r3
 80010d6:	095b      	lsrs	r3, r3, #5
 80010d8:	b2db      	uxtb	r3, r3
 80010da:	f043 0301 	orr.w	r3, r3, #1
 80010de:	b2db      	uxtb	r3, r3
 80010e0:	2b01      	cmp	r3, #1
 80010e2:	d102      	bne.n	80010ea <HAL_RCC_OscConfig+0x4be>
 80010e4:	4b45      	ldr	r3, [pc, #276]	; (80011fc <HAL_RCC_OscConfig+0x5d0>)
 80010e6:	681b      	ldr	r3, [r3, #0]
 80010e8:	e013      	b.n	8001112 <HAL_RCC_OscConfig+0x4e6>
 80010ea:	2302      	movs	r3, #2
 80010ec:	f8c7 315c 	str.w	r3, [r7, #348]	; 0x15c
   __ASM volatile ("rbit %0, %1" : "=r" (result) : "r" (value) );
 80010f0:	f8d7 315c 	ldr.w	r3, [r7, #348]	; 0x15c
 80010f4:	fa93 f3a3 	rbit	r3, r3
 80010f8:	f8c7 3158 	str.w	r3, [r7, #344]	; 0x158
 80010fc:	2302      	movs	r3, #2
 80010fe:	f8c7 3154 	str.w	r3, [r7, #340]	; 0x154
 8001102:	f8d7 3154 	ldr.w	r3, [r7, #340]	; 0x154
 8001106:	fa93 f3a3 	rbit	r3, r3
 800110a:	f8c7 3150 	str.w	r3, [r7, #336]	; 0x150
 800110e:	4b3b      	ldr	r3, [pc, #236]	; (80011fc <HAL_RCC_OscConfig+0x5d0>)
 8001110:	6a5b      	ldr	r3, [r3, #36]	; 0x24
 8001112:	2202      	movs	r2, #2
 8001114:	f8c7 214c 	str.w	r2, [r7, #332]	; 0x14c
 8001118:	f8d7 214c 	ldr.w	r2, [r7, #332]	; 0x14c
 800111c:	fa92 f2a2 	rbit	r2, r2
 8001120:	f8c7 2148 	str.w	r2, [r7, #328]	; 0x148
  return result;
 8001124:	f8d7 2148 	ldr.w	r2, [r7, #328]	; 0x148
 8001128:	fab2 f282 	clz	r2, r2
 800112c:	b2d2      	uxtb	r2, r2
 800112e:	f042 0220 	orr.w	r2, r2, #32
 8001132:	b2d2      	uxtb	r2, r2
 8001134:	f002 021f 	and.w	r2, r2, #31
 8001138:	2101      	movs	r1, #1
 800113a:	fa01 f202 	lsl.w	r2, r1, r2
 800113e:	4013      	ands	r3, r2
 8001140:	2b00      	cmp	r3, #0
 8001142:	d0af      	beq.n	80010a4 <HAL_RCC_OscConfig+0x478>
          }
        }
                
        /* Adjusts the Internal High Speed oscillator (HSI) calibration value.*/
        __HAL_RCC_HSI_CALIBRATIONVALUE_ADJUST(RCC_OscInitStruct->HSICalibrationValue);
 8001144:	4b2d      	ldr	r3, [pc, #180]	; (80011fc <HAL_RCC_OscConfig+0x5d0>)
 8001146:	681b      	ldr	r3, [r3, #0]
 8001148:	f023 02f8 	bic.w	r2, r3, #248	; 0xf8
 800114c:	f507 7302 	add.w	r3, r7, #520	; 0x208
 8001150:	f5a3 7301 	sub.w	r3, r3, #516	; 0x204
 8001154:	681b      	ldr	r3, [r3, #0]
 8001156:	691b      	ldr	r3, [r3, #16]
 8001158:	21f8      	movs	r1, #248	; 0xf8
 800115a:	f8c7 1144 	str.w	r1, [r7, #324]	; 0x144
   __ASM volatile ("rbit %0, %1" : "=r" (result) : "r" (value) );
 800115e:	f8d7 1144 	ldr.w	r1, [r7, #324]	; 0x144
 8001162:	fa91 f1a1 	rbit	r1, r1
 8001166:	f8c7 1140 	str.w	r1, [r7, #320]	; 0x140
  return result;
 800116a:	f8d7 1140 	ldr.w	r1, [r7, #320]	; 0x140
 800116e:	fab1 f181 	clz	r1, r1
 8001172:	b2c9      	uxtb	r1, r1
 8001174:	408b      	lsls	r3, r1
 8001176:	4921      	ldr	r1, [pc, #132]	; (80011fc <HAL_RCC_OscConfig+0x5d0>)
 8001178:	4313      	orrs	r3, r2
 800117a:	600b      	str	r3, [r1, #0]
 800117c:	e06d      	b.n	800125a <HAL_RCC_OscConfig+0x62e>
 800117e:	2301      	movs	r3, #1
 8001180:	f8c7 313c 	str.w	r3, [r7, #316]	; 0x13c
   __ASM volatile ("rbit %0, %1" : "=r" (result) : "r" (value) );
 8001184:	f8d7 313c 	ldr.w	r3, [r7, #316]	; 0x13c
 8001188:	fa93 f3a3 	rbit	r3, r3
 800118c:	f8c7 3138 	str.w	r3, [r7, #312]	; 0x138
  return result;
 8001190:	f8d7 3138 	ldr.w	r3, [r7, #312]	; 0x138
      }
      else
      {
        /* Disable the Internal High Speed oscillator (HSI). */
        __HAL_RCC_HSI_DISABLE();
 8001194:	fab3 f383 	clz	r3, r3
 8001198:	b2db      	uxtb	r3, r3
 800119a:	f103 5384 	add.w	r3, r3, #276824064	; 0x10800000
 800119e:	f503 1384 	add.w	r3, r3, #1081344	; 0x108000
 80011a2:	009b      	lsls	r3, r3, #2
 80011a4:	461a      	mov	r2, r3
 80011a6:	2300      	movs	r3, #0
 80011a8:	6013      	str	r3, [r2, #0]
        
        /* Get Start Tick */
        tickstart = HAL_GetTick();
 80011aa:	f7ff fac3 	bl	8000734 <HAL_GetTick>
 80011ae:	f8c7 0200 	str.w	r0, [r7, #512]	; 0x200
        
        /* Wait till HSI is disabled */
        while(__HAL_RCC_GET_FLAG(RCC_FLAG_HSIRDY) != RESET)
 80011b2:	e00a      	b.n	80011ca <HAL_RCC_OscConfig+0x59e>
        {
          if((HAL_GetTick() - tickstart ) > HSI_TIMEOUT_VALUE)
 80011b4:	f7ff fabe 	bl	8000734 <HAL_GetTick>
 80011b8:	4602      	mov	r2, r0
 80011ba:	f8d7 3200 	ldr.w	r3, [r7, #512]	; 0x200
 80011be:	1ad3      	subs	r3, r2, r3
 80011c0:	2b02      	cmp	r3, #2
 80011c2:	d902      	bls.n	80011ca <HAL_RCC_OscConfig+0x59e>
          {
            return HAL_TIMEOUT;
 80011c4:	2303      	movs	r3, #3
 80011c6:	f000 bd7e 	b.w	8001cc6 <HAL_RCC_OscConfig+0x109a>
 80011ca:	2302      	movs	r3, #2
 80011cc:	f8c7 3134 	str.w	r3, [r7, #308]	; 0x134
   __ASM volatile ("rbit %0, %1" : "=r" (result) : "r" (value) );
 80011d0:	f8d7 3134 	ldr.w	r3, [r7, #308]	; 0x134
 80011d4:	fa93 f3a3 	rbit	r3, r3
 80011d8:	f8c7 3130 	str.w	r3, [r7, #304]	; 0x130
  return result;
 80011dc:	f8d7 3130 	ldr.w	r3, [r7, #304]	; 0x130
        while(__HAL_RCC_GET_FLAG(RCC_FLAG_HSIRDY) != RESET)
 80011e0:	fab3 f383 	clz	r3, r3
 80011e4:	b2db      	uxtb	r3, r3
 80011e6:	095b      	lsrs	r3, r3, #5
 80011e8:	b2db      	uxtb	r3, r3
 80011ea:	f043 0301 	orr.w	r3, r3, #1
 80011ee:	b2db      	uxtb	r3, r3
 80011f0:	2b01      	cmp	r3, #1
 80011f2:	d105      	bne.n	8001200 <HAL_RCC_OscConfig+0x5d4>
 80011f4:	4b01      	ldr	r3, [pc, #4]	; (80011fc <HAL_RCC_OscConfig+0x5d0>)
 80011f6:	681b      	ldr	r3, [r3, #0]
 80011f8:	e016      	b.n	8001228 <HAL_RCC_OscConfig+0x5fc>
 80011fa:	bf00      	nop
 80011fc:	40021000 	.word	0x40021000
 8001200:	2302      	movs	r3, #2
 8001202:	f8c7 312c 	str.w	r3, [r7, #300]	; 0x12c
   __ASM volatile ("rbit %0, %1" : "=r" (result) : "r" (value) );
 8001206:	f8d7 312c 	ldr.w	r3, [r7, #300]	; 0x12c
 800120a:	fa93 f3a3 	rbit	r3, r3
 800120e:	f8c7 3128 	str.w	r3, [r7, #296]	; 0x128
 8001212:	2302      	movs	r3, #2
 8001214:	f8c7 3124 	str.w	r3, [r7, #292]	; 0x124
 8001218:	f8d7 3124 	ldr.w	r3, [r7, #292]	; 0x124
 800121c:	fa93 f3a3 	rbit	r3, r3
 8001220:	f8c7 3120 	str.w	r3, [r7, #288]	; 0x120
 8001224:	4bbf      	ldr	r3, [pc, #764]	; (8001524 <HAL_RCC_OscConfig+0x8f8>)
 8001226:	6a5b      	ldr	r3, [r3, #36]	; 0x24
 8001228:	2202      	movs	r2, #2
 800122a:	f8c7 211c 	str.w	r2, [r7, #284]	; 0x11c
 800122e:	f8d7 211c 	ldr.w	r2, [r7, #284]	; 0x11c
 8001232:	fa92 f2a2 	rbit	r2, r2
 8001236:	f8c7 2118 	str.w	r2, [r7, #280]	; 0x118
  return result;
 800123a:	f8d7 2118 	ldr.w	r2, [r7, #280]	; 0x118
 800123e:	fab2 f282 	clz	r2, r2
 8001242:	b2d2      	uxtb	r2, r2
 8001244:	f042 0220 	orr.w	r2, r2, #32
 8001248:	b2d2      	uxtb	r2, r2
 800124a:	f002 021f 	and.w	r2, r2, #31
 800124e:	2101      	movs	r1, #1
 8001250:	fa01 f202 	lsl.w	r2, r1, r2
 8001254:	4013      	ands	r3, r2
 8001256:	2b00      	cmp	r3, #0
 8001258:	d1ac      	bne.n	80011b4 <HAL_RCC_OscConfig+0x588>
        }
      }
    }
  }
  /*------------------------------ LSI Configuration -------------------------*/ 
  if(((RCC_OscInitStruct->OscillatorType) & RCC_OSCILLATORTYPE_LSI) == RCC_OSCILLATORTYPE_LSI)
 800125a:	f507 7302 	add.w	r3, r7, #520	; 0x208
 800125e:	f5a3 7301 	sub.w	r3, r3, #516	; 0x204
 8001262:	681b      	ldr	r3, [r3, #0]
 8001264:	681b      	ldr	r3, [r3, #0]
 8001266:	f003 0308 	and.w	r3, r3, #8
 800126a:	2b00      	cmp	r3, #0
 800126c:	f000 8113 	beq.w	8001496 <HAL_RCC_OscConfig+0x86a>
  {
    /* Check the parameters */
    assert_param(IS_RCC_LSI(RCC_OscInitStruct->LSIState));
    
    /* Check the LSI State */
    if(RCC_OscInitStruct->LSIState != RCC_LSI_OFF)
 8001270:	f507 7302 	add.w	r3, r7, #520	; 0x208
 8001274:	f5a3 7301 	sub.w	r3, r3, #516	; 0x204
 8001278:	681b      	ldr	r3, [r3, #0]
 800127a:	695b      	ldr	r3, [r3, #20]
 800127c:	2b00      	cmp	r3, #0
 800127e:	d07c      	beq.n	800137a <HAL_RCC_OscConfig+0x74e>
 8001280:	2301      	movs	r3, #1
 8001282:	f8c7 3114 	str.w	r3, [r7, #276]	; 0x114
   __ASM volatile ("rbit %0, %1" : "=r" (result) : "r" (value) );
 8001286:	f8d7 3114 	ldr.w	r3, [r7, #276]	; 0x114
 800128a:	fa93 f3a3 	rbit	r3, r3
 800128e:	f8c7 3110 	str.w	r3, [r7, #272]	; 0x110
  return result;
 8001292:	f8d7 3110 	ldr.w	r3, [r7, #272]	; 0x110
    {
      /* Enable the Internal Low Speed oscillator (LSI). */
      __HAL_RCC_LSI_ENABLE();
 8001296:	fab3 f383 	clz	r3, r3
 800129a:	b2db      	uxtb	r3, r3
 800129c:	461a      	mov	r2, r3
 800129e:	4ba2      	ldr	r3, [pc, #648]	; (8001528 <HAL_RCC_OscConfig+0x8fc>)
 80012a0:	4413      	add	r3, r2
 80012a2:	009b      	lsls	r3, r3, #2
 80012a4:	461a      	mov	r2, r3
 80012a6:	2301      	movs	r3, #1
 80012a8:	6013      	str	r3, [r2, #0]
      
      /* Get Start Tick */
      tickstart = HAL_GetTick();
 80012aa:	f7ff fa43 	bl	8000734 <HAL_GetTick>
 80012ae:	f8c7 0200 	str.w	r0, [r7, #512]	; 0x200
      
      /* Wait till LSI is ready */  
      while(__HAL_RCC_GET_FLAG(RCC_FLAG_LSIRDY) == RESET)
 80012b2:	e00a      	b.n	80012ca <HAL_RCC_OscConfig+0x69e>
      {
        if((HAL_GetTick() - tickstart ) > LSI_TIMEOUT_VALUE)
 80012b4:	f7ff fa3e 	bl	8000734 <HAL_GetTick>
 80012b8:	4602      	mov	r2, r0
 80012ba:	f8d7 3200 	ldr.w	r3, [r7, #512]	; 0x200
 80012be:	1ad3      	subs	r3, r2, r3
 80012c0:	2b02      	cmp	r3, #2
 80012c2:	d902      	bls.n	80012ca <HAL_RCC_OscConfig+0x69e>
        {
          return HAL_TIMEOUT;
 80012c4:	2303      	movs	r3, #3
 80012c6:	f000 bcfe 	b.w	8001cc6 <HAL_RCC_OscConfig+0x109a>
 80012ca:	2302      	movs	r3, #2
 80012cc:	f8c7 310c 	str.w	r3, [r7, #268]	; 0x10c
   __ASM volatile ("rbit %0, %1" : "=r" (result) : "r" (value) );
 80012d0:	f8d7 310c 	ldr.w	r3, [r7, #268]	; 0x10c
 80012d4:	fa93 f2a3 	rbit	r2, r3
 80012d8:	f507 7302 	add.w	r3, r7, #520	; 0x208
 80012dc:	f5a3 7380 	sub.w	r3, r3, #256	; 0x100
 80012e0:	601a      	str	r2, [r3, #0]
 80012e2:	f507 7302 	add.w	r3, r7, #520	; 0x208
 80012e6:	f5a3 7382 	sub.w	r3, r3, #260	; 0x104
 80012ea:	2202      	movs	r2, #2
 80012ec:	601a      	str	r2, [r3, #0]
 80012ee:	f507 7302 	add.w	r3, r7, #520	; 0x208
 80012f2:	f5a3 7382 	sub.w	r3, r3, #260	; 0x104
 80012f6:	681b      	ldr	r3, [r3, #0]
 80012f8:	fa93 f2a3 	rbit	r2, r3
 80012fc:	f507 7302 	add.w	r3, r7, #520	; 0x208
 8001300:	f5a3 7384 	sub.w	r3, r3, #264	; 0x108
 8001304:	601a      	str	r2, [r3, #0]
 8001306:	f507 7302 	add.w	r3, r7, #520	; 0x208
 800130a:	f5a3 7386 	sub.w	r3, r3, #268	; 0x10c
 800130e:	2202      	movs	r2, #2
 8001310:	601a      	str	r2, [r3, #0]
 8001312:	f507 7302 	add.w	r3, r7, #520	; 0x208
 8001316:	f5a3 7386 	sub.w	r3, r3, #268	; 0x10c
 800131a:	681b      	ldr	r3, [r3, #0]
 800131c:	fa93 f2a3 	rbit	r2, r3
 8001320:	f507 7302 	add.w	r3, r7, #520	; 0x208
 8001324:	f5a3 7388 	sub.w	r3, r3, #272	; 0x110
 8001328:	601a      	str	r2, [r3, #0]
      while(__HAL_RCC_GET_FLAG(RCC_FLAG_LSIRDY) == RESET)
 800132a:	4b7e      	ldr	r3, [pc, #504]	; (8001524 <HAL_RCC_OscConfig+0x8f8>)
 800132c:	6a5a      	ldr	r2, [r3, #36]	; 0x24
 800132e:	f507 7302 	add.w	r3, r7, #520	; 0x208
 8001332:	f5a3 738a 	sub.w	r3, r3, #276	; 0x114
 8001336:	2102      	movs	r1, #2
 8001338:	6019      	str	r1, [r3, #0]
 800133a:	f507 7302 	add.w	r3, r7, #520	; 0x208
 800133e:	f5a3 738a 	sub.w	r3, r3, #276	; 0x114
 8001342:	681b      	ldr	r3, [r3, #0]
 8001344:	fa93 f1a3 	rbit	r1, r3
 8001348:	f507 7302 	add.w	r3, r7, #520	; 0x208
 800134c:	f5a3 738c 	sub.w	r3, r3, #280	; 0x118
 8001350:	6019      	str	r1, [r3, #0]
  return result;
 8001352:	f507 7302 	add.w	r3, r7, #520	; 0x208
 8001356:	f5a3 738c 	sub.w	r3, r3, #280	; 0x118
 800135a:	681b      	ldr	r3, [r3, #0]
 800135c:	fab3 f383 	clz	r3, r3
 8001360:	b2db      	uxtb	r3, r3
 8001362:	f043 0360 	orr.w	r3, r3, #96	; 0x60
 8001366:	b2db      	uxtb	r3, r3
 8001368:	f003 031f 	and.w	r3, r3, #31
 800136c:	2101      	movs	r1, #1
 800136e:	fa01 f303 	lsl.w	r3, r1, r3
 8001372:	4013      	ands	r3, r2
 8001374:	2b00      	cmp	r3, #0
 8001376:	d09d      	beq.n	80012b4 <HAL_RCC_OscConfig+0x688>
 8001378:	e08d      	b.n	8001496 <HAL_RCC_OscConfig+0x86a>
 800137a:	f507 7302 	add.w	r3, r7, #520	; 0x208
 800137e:	f5a3 738e 	sub.w	r3, r3, #284	; 0x11c
 8001382:	2201      	movs	r2, #1
 8001384:	601a      	str	r2, [r3, #0]
   __ASM volatile ("rbit %0, %1" : "=r" (result) : "r" (value) );
 8001386:	f507 7302 	add.w	r3, r7, #520	; 0x208
 800138a:	f5a3 738e 	sub.w	r3, r3, #284	; 0x11c
 800138e:	681b      	ldr	r3, [r3, #0]
 8001390:	fa93 f2a3 	rbit	r2, r3
 8001394:	f507 7302 	add.w	r3, r7, #520	; 0x208
 8001398:	f5a3 7390 	sub.w	r3, r3, #288	; 0x120
 800139c:	601a      	str	r2, [r3, #0]
  return result;
 800139e:	f507 7302 	add.w	r3, r7, #520	; 0x208
 80013a2:	f5a3 7390 	sub.w	r3, r3, #288	; 0x120
 80013a6:	681b      	ldr	r3, [r3, #0]
      }
    }
    else
    {
      /* Disable the Internal Low Speed oscillator (LSI). */
      __HAL_RCC_LSI_DISABLE();
 80013a8:	fab3 f383 	clz	r3, r3
 80013ac:	b2db      	uxtb	r3, r3
 80013ae:	461a      	mov	r2, r3
 80013b0:	4b5d      	ldr	r3, [pc, #372]	; (8001528 <HAL_RCC_OscConfig+0x8fc>)
 80013b2:	4413      	add	r3, r2
 80013b4:	009b      	lsls	r3, r3, #2
 80013b6:	461a      	mov	r2, r3
 80013b8:	2300      	movs	r3, #0
 80013ba:	6013      	str	r3, [r2, #0]
      
      /* Get Start Tick */
      tickstart = HAL_GetTick();
 80013bc:	f7ff f9ba 	bl	8000734 <HAL_GetTick>
 80013c0:	f8c7 0200 	str.w	r0, [r7, #512]	; 0x200
      
      /* Wait till LSI is disabled */  
      while(__HAL_RCC_GET_FLAG(RCC_FLAG_LSIRDY) != RESET)
 80013c4:	e00a      	b.n	80013dc <HAL_RCC_OscConfig+0x7b0>
      {
        if((HAL_GetTick() - tickstart ) > LSI_TIMEOUT_VALUE)
 80013c6:	f7ff f9b5 	bl	8000734 <HAL_GetTick>
 80013ca:	4602      	mov	r2, r0
 80013cc:	f8d7 3200 	ldr.w	r3, [r7, #512]	; 0x200
 80013d0:	1ad3      	subs	r3, r2, r3
 80013d2:	2b02      	cmp	r3, #2
 80013d4:	d902      	bls.n	80013dc <HAL_RCC_OscConfig+0x7b0>
        {
          return HAL_TIMEOUT;
 80013d6:	2303      	movs	r3, #3
 80013d8:	f000 bc75 	b.w	8001cc6 <HAL_RCC_OscConfig+0x109a>
 80013dc:	f507 7302 	add.w	r3, r7, #520	; 0x208
 80013e0:	f5a3 7392 	sub.w	r3, r3, #292	; 0x124
 80013e4:	2202      	movs	r2, #2
 80013e6:	601a      	str	r2, [r3, #0]
   __ASM volatile ("rbit %0, %1" : "=r" (result) : "r" (value) );
 80013e8:	f507 7302 	add.w	r3, r7, #520	; 0x208
 80013ec:	f5a3 7392 	sub.w	r3, r3, #292	; 0x124
 80013f0:	681b      	ldr	r3, [r3, #0]
 80013f2:	fa93 f2a3 	rbit	r2, r3
 80013f6:	f507 7302 	add.w	r3, r7, #520	; 0x208
 80013fa:	f5a3 7394 	sub.w	r3, r3, #296	; 0x128
 80013fe:	601a      	str	r2, [r3, #0]
 8001400:	f507 7302 	add.w	r3, r7, #520	; 0x208
 8001404:	f5a3 7396 	sub.w	r3, r3, #300	; 0x12c
 8001408:	2202      	movs	r2, #2
 800140a:	601a      	str	r2, [r3, #0]
 800140c:	f507 7302 	add.w	r3, r7, #520	; 0x208
 8001410:	f5a3 7396 	sub.w	r3, r3, #300	; 0x12c
 8001414:	681b      	ldr	r3, [r3, #0]
 8001416:	fa93 f2a3 	rbit	r2, r3
 800141a:	f507 7302 	add.w	r3, r7, #520	; 0x208
 800141e:	f5a3 7398 	sub.w	r3, r3, #304	; 0x130
 8001422:	601a      	str	r2, [r3, #0]
 8001424:	f507 7302 	add.w	r3, r7, #520	; 0x208
 8001428:	f5a3 739a 	sub.w	r3, r3, #308	; 0x134
 800142c:	2202      	movs	r2, #2
 800142e:	601a      	str	r2, [r3, #0]
 8001430:	f507 7302 	add.w	r3, r7, #520	; 0x208
 8001434:	f5a3 739a 	sub.w	r3, r3, #308	; 0x134
 8001438:	681b      	ldr	r3, [r3, #0]
 800143a:	fa93 f2a3 	rbit	r2, r3
 800143e:	f507 7302 	add.w	r3, r7, #520	; 0x208
 8001442:	f5a3 739c 	sub.w	r3, r3, #312	; 0x138
 8001446:	601a      	str	r2, [r3, #0]
      while(__HAL_RCC_GET_FLAG(RCC_FLAG_LSIRDY) != RESET)
 8001448:	4b36      	ldr	r3, [pc, #216]	; (8001524 <HAL_RCC_OscConfig+0x8f8>)
 800144a:	6a5a      	ldr	r2, [r3, #36]	; 0x24
 800144c:	f507 7302 	add.w	r3, r7, #520	; 0x208
 8001450:	f5a3 739e 	sub.w	r3, r3, #316	; 0x13c
 8001454:	2102      	movs	r1, #2
 8001456:	6019      	str	r1, [r3, #0]
 8001458:	f507 7302 	add.w	r3, r7, #520	; 0x208
 800145c:	f5a3 739e 	sub.w	r3, r3, #316	; 0x13c
 8001460:	681b      	ldr	r3, [r3, #0]
 8001462:	fa93 f1a3 	rbit	r1, r3
 8001466:	f507 7302 	add.w	r3, r7, #520	; 0x208
 800146a:	f5a3 73a0 	sub.w	r3, r3, #320	; 0x140
 800146e:	6019      	str	r1, [r3, #0]
  return result;
 8001470:	f507 7302 	add.w	r3, r7, #520	; 0x208
 8001474:	f5a3 73a0 	sub.w	r3, r3, #320	; 0x140
 8001478:	681b      	ldr	r3, [r3, #0]
 800147a:	fab3 f383 	clz	r3, r3
 800147e:	b2db      	uxtb	r3, r3
 8001480:	f043 0360 	orr.w	r3, r3, #96	; 0x60
 8001484:	b2db      	uxtb	r3, r3
 8001486:	f003 031f 	and.w	r3, r3, #31
 800148a:	2101      	movs	r1, #1
 800148c:	fa01 f303 	lsl.w	r3, r1, r3
 8001490:	4013      	ands	r3, r2
 8001492:	2b00      	cmp	r3, #0
 8001494:	d197      	bne.n	80013c6 <HAL_RCC_OscConfig+0x79a>
        }
      }
    }
  }
  /*------------------------------ LSE Configuration -------------------------*/ 
  if(((RCC_OscInitStruct->OscillatorType) & RCC_OSCILLATORTYPE_LSE) == RCC_OSCILLATORTYPE_LSE)
 8001496:	f507 7302 	add.w	r3, r7, #520	; 0x208
 800149a:	f5a3 7301 	sub.w	r3, r3, #516	; 0x204
 800149e:	681b      	ldr	r3, [r3, #0]
 80014a0:	681b      	ldr	r3, [r3, #0]
 80014a2:	f003 0304 	and.w	r3, r3, #4
 80014a6:	2b00      	cmp	r3, #0
 80014a8:	f000 81a5 	beq.w	80017f6 <HAL_RCC_OscConfig+0xbca>
  {
    FlagStatus       pwrclkchanged = RESET;
 80014ac:	2300      	movs	r3, #0
 80014ae:	f887 3207 	strb.w	r3, [r7, #519]	; 0x207
    /* Check the parameters */
    assert_param(IS_RCC_LSE(RCC_OscInitStruct->LSEState));

    /* Update LSE configuration in Backup Domain control register    */
    /* Requires to enable write access to Backup Domain of necessary */
    if(__HAL_RCC_PWR_IS_CLK_DISABLED())
 80014b2:	4b1c      	ldr	r3, [pc, #112]	; (8001524 <HAL_RCC_OscConfig+0x8f8>)
 80014b4:	69db      	ldr	r3, [r3, #28]
 80014b6:	f003 5380 	and.w	r3, r3, #268435456	; 0x10000000
 80014ba:	2b00      	cmp	r3, #0
 80014bc:	d116      	bne.n	80014ec <HAL_RCC_OscConfig+0x8c0>
    {
      __HAL_RCC_PWR_CLK_ENABLE();
 80014be:	4b19      	ldr	r3, [pc, #100]	; (8001524 <HAL_RCC_OscConfig+0x8f8>)
 80014c0:	69db      	ldr	r3, [r3, #28]
 80014c2:	4a18      	ldr	r2, [pc, #96]	; (8001524 <HAL_RCC_OscConfig+0x8f8>)
 80014c4:	f043 5380 	orr.w	r3, r3, #268435456	; 0x10000000
 80014c8:	61d3      	str	r3, [r2, #28]
 80014ca:	4b16      	ldr	r3, [pc, #88]	; (8001524 <HAL_RCC_OscConfig+0x8f8>)
 80014cc:	69db      	ldr	r3, [r3, #28]
 80014ce:	f003 5280 	and.w	r2, r3, #268435456	; 0x10000000
 80014d2:	f507 7302 	add.w	r3, r7, #520	; 0x208
 80014d6:	f5a3 73fe 	sub.w	r3, r3, #508	; 0x1fc
 80014da:	601a      	str	r2, [r3, #0]
 80014dc:	f507 7302 	add.w	r3, r7, #520	; 0x208
 80014e0:	f5a3 73fe 	sub.w	r3, r3, #508	; 0x1fc
 80014e4:	681b      	ldr	r3, [r3, #0]
      pwrclkchanged = SET;
 80014e6:	2301      	movs	r3, #1
 80014e8:	f887 3207 	strb.w	r3, [r7, #519]	; 0x207
    }
    
    if(HAL_IS_BIT_CLR(PWR->CR, PWR_CR_DBP))
 80014ec:	4b0f      	ldr	r3, [pc, #60]	; (800152c <HAL_RCC_OscConfig+0x900>)
 80014ee:	681b      	ldr	r3, [r3, #0]
 80014f0:	f403 7380 	and.w	r3, r3, #256	; 0x100
 80014f4:	2b00      	cmp	r3, #0
 80014f6:	d121      	bne.n	800153c <HAL_RCC_OscConfig+0x910>
    {
      /* Enable write access to Backup domain */
      SET_BIT(PWR->CR, PWR_CR_DBP);
 80014f8:	4b0c      	ldr	r3, [pc, #48]	; (800152c <HAL_RCC_OscConfig+0x900>)
 80014fa:	681b      	ldr	r3, [r3, #0]
 80014fc:	4a0b      	ldr	r2, [pc, #44]	; (800152c <HAL_RCC_OscConfig+0x900>)
 80014fe:	f443 7380 	orr.w	r3, r3, #256	; 0x100
 8001502:	6013      	str	r3, [r2, #0]
      
      /* Wait for Backup domain Write protection disable */
      tickstart = HAL_GetTick();
 8001504:	f7ff f916 	bl	8000734 <HAL_GetTick>
 8001508:	f8c7 0200 	str.w	r0, [r7, #512]	; 0x200

      while(HAL_IS_BIT_CLR(PWR->CR, PWR_CR_DBP))
 800150c:	e010      	b.n	8001530 <HAL_RCC_OscConfig+0x904>
      {
        if((HAL_GetTick() - tickstart) > RCC_DBP_TIMEOUT_VALUE)
 800150e:	f7ff f911 	bl	8000734 <HAL_GetTick>
 8001512:	4602      	mov	r2, r0
 8001514:	f8d7 3200 	ldr.w	r3, [r7, #512]	; 0x200
 8001518:	1ad3      	subs	r3, r2, r3
 800151a:	2b64      	cmp	r3, #100	; 0x64
 800151c:	d908      	bls.n	8001530 <HAL_RCC_OscConfig+0x904>
        {
          return HAL_TIMEOUT;
 800151e:	2303      	movs	r3, #3
 8001520:	e3d1      	b.n	8001cc6 <HAL_RCC_OscConfig+0x109a>
 8001522:	bf00      	nop
 8001524:	40021000 	.word	0x40021000
 8001528:	10908120 	.word	0x10908120
 800152c:	40007000 	.word	0x40007000
      while(HAL_IS_BIT_CLR(PWR->CR, PWR_CR_DBP))
 8001530:	4b8d      	ldr	r3, [pc, #564]	; (8001768 <HAL_RCC_OscConfig+0xb3c>)
 8001532:	681b      	ldr	r3, [r3, #0]
 8001534:	f403 7380 	and.w	r3, r3, #256	; 0x100
 8001538:	2b00      	cmp	r3, #0
 800153a:	d0e8      	beq.n	800150e <HAL_RCC_OscConfig+0x8e2>
        }
      }
    }

    /* Set the new LSE configuration -----------------------------------------*/
    __HAL_RCC_LSE_CONFIG(RCC_OscInitStruct->LSEState);
 800153c:	f507 7302 	add.w	r3, r7, #520	; 0x208
 8001540:	f5a3 7301 	sub.w	r3, r3, #516	; 0x204
 8001544:	681b      	ldr	r3, [r3, #0]
 8001546:	689b      	ldr	r3, [r3, #8]
 8001548:	2b01      	cmp	r3, #1
 800154a:	d106      	bne.n	800155a <HAL_RCC_OscConfig+0x92e>
 800154c:	4b87      	ldr	r3, [pc, #540]	; (800176c <HAL_RCC_OscConfig+0xb40>)
 800154e:	6a1b      	ldr	r3, [r3, #32]
 8001550:	4a86      	ldr	r2, [pc, #536]	; (800176c <HAL_RCC_OscConfig+0xb40>)
 8001552:	f043 0301 	orr.w	r3, r3, #1
 8001556:	6213      	str	r3, [r2, #32]
 8001558:	e035      	b.n	80015c6 <HAL_RCC_OscConfig+0x99a>
 800155a:	f507 7302 	add.w	r3, r7, #520	; 0x208
 800155e:	f5a3 7301 	sub.w	r3, r3, #516	; 0x204
 8001562:	681b      	ldr	r3, [r3, #0]
 8001564:	689b      	ldr	r3, [r3, #8]
 8001566:	2b00      	cmp	r3, #0
 8001568:	d10c      	bne.n	8001584 <HAL_RCC_OscConfig+0x958>
 800156a:	4b80      	ldr	r3, [pc, #512]	; (800176c <HAL_RCC_OscConfig+0xb40>)
 800156c:	6a1b      	ldr	r3, [r3, #32]
 800156e:	4a7f      	ldr	r2, [pc, #508]	; (800176c <HAL_RCC_OscConfig+0xb40>)
 8001570:	f023 0301 	bic.w	r3, r3, #1
 8001574:	6213      	str	r3, [r2, #32]
 8001576:	4b7d      	ldr	r3, [pc, #500]	; (800176c <HAL_RCC_OscConfig+0xb40>)
 8001578:	6a1b      	ldr	r3, [r3, #32]
 800157a:	4a7c      	ldr	r2, [pc, #496]	; (800176c <HAL_RCC_OscConfig+0xb40>)
 800157c:	f023 0304 	bic.w	r3, r3, #4
 8001580:	6213      	str	r3, [r2, #32]
 8001582:	e020      	b.n	80015c6 <HAL_RCC_OscConfig+0x99a>
 8001584:	f507 7302 	add.w	r3, r7, #520	; 0x208
 8001588:	f5a3 7301 	sub.w	r3, r3, #516	; 0x204
 800158c:	681b      	ldr	r3, [r3, #0]
 800158e:	689b      	ldr	r3, [r3, #8]
 8001590:	2b05      	cmp	r3, #5
 8001592:	d10c      	bne.n	80015ae <HAL_RCC_OscConfig+0x982>
 8001594:	4b75      	ldr	r3, [pc, #468]	; (800176c <HAL_RCC_OscConfig+0xb40>)
 8001596:	6a1b      	ldr	r3, [r3, #32]
 8001598:	4a74      	ldr	r2, [pc, #464]	; (800176c <HAL_RCC_OscConfig+0xb40>)
 800159a:	f043 0304 	orr.w	r3, r3, #4
 800159e:	6213      	str	r3, [r2, #32]
 80015a0:	4b72      	ldr	r3, [pc, #456]	; (800176c <HAL_RCC_OscConfig+0xb40>)
 80015a2:	6a1b      	ldr	r3, [r3, #32]
 80015a4:	4a71      	ldr	r2, [pc, #452]	; (800176c <HAL_RCC_OscConfig+0xb40>)
 80015a6:	f043 0301 	orr.w	r3, r3, #1
 80015aa:	6213      	str	r3, [r2, #32]
 80015ac:	e00b      	b.n	80015c6 <HAL_RCC_OscConfig+0x99a>
 80015ae:	4b6f      	ldr	r3, [pc, #444]	; (800176c <HAL_RCC_OscConfig+0xb40>)
 80015b0:	6a1b      	ldr	r3, [r3, #32]
 80015b2:	4a6e      	ldr	r2, [pc, #440]	; (800176c <HAL_RCC_OscConfig+0xb40>)
 80015b4:	f023 0301 	bic.w	r3, r3, #1
 80015b8:	6213      	str	r3, [r2, #32]
 80015ba:	4b6c      	ldr	r3, [pc, #432]	; (800176c <HAL_RCC_OscConfig+0xb40>)
 80015bc:	6a1b      	ldr	r3, [r3, #32]
 80015be:	4a6b      	ldr	r2, [pc, #428]	; (800176c <HAL_RCC_OscConfig+0xb40>)
 80015c0:	f023 0304 	bic.w	r3, r3, #4
 80015c4:	6213      	str	r3, [r2, #32]
    /* Check the LSE State */
    if(RCC_OscInitStruct->LSEState != RCC_LSE_OFF)
 80015c6:	f507 7302 	add.w	r3, r7, #520	; 0x208
 80015ca:	f5a3 7301 	sub.w	r3, r3, #516	; 0x204
 80015ce:	681b      	ldr	r3, [r3, #0]
 80015d0:	689b      	ldr	r3, [r3, #8]
 80015d2:	2b00      	cmp	r3, #0
 80015d4:	f000 8081 	beq.w	80016da <HAL_RCC_OscConfig+0xaae>
    {
      /* Get Start Tick */
      tickstart = HAL_GetTick();
 80015d8:	f7ff f8ac 	bl	8000734 <HAL_GetTick>
 80015dc:	f8c7 0200 	str.w	r0, [r7, #512]	; 0x200
      
      /* Wait till LSE is ready */  
      while(__HAL_RCC_GET_FLAG(RCC_FLAG_LSERDY) == RESET)
 80015e0:	e00b      	b.n	80015fa <HAL_RCC_OscConfig+0x9ce>
      {
        if((HAL_GetTick() - tickstart ) > RCC_LSE_TIMEOUT_VALUE)
 80015e2:	f7ff f8a7 	bl	8000734 <HAL_GetTick>
 80015e6:	4602      	mov	r2, r0
 80015e8:	f8d7 3200 	ldr.w	r3, [r7, #512]	; 0x200
 80015ec:	1ad3      	subs	r3, r2, r3
 80015ee:	f241 3288 	movw	r2, #5000	; 0x1388
 80015f2:	4293      	cmp	r3, r2
 80015f4:	d901      	bls.n	80015fa <HAL_RCC_OscConfig+0x9ce>
        {
          return HAL_TIMEOUT;
 80015f6:	2303      	movs	r3, #3
 80015f8:	e365      	b.n	8001cc6 <HAL_RCC_OscConfig+0x109a>
 80015fa:	f507 7302 	add.w	r3, r7, #520	; 0x208
 80015fe:	f5a3 73a2 	sub.w	r3, r3, #324	; 0x144
 8001602:	2202      	movs	r2, #2
 8001604:	601a      	str	r2, [r3, #0]
   __ASM volatile ("rbit %0, %1" : "=r" (result) : "r" (value) );
 8001606:	f507 7302 	add.w	r3, r7, #520	; 0x208
 800160a:	f5a3 73a2 	sub.w	r3, r3, #324	; 0x144
 800160e:	681b      	ldr	r3, [r3, #0]
 8001610:	fa93 f2a3 	rbit	r2, r3
 8001614:	f507 7302 	add.w	r3, r7, #520	; 0x208
 8001618:	f5a3 73a4 	sub.w	r3, r3, #328	; 0x148
 800161c:	601a      	str	r2, [r3, #0]
 800161e:	f507 7302 	add.w	r3, r7, #520	; 0x208
 8001622:	f5a3 73a6 	sub.w	r3, r3, #332	; 0x14c
 8001626:	2202      	movs	r2, #2
 8001628:	601a      	str	r2, [r3, #0]
 800162a:	f507 7302 	add.w	r3, r7, #520	; 0x208
 800162e:	f5a3 73a6 	sub.w	r3, r3, #332	; 0x14c
 8001632:	681b      	ldr	r3, [r3, #0]
 8001634:	fa93 f2a3 	rbit	r2, r3
 8001638:	f507 7302 	add.w	r3, r7, #520	; 0x208
 800163c:	f5a3 73a8 	sub.w	r3, r3, #336	; 0x150
 8001640:	601a      	str	r2, [r3, #0]
  return result;
 8001642:	f507 7302 	add.w	r3, r7, #520	; 0x208
 8001646:	f5a3 73a8 	sub.w	r3, r3, #336	; 0x150
 800164a:	681b      	ldr	r3, [r3, #0]
      while(__HAL_RCC_GET_FLAG(RCC_FLAG_LSERDY) == RESET)
 800164c:	fab3 f383 	clz	r3, r3
 8001650:	b2db      	uxtb	r3, r3
 8001652:	095b      	lsrs	r3, r3, #5
 8001654:	b2db      	uxtb	r3, r3
 8001656:	f043 0302 	orr.w	r3, r3, #2
 800165a:	b2db      	uxtb	r3, r3
 800165c:	2b02      	cmp	r3, #2
 800165e:	d102      	bne.n	8001666 <HAL_RCC_OscConfig+0xa3a>
 8001660:	4b42      	ldr	r3, [pc, #264]	; (800176c <HAL_RCC_OscConfig+0xb40>)
 8001662:	6a1b      	ldr	r3, [r3, #32]
 8001664:	e013      	b.n	800168e <HAL_RCC_OscConfig+0xa62>
 8001666:	f507 7302 	add.w	r3, r7, #520	; 0x208
 800166a:	f5a3 73aa 	sub.w	r3, r3, #340	; 0x154
 800166e:	2202      	movs	r2, #2
 8001670:	601a      	str	r2, [r3, #0]
   __ASM volatile ("rbit %0, %1" : "=r" (result) : "r" (value) );
 8001672:	f507 7302 	add.w	r3, r7, #520	; 0x208
 8001676:	f5a3 73aa 	sub.w	r3, r3, #340	; 0x154
 800167a:	681b      	ldr	r3, [r3, #0]
 800167c:	fa93 f2a3 	rbit	r2, r3
 8001680:	f507 7302 	add.w	r3, r7, #520	; 0x208
 8001684:	f5a3 73ac 	sub.w	r3, r3, #344	; 0x158
 8001688:	601a      	str	r2, [r3, #0]
 800168a:	4b38      	ldr	r3, [pc, #224]	; (800176c <HAL_RCC_OscConfig+0xb40>)
 800168c:	6a5b      	ldr	r3, [r3, #36]	; 0x24
 800168e:	f507 7202 	add.w	r2, r7, #520	; 0x208
 8001692:	f5a2 72ae 	sub.w	r2, r2, #348	; 0x15c
 8001696:	2102      	movs	r1, #2
 8001698:	6011      	str	r1, [r2, #0]
 800169a:	f507 7202 	add.w	r2, r7, #520	; 0x208
 800169e:	f5a2 72ae 	sub.w	r2, r2, #348	; 0x15c
 80016a2:	6812      	ldr	r2, [r2, #0]
 80016a4:	fa92 f1a2 	rbit	r1, r2
 80016a8:	f507 7202 	add.w	r2, r7, #520	; 0x208
 80016ac:	f5a2 72b0 	sub.w	r2, r2, #352	; 0x160
 80016b0:	6011      	str	r1, [r2, #0]
  return result;
 80016b2:	f507 7202 	add.w	r2, r7, #520	; 0x208
 80016b6:	f5a2 72b0 	sub.w	r2, r2, #352	; 0x160
 80016ba:	6812      	ldr	r2, [r2, #0]
 80016bc:	fab2 f282 	clz	r2, r2
 80016c0:	b2d2      	uxtb	r2, r2
 80016c2:	f042 0240 	orr.w	r2, r2, #64	; 0x40
 80016c6:	b2d2      	uxtb	r2, r2
 80016c8:	f002 021f 	and.w	r2, r2, #31
 80016cc:	2101      	movs	r1, #1
 80016ce:	fa01 f202 	lsl.w	r2, r1, r2
 80016d2:	4013      	ands	r3, r2
 80016d4:	2b00      	cmp	r3, #0
 80016d6:	d084      	beq.n	80015e2 <HAL_RCC_OscConfig+0x9b6>
 80016d8:	e083      	b.n	80017e2 <HAL_RCC_OscConfig+0xbb6>
      }
    }
    else
    {
      /* Get Start Tick */
      tickstart = HAL_GetTick();
 80016da:	f7ff f82b 	bl	8000734 <HAL_GetTick>
 80016de:	f8c7 0200 	str.w	r0, [r7, #512]	; 0x200
      
      /* Wait till LSE is disabled */  
      while(__HAL_RCC_GET_FLAG(RCC_FLAG_LSERDY) != RESET)
 80016e2:	e00b      	b.n	80016fc <HAL_RCC_OscConfig+0xad0>
      {
        if((HAL_GetTick() - tickstart ) > RCC_LSE_TIMEOUT_VALUE)
 80016e4:	f7ff f826 	bl	8000734 <HAL_GetTick>
 80016e8:	4602      	mov	r2, r0
 80016ea:	f8d7 3200 	ldr.w	r3, [r7, #512]	; 0x200
 80016ee:	1ad3      	subs	r3, r2, r3
 80016f0:	f241 3288 	movw	r2, #5000	; 0x1388
 80016f4:	4293      	cmp	r3, r2
 80016f6:	d901      	bls.n	80016fc <HAL_RCC_OscConfig+0xad0>
        {
          return HAL_TIMEOUT;
 80016f8:	2303      	movs	r3, #3
 80016fa:	e2e4      	b.n	8001cc6 <HAL_RCC_OscConfig+0x109a>
 80016fc:	f507 7302 	add.w	r3, r7, #520	; 0x208
 8001700:	f5a3 73b2 	sub.w	r3, r3, #356	; 0x164
 8001704:	2202      	movs	r2, #2
 8001706:	601a      	str	r2, [r3, #0]
   __ASM volatile ("rbit %0, %1" : "=r" (result) : "r" (value) );
 8001708:	f507 7302 	add.w	r3, r7, #520	; 0x208
 800170c:	f5a3 73b2 	sub.w	r3, r3, #356	; 0x164
 8001710:	681b      	ldr	r3, [r3, #0]
 8001712:	fa93 f2a3 	rbit	r2, r3
 8001716:	f507 7302 	add.w	r3, r7, #520	; 0x208
 800171a:	f5a3 73b4 	sub.w	r3, r3, #360	; 0x168
 800171e:	601a      	str	r2, [r3, #0]
 8001720:	f507 7302 	add.w	r3, r7, #520	; 0x208
 8001724:	f5a3 73b6 	sub.w	r3, r3, #364	; 0x16c
 8001728:	2202      	movs	r2, #2
 800172a:	601a      	str	r2, [r3, #0]
 800172c:	f507 7302 	add.w	r3, r7, #520	; 0x208
 8001730:	f5a3 73b6 	sub.w	r3, r3, #364	; 0x16c
 8001734:	681b      	ldr	r3, [r3, #0]
 8001736:	fa93 f2a3 	rbit	r2, r3
 800173a:	f507 7302 	add.w	r3, r7, #520	; 0x208
 800173e:	f5a3 73b8 	sub.w	r3, r3, #368	; 0x170
 8001742:	601a      	str	r2, [r3, #0]
  return result;
 8001744:	f507 7302 	add.w	r3, r7, #520	; 0x208
 8001748:	f5a3 73b8 	sub.w	r3, r3, #368	; 0x170
 800174c:	681b      	ldr	r3, [r3, #0]
      while(__HAL_RCC_GET_FLAG(RCC_FLAG_LSERDY) != RESET)
 800174e:	fab3 f383 	clz	r3, r3
 8001752:	b2db      	uxtb	r3, r3
 8001754:	095b      	lsrs	r3, r3, #5
 8001756:	b2db      	uxtb	r3, r3
 8001758:	f043 0302 	orr.w	r3, r3, #2
 800175c:	b2db      	uxtb	r3, r3
 800175e:	2b02      	cmp	r3, #2
 8001760:	d106      	bne.n	8001770 <HAL_RCC_OscConfig+0xb44>
 8001762:	4b02      	ldr	r3, [pc, #8]	; (800176c <HAL_RCC_OscConfig+0xb40>)
 8001764:	6a1b      	ldr	r3, [r3, #32]
 8001766:	e017      	b.n	8001798 <HAL_RCC_OscConfig+0xb6c>
 8001768:	40007000 	.word	0x40007000
 800176c:	40021000 	.word	0x40021000
 8001770:	f507 7302 	add.w	r3, r7, #520	; 0x208
 8001774:	f5a3 73ba 	sub.w	r3, r3, #372	; 0x174
 8001778:	2202      	movs	r2, #2
 800177a:	601a      	str	r2, [r3, #0]
   __ASM volatile ("rbit %0, %1" : "=r" (result) : "r" (value) );
 800177c:	f507 7302 	add.w	r3, r7, #520	; 0x208
 8001780:	f5a3 73ba 	sub.w	r3, r3, #372	; 0x174
 8001784:	681b      	ldr	r3, [r3, #0]
 8001786:	fa93 f2a3 	rbit	r2, r3
 800178a:	f507 7302 	add.w	r3, r7, #520	; 0x208
 800178e:	f5a3 73bc 	sub.w	r3, r3, #376	; 0x178
 8001792:	601a      	str	r2, [r3, #0]
 8001794:	4bb3      	ldr	r3, [pc, #716]	; (8001a64 <HAL_RCC_OscConfig+0xe38>)
 8001796:	6a5b      	ldr	r3, [r3, #36]	; 0x24
 8001798:	f507 7202 	add.w	r2, r7, #520	; 0x208
 800179c:	f5a2 72be 	sub.w	r2, r2, #380	; 0x17c
 80017a0:	2102      	movs	r1, #2
 80017a2:	6011      	str	r1, [r2, #0]
 80017a4:	f507 7202 	add.w	r2, r7, #520	; 0x208
 80017a8:	f5a2 72be 	sub.w	r2, r2, #380	; 0x17c
 80017ac:	6812      	ldr	r2, [r2, #0]
 80017ae:	fa92 f1a2 	rbit	r1, r2
 80017b2:	f507 7202 	add.w	r2, r7, #520	; 0x208
 80017b6:	f5a2 72c0 	sub.w	r2, r2, #384	; 0x180
 80017ba:	6011      	str	r1, [r2, #0]
  return result;
 80017bc:	f507 7202 	add.w	r2, r7, #520	; 0x208
 80017c0:	f5a2 72c0 	sub.w	r2, r2, #384	; 0x180
 80017c4:	6812      	ldr	r2, [r2, #0]
 80017c6:	fab2 f282 	clz	r2, r2
 80017ca:	b2d2      	uxtb	r2, r2
 80017cc:	f042 0240 	orr.w	r2, r2, #64	; 0x40
 80017d0:	b2d2      	uxtb	r2, r2
 80017d2:	f002 021f 	and.w	r2, r2, #31
 80017d6:	2101      	movs	r1, #1
 80017d8:	fa01 f202 	lsl.w	r2, r1, r2
 80017dc:	4013      	ands	r3, r2
 80017de:	2b00      	cmp	r3, #0
 80017e0:	d180      	bne.n	80016e4 <HAL_RCC_OscConfig+0xab8>
        }
      }
    }

    /* Require to disable power clock if necessary */
    if(pwrclkchanged == SET)
 80017e2:	f897 3207 	ldrb.w	r3, [r7, #519]	; 0x207
 80017e6:	2b01      	cmp	r3, #1
 80017e8:	d105      	bne.n	80017f6 <HAL_RCC_OscConfig+0xbca>
    {
      __HAL_RCC_PWR_CLK_DISABLE();
 80017ea:	4b9e      	ldr	r3, [pc, #632]	; (8001a64 <HAL_RCC_OscConfig+0xe38>)
 80017ec:	69db      	ldr	r3, [r3, #28]
 80017ee:	4a9d      	ldr	r2, [pc, #628]	; (8001a64 <HAL_RCC_OscConfig+0xe38>)
 80017f0:	f023 5380 	bic.w	r3, r3, #268435456	; 0x10000000
 80017f4:	61d3      	str	r3, [r2, #28]
  }

  /*-------------------------------- PLL Configuration -----------------------*/
  /* Check the parameters */
  assert_param(IS_RCC_PLL(RCC_OscInitStruct->PLL.PLLState));
  if ((RCC_OscInitStruct->PLL.PLLState) != RCC_PLL_NONE)
 80017f6:	f507 7302 	add.w	r3, r7, #520	; 0x208
 80017fa:	f5a3 7301 	sub.w	r3, r3, #516	; 0x204
 80017fe:	681b      	ldr	r3, [r3, #0]
 8001800:	699b      	ldr	r3, [r3, #24]
 8001802:	2b00      	cmp	r3, #0
 8001804:	f000 825e 	beq.w	8001cc4 <HAL_RCC_OscConfig+0x1098>
  {
    /* Check if the PLL is used as system clock or not */
    if(__HAL_RCC_GET_SYSCLK_SOURCE() != RCC_SYSCLKSOURCE_STATUS_PLLCLK)
 8001808:	4b96      	ldr	r3, [pc, #600]	; (8001a64 <HAL_RCC_OscConfig+0xe38>)
 800180a:	685b      	ldr	r3, [r3, #4]
 800180c:	f003 030c 	and.w	r3, r3, #12
 8001810:	2b08      	cmp	r3, #8
 8001812:	f000 821f 	beq.w	8001c54 <HAL_RCC_OscConfig+0x1028>
    { 
      if((RCC_OscInitStruct->PLL.PLLState) == RCC_PLL_ON)
 8001816:	f507 7302 	add.w	r3, r7, #520	; 0x208
 800181a:	f5a3 7301 	sub.w	r3, r3, #516	; 0x204
 800181e:	681b      	ldr	r3, [r3, #0]
 8001820:	699b      	ldr	r3, [r3, #24]
 8001822:	2b02      	cmp	r3, #2
 8001824:	f040 8170 	bne.w	8001b08 <HAL_RCC_OscConfig+0xedc>
 8001828:	f507 7302 	add.w	r3, r7, #520	; 0x208
 800182c:	f5a3 73c2 	sub.w	r3, r3, #388	; 0x184
 8001830:	f04f 7280 	mov.w	r2, #16777216	; 0x1000000
 8001834:	601a      	str	r2, [r3, #0]
   __ASM volatile ("rbit %0, %1" : "=r" (result) : "r" (value) );
 8001836:	f507 7302 	add.w	r3, r7, #520	; 0x208
 800183a:	f5a3 73c2 	sub.w	r3, r3, #388	; 0x184
 800183e:	681b      	ldr	r3, [r3, #0]
 8001840:	fa93 f2a3 	rbit	r2, r3
 8001844:	f507 7302 	add.w	r3, r7, #520	; 0x208
 8001848:	f5a3 73c4 	sub.w	r3, r3, #392	; 0x188
 800184c:	601a      	str	r2, [r3, #0]
  return result;
 800184e:	f507 7302 	add.w	r3, r7, #520	; 0x208
 8001852:	f5a3 73c4 	sub.w	r3, r3, #392	; 0x188
 8001856:	681b      	ldr	r3, [r3, #0]
#if   defined(RCC_CFGR_PLLSRC_HSI_PREDIV)
        assert_param(IS_RCC_PREDIV(RCC_OscInitStruct->PLL.PREDIV));
#endif
  
        /* Disable the main PLL. */
        __HAL_RCC_PLL_DISABLE();
 8001858:	fab3 f383 	clz	r3, r3
 800185c:	b2db      	uxtb	r3, r3
 800185e:	f103 5384 	add.w	r3, r3, #276824064	; 0x10800000
 8001862:	f503 1384 	add.w	r3, r3, #1081344	; 0x108000
 8001866:	009b      	lsls	r3, r3, #2
 8001868:	461a      	mov	r2, r3
 800186a:	2300      	movs	r3, #0
 800186c:	6013      	str	r3, [r2, #0]
        
        /* Get Start Tick */
        tickstart = HAL_GetTick();
 800186e:	f7fe ff61 	bl	8000734 <HAL_GetTick>
 8001872:	f8c7 0200 	str.w	r0, [r7, #512]	; 0x200
        
        /* Wait till PLL is disabled */
        while(__HAL_RCC_GET_FLAG(RCC_FLAG_PLLRDY)  != RESET)
 8001876:	e009      	b.n	800188c <HAL_RCC_OscConfig+0xc60>
        {
          if((HAL_GetTick() - tickstart ) > PLL_TIMEOUT_VALUE)
 8001878:	f7fe ff5c 	bl	8000734 <HAL_GetTick>
 800187c:	4602      	mov	r2, r0
 800187e:	f8d7 3200 	ldr.w	r3, [r7, #512]	; 0x200
 8001882:	1ad3      	subs	r3, r2, r3
 8001884:	2b02      	cmp	r3, #2
 8001886:	d901      	bls.n	800188c <HAL_RCC_OscConfig+0xc60>
          {
            return HAL_TIMEOUT;
 8001888:	2303      	movs	r3, #3
 800188a:	e21c      	b.n	8001cc6 <HAL_RCC_OscConfig+0x109a>
 800188c:	f507 7302 	add.w	r3, r7, #520	; 0x208
 8001890:	f5a3 73c6 	sub.w	r3, r3, #396	; 0x18c
 8001894:	f04f 7200 	mov.w	r2, #33554432	; 0x2000000
 8001898:	601a      	str	r2, [r3, #0]
   __ASM volatile ("rbit %0, %1" : "=r" (result) : "r" (value) );
 800189a:	f507 7302 	add.w	r3, r7, #520	; 0x208
 800189e:	f5a3 73c6 	sub.w	r3, r3, #396	; 0x18c
 80018a2:	681b      	ldr	r3, [r3, #0]
 80018a4:	fa93 f2a3 	rbit	r2, r3
 80018a8:	f507 7302 	add.w	r3, r7, #520	; 0x208
 80018ac:	f5a3 73c8 	sub.w	r3, r3, #400	; 0x190
 80018b0:	601a      	str	r2, [r3, #0]
  return result;
 80018b2:	f507 7302 	add.w	r3, r7, #520	; 0x208
 80018b6:	f5a3 73c8 	sub.w	r3, r3, #400	; 0x190
 80018ba:	681b      	ldr	r3, [r3, #0]
        while(__HAL_RCC_GET_FLAG(RCC_FLAG_PLLRDY)  != RESET)
 80018bc:	fab3 f383 	clz	r3, r3
 80018c0:	b2db      	uxtb	r3, r3
 80018c2:	095b      	lsrs	r3, r3, #5
 80018c4:	b2db      	uxtb	r3, r3
 80018c6:	f043 0301 	orr.w	r3, r3, #1
 80018ca:	b2db      	uxtb	r3, r3
 80018cc:	2b01      	cmp	r3, #1
 80018ce:	d102      	bne.n	80018d6 <HAL_RCC_OscConfig+0xcaa>
 80018d0:	4b64      	ldr	r3, [pc, #400]	; (8001a64 <HAL_RCC_OscConfig+0xe38>)
 80018d2:	681b      	ldr	r3, [r3, #0]
 80018d4:	e027      	b.n	8001926 <HAL_RCC_OscConfig+0xcfa>
 80018d6:	f507 7302 	add.w	r3, r7, #520	; 0x208
 80018da:	f5a3 73ca 	sub.w	r3, r3, #404	; 0x194
 80018de:	f04f 7200 	mov.w	r2, #33554432	; 0x2000000
 80018e2:	601a      	str	r2, [r3, #0]
   __ASM volatile ("rbit %0, %1" : "=r" (result) : "r" (value) );
 80018e4:	f507 7302 	add.w	r3, r7, #520	; 0x208
 80018e8:	f5a3 73ca 	sub.w	r3, r3, #404	; 0x194
 80018ec:	681b      	ldr	r3, [r3, #0]
 80018ee:	fa93 f2a3 	rbit	r2, r3
 80018f2:	f507 7302 	add.w	r3, r7, #520	; 0x208
 80018f6:	f5a3 73cc 	sub.w	r3, r3, #408	; 0x198
 80018fa:	601a      	str	r2, [r3, #0]
 80018fc:	f507 7302 	add.w	r3, r7, #520	; 0x208
 8001900:	f5a3 73ce 	sub.w	r3, r3, #412	; 0x19c
 8001904:	f04f 7200 	mov.w	r2, #33554432	; 0x2000000
 8001908:	601a      	str	r2, [r3, #0]
 800190a:	f507 7302 	add.w	r3, r7, #520	; 0x208
 800190e:	f5a3 73ce 	sub.w	r3, r3, #412	; 0x19c
 8001912:	681b      	ldr	r3, [r3, #0]
 8001914:	fa93 f2a3 	rbit	r2, r3
 8001918:	f507 7302 	add.w	r3, r7, #520	; 0x208
 800191c:	f5a3 73d0 	sub.w	r3, r3, #416	; 0x1a0
 8001920:	601a      	str	r2, [r3, #0]
 8001922:	4b50      	ldr	r3, [pc, #320]	; (8001a64 <HAL_RCC_OscConfig+0xe38>)
 8001924:	6a5b      	ldr	r3, [r3, #36]	; 0x24
 8001926:	f507 7202 	add.w	r2, r7, #520	; 0x208
 800192a:	f5a2 72d2 	sub.w	r2, r2, #420	; 0x1a4
 800192e:	f04f 7100 	mov.w	r1, #33554432	; 0x2000000
 8001932:	6011      	str	r1, [r2, #0]
 8001934:	f507 7202 	add.w	r2, r7, #520	; 0x208
 8001938:	f5a2 72d2 	sub.w	r2, r2, #420	; 0x1a4
 800193c:	6812      	ldr	r2, [r2, #0]
 800193e:	fa92 f1a2 	rbit	r1, r2
 8001942:	f507 7202 	add.w	r2, r7, #520	; 0x208
 8001946:	f5a2 72d4 	sub.w	r2, r2, #424	; 0x1a8
 800194a:	6011      	str	r1, [r2, #0]
  return result;
 800194c:	f507 7202 	add.w	r2, r7, #520	; 0x208
 8001950:	f5a2 72d4 	sub.w	r2, r2, #424	; 0x1a8
 8001954:	6812      	ldr	r2, [r2, #0]
 8001956:	fab2 f282 	clz	r2, r2
 800195a:	b2d2      	uxtb	r2, r2
 800195c:	f042 0220 	orr.w	r2, r2, #32
 8001960:	b2d2      	uxtb	r2, r2
 8001962:	f002 021f 	and.w	r2, r2, #31
 8001966:	2101      	movs	r1, #1
 8001968:	fa01 f202 	lsl.w	r2, r1, r2
 800196c:	4013      	ands	r3, r2
 800196e:	2b00      	cmp	r3, #0
 8001970:	d182      	bne.n	8001878 <HAL_RCC_OscConfig+0xc4c>
          }
        }

#if defined(RCC_CFGR_PLLSRC_HSI_PREDIV)
        /* Configure the main PLL clock source, predivider and multiplication factor. */
        __HAL_RCC_PLL_CONFIG(RCC_OscInitStruct->PLL.PLLSource,
 8001972:	4b3c      	ldr	r3, [pc, #240]	; (8001a64 <HAL_RCC_OscConfig+0xe38>)
 8001974:	6adb      	ldr	r3, [r3, #44]	; 0x2c
 8001976:	f023 020f 	bic.w	r2, r3, #15
 800197a:	f507 7302 	add.w	r3, r7, #520	; 0x208
 800197e:	f5a3 7301 	sub.w	r3, r3, #516	; 0x204
 8001982:	681b      	ldr	r3, [r3, #0]
 8001984:	6a5b      	ldr	r3, [r3, #36]	; 0x24
 8001986:	4937      	ldr	r1, [pc, #220]	; (8001a64 <HAL_RCC_OscConfig+0xe38>)
 8001988:	4313      	orrs	r3, r2
 800198a:	62cb      	str	r3, [r1, #44]	; 0x2c
 800198c:	4b35      	ldr	r3, [pc, #212]	; (8001a64 <HAL_RCC_OscConfig+0xe38>)
 800198e:	685b      	ldr	r3, [r3, #4]
 8001990:	f423 1276 	bic.w	r2, r3, #4030464	; 0x3d8000
 8001994:	f507 7302 	add.w	r3, r7, #520	; 0x208
 8001998:	f5a3 7301 	sub.w	r3, r3, #516	; 0x204
 800199c:	681b      	ldr	r3, [r3, #0]
 800199e:	6a19      	ldr	r1, [r3, #32]
 80019a0:	f507 7302 	add.w	r3, r7, #520	; 0x208
 80019a4:	f5a3 7301 	sub.w	r3, r3, #516	; 0x204
 80019a8:	681b      	ldr	r3, [r3, #0]
 80019aa:	69db      	ldr	r3, [r3, #28]
 80019ac:	430b      	orrs	r3, r1
 80019ae:	492d      	ldr	r1, [pc, #180]	; (8001a64 <HAL_RCC_OscConfig+0xe38>)
 80019b0:	4313      	orrs	r3, r2
 80019b2:	604b      	str	r3, [r1, #4]
 80019b4:	f507 7302 	add.w	r3, r7, #520	; 0x208
 80019b8:	f5a3 73d6 	sub.w	r3, r3, #428	; 0x1ac
 80019bc:	f04f 7280 	mov.w	r2, #16777216	; 0x1000000
 80019c0:	601a      	str	r2, [r3, #0]
   __ASM volatile ("rbit %0, %1" : "=r" (result) : "r" (value) );
 80019c2:	f507 7302 	add.w	r3, r7, #520	; 0x208
 80019c6:	f5a3 73d6 	sub.w	r3, r3, #428	; 0x1ac
 80019ca:	681b      	ldr	r3, [r3, #0]
 80019cc:	fa93 f2a3 	rbit	r2, r3
 80019d0:	f507 7302 	add.w	r3, r7, #520	; 0x208
 80019d4:	f5a3 73d8 	sub.w	r3, r3, #432	; 0x1b0
 80019d8:	601a      	str	r2, [r3, #0]
  return result;
 80019da:	f507 7302 	add.w	r3, r7, #520	; 0x208
 80019de:	f5a3 73d8 	sub.w	r3, r3, #432	; 0x1b0
 80019e2:	681b      	ldr	r3, [r3, #0]
      /* Configure the main PLL clock source and multiplication factor. */
      __HAL_RCC_PLL_CONFIG(RCC_OscInitStruct->PLL.PLLSource,
                           RCC_OscInitStruct->PLL.PLLMUL);
#endif /* RCC_CFGR_PLLSRC_HSI_PREDIV */
        /* Enable the main PLL. */
        __HAL_RCC_PLL_ENABLE();
 80019e4:	fab3 f383 	clz	r3, r3
 80019e8:	b2db      	uxtb	r3, r3
 80019ea:	f103 5384 	add.w	r3, r3, #276824064	; 0x10800000
 80019ee:	f503 1384 	add.w	r3, r3, #1081344	; 0x108000
 80019f2:	009b      	lsls	r3, r3, #2
 80019f4:	461a      	mov	r2, r3
 80019f6:	2301      	movs	r3, #1
 80019f8:	6013      	str	r3, [r2, #0]
        
        /* Get Start Tick */
        tickstart = HAL_GetTick();
 80019fa:	f7fe fe9b 	bl	8000734 <HAL_GetTick>
 80019fe:	f8c7 0200 	str.w	r0, [r7, #512]	; 0x200
        
        /* Wait till PLL is ready */
        while(__HAL_RCC_GET_FLAG(RCC_FLAG_PLLRDY)  == RESET)
 8001a02:	e009      	b.n	8001a18 <HAL_RCC_OscConfig+0xdec>
        {
          if((HAL_GetTick() - tickstart ) > PLL_TIMEOUT_VALUE)
 8001a04:	f7fe fe96 	bl	8000734 <HAL_GetTick>
 8001a08:	4602      	mov	r2, r0
 8001a0a:	f8d7 3200 	ldr.w	r3, [r7, #512]	; 0x200
 8001a0e:	1ad3      	subs	r3, r2, r3
 8001a10:	2b02      	cmp	r3, #2
 8001a12:	d901      	bls.n	8001a18 <HAL_RCC_OscConfig+0xdec>
          {
            return HAL_TIMEOUT;
 8001a14:	2303      	movs	r3, #3
 8001a16:	e156      	b.n	8001cc6 <HAL_RCC_OscConfig+0x109a>
 8001a18:	f507 7302 	add.w	r3, r7, #520	; 0x208
 8001a1c:	f5a3 73da 	sub.w	r3, r3, #436	; 0x1b4
 8001a20:	f04f 7200 	mov.w	r2, #33554432	; 0x2000000
 8001a24:	601a      	str	r2, [r3, #0]
   __ASM volatile ("rbit %0, %1" : "=r" (result) : "r" (value) );
 8001a26:	f507 7302 	add.w	r3, r7, #520	; 0x208
 8001a2a:	f5a3 73da 	sub.w	r3, r3, #436	; 0x1b4
 8001a2e:	681b      	ldr	r3, [r3, #0]
 8001a30:	fa93 f2a3 	rbit	r2, r3
 8001a34:	f507 7302 	add.w	r3, r7, #520	; 0x208
 8001a38:	f5a3 73dc 	sub.w	r3, r3, #440	; 0x1b8
 8001a3c:	601a      	str	r2, [r3, #0]
  return result;
 8001a3e:	f507 7302 	add.w	r3, r7, #520	; 0x208
 8001a42:	f5a3 73dc 	sub.w	r3, r3, #440	; 0x1b8
 8001a46:	681b      	ldr	r3, [r3, #0]
        while(__HAL_RCC_GET_FLAG(RCC_FLAG_PLLRDY)  == RESET)
 8001a48:	fab3 f383 	clz	r3, r3
 8001a4c:	b2db      	uxtb	r3, r3
 8001a4e:	095b      	lsrs	r3, r3, #5
 8001a50:	b2db      	uxtb	r3, r3
 8001a52:	f043 0301 	orr.w	r3, r3, #1
 8001a56:	b2db      	uxtb	r3, r3
 8001a58:	2b01      	cmp	r3, #1
 8001a5a:	d105      	bne.n	8001a68 <HAL_RCC_OscConfig+0xe3c>
 8001a5c:	4b01      	ldr	r3, [pc, #4]	; (8001a64 <HAL_RCC_OscConfig+0xe38>)
 8001a5e:	681b      	ldr	r3, [r3, #0]
 8001a60:	e02a      	b.n	8001ab8 <HAL_RCC_OscConfig+0xe8c>
 8001a62:	bf00      	nop
 8001a64:	40021000 	.word	0x40021000
 8001a68:	f507 7302 	add.w	r3, r7, #520	; 0x208
 8001a6c:	f5a3 73de 	sub.w	r3, r3, #444	; 0x1bc
 8001a70:	f04f 7200 	mov.w	r2, #33554432	; 0x2000000
 8001a74:	601a      	str	r2, [r3, #0]
   __ASM volatile ("rbit %0, %1" : "=r" (result) : "r" (value) );
 8001a76:	f507 7302 	add.w	r3, r7, #520	; 0x208
 8001a7a:	f5a3 73de 	sub.w	r3, r3, #444	; 0x1bc
 8001a7e:	681b      	ldr	r3, [r3, #0]
 8001a80:	fa93 f2a3 	rbit	r2, r3
 8001a84:	f507 7302 	add.w	r3, r7, #520	; 0x208
 8001a88:	f5a3 73e0 	sub.w	r3, r3, #448	; 0x1c0
 8001a8c:	601a      	str	r2, [r3, #0]
 8001a8e:	f507 7302 	add.w	r3, r7, #520	; 0x208
 8001a92:	f5a3 73e2 	sub.w	r3, r3, #452	; 0x1c4
 8001a96:	f04f 7200 	mov.w	r2, #33554432	; 0x2000000
 8001a9a:	601a      	str	r2, [r3, #0]
 8001a9c:	f507 7302 	add.w	r3, r7, #520	; 0x208
 8001aa0:	f5a3 73e2 	sub.w	r3, r3, #452	; 0x1c4
 8001aa4:	681b      	ldr	r3, [r3, #0]
 8001aa6:	fa93 f2a3 	rbit	r2, r3
 8001aaa:	f507 7302 	add.w	r3, r7, #520	; 0x208
 8001aae:	f5a3 73e4 	sub.w	r3, r3, #456	; 0x1c8
 8001ab2:	601a      	str	r2, [r3, #0]
 8001ab4:	4b86      	ldr	r3, [pc, #536]	; (8001cd0 <HAL_RCC_OscConfig+0x10a4>)
 8001ab6:	6a5b      	ldr	r3, [r3, #36]	; 0x24
 8001ab8:	f507 7202 	add.w	r2, r7, #520	; 0x208
 8001abc:	f5a2 72e6 	sub.w	r2, r2, #460	; 0x1cc
 8001ac0:	f04f 7100 	mov.w	r1, #33554432	; 0x2000000
 8001ac4:	6011      	str	r1, [r2, #0]
 8001ac6:	f507 7202 	add.w	r2, r7, #520	; 0x208
 8001aca:	f5a2 72e6 	sub.w	r2, r2, #460	; 0x1cc
 8001ace:	6812      	ldr	r2, [r2, #0]
 8001ad0:	fa92 f1a2 	rbit	r1, r2
 8001ad4:	f507 7202 	add.w	r2, r7, #520	; 0x208
 8001ad8:	f5a2 72e8 	sub.w	r2, r2, #464	; 0x1d0
 8001adc:	6011      	str	r1, [r2, #0]
  return result;
 8001ade:	f507 7202 	add.w	r2, r7, #520	; 0x208
 8001ae2:	f5a2 72e8 	sub.w	r2, r2, #464	; 0x1d0
 8001ae6:	6812      	ldr	r2, [r2, #0]
 8001ae8:	fab2 f282 	clz	r2, r2
 8001aec:	b2d2      	uxtb	r2, r2
 8001aee:	f042 0220 	orr.w	r2, r2, #32
 8001af2:	b2d2      	uxtb	r2, r2
 8001af4:	f002 021f 	and.w	r2, r2, #31
 8001af8:	2101      	movs	r1, #1
 8001afa:	fa01 f202 	lsl.w	r2, r1, r2
 8001afe:	4013      	ands	r3, r2
 8001b00:	2b00      	cmp	r3, #0
 8001b02:	f43f af7f 	beq.w	8001a04 <HAL_RCC_OscConfig+0xdd8>
 8001b06:	e0dd      	b.n	8001cc4 <HAL_RCC_OscConfig+0x1098>
 8001b08:	f507 7302 	add.w	r3, r7, #520	; 0x208
 8001b0c:	f5a3 73ea 	sub.w	r3, r3, #468	; 0x1d4
 8001b10:	f04f 7280 	mov.w	r2, #16777216	; 0x1000000
 8001b14:	601a      	str	r2, [r3, #0]
   __ASM volatile ("rbit %0, %1" : "=r" (result) : "r" (value) );
 8001b16:	f507 7302 	add.w	r3, r7, #520	; 0x208
 8001b1a:	f5a3 73ea 	sub.w	r3, r3, #468	; 0x1d4
 8001b1e:	681b      	ldr	r3, [r3, #0]
 8001b20:	fa93 f2a3 	rbit	r2, r3
 8001b24:	f507 7302 	add.w	r3, r7, #520	; 0x208
 8001b28:	f5a3 73ec 	sub.w	r3, r3, #472	; 0x1d8
 8001b2c:	601a      	str	r2, [r3, #0]
  return result;
 8001b2e:	f507 7302 	add.w	r3, r7, #520	; 0x208
 8001b32:	f5a3 73ec 	sub.w	r3, r3, #472	; 0x1d8
 8001b36:	681b      	ldr	r3, [r3, #0]
        }
      }
      else
      {
        /* Disable the main PLL. */
        __HAL_RCC_PLL_DISABLE();
 8001b38:	fab3 f383 	clz	r3, r3
 8001b3c:	b2db      	uxtb	r3, r3
 8001b3e:	f103 5384 	add.w	r3, r3, #276824064	; 0x10800000
 8001b42:	f503 1384 	add.w	r3, r3, #1081344	; 0x108000
 8001b46:	009b      	lsls	r3, r3, #2
 8001b48:	461a      	mov	r2, r3
 8001b4a:	2300      	movs	r3, #0
 8001b4c:	6013      	str	r3, [r2, #0]
 
        /* Get Start Tick */
        tickstart = HAL_GetTick();
 8001b4e:	f7fe fdf1 	bl	8000734 <HAL_GetTick>
 8001b52:	f8c7 0200 	str.w	r0, [r7, #512]	; 0x200
        
        /* Wait till PLL is disabled */  
        while(__HAL_RCC_GET_FLAG(RCC_FLAG_PLLRDY)  != RESET)
 8001b56:	e009      	b.n	8001b6c <HAL_RCC_OscConfig+0xf40>
        {
          if((HAL_GetTick() - tickstart ) > PLL_TIMEOUT_VALUE)
 8001b58:	f7fe fdec 	bl	8000734 <HAL_GetTick>
 8001b5c:	4602      	mov	r2, r0
 8001b5e:	f8d7 3200 	ldr.w	r3, [r7, #512]	; 0x200
 8001b62:	1ad3      	subs	r3, r2, r3
 8001b64:	2b02      	cmp	r3, #2
 8001b66:	d901      	bls.n	8001b6c <HAL_RCC_OscConfig+0xf40>
          {
            return HAL_TIMEOUT;
 8001b68:	2303      	movs	r3, #3
 8001b6a:	e0ac      	b.n	8001cc6 <HAL_RCC_OscConfig+0x109a>
 8001b6c:	f507 7302 	add.w	r3, r7, #520	; 0x208
 8001b70:	f5a3 73ee 	sub.w	r3, r3, #476	; 0x1dc
 8001b74:	f04f 7200 	mov.w	r2, #33554432	; 0x2000000
 8001b78:	601a      	str	r2, [r3, #0]
   __ASM volatile ("rbit %0, %1" : "=r" (result) : "r" (value) );
 8001b7a:	f507 7302 	add.w	r3, r7, #520	; 0x208
 8001b7e:	f5a3 73ee 	sub.w	r3, r3, #476	; 0x1dc
 8001b82:	681b      	ldr	r3, [r3, #0]
 8001b84:	fa93 f2a3 	rbit	r2, r3
 8001b88:	f507 7302 	add.w	r3, r7, #520	; 0x208
 8001b8c:	f5a3 73f0 	sub.w	r3, r3, #480	; 0x1e0
 8001b90:	601a      	str	r2, [r3, #0]
  return result;
 8001b92:	f507 7302 	add.w	r3, r7, #520	; 0x208
 8001b96:	f5a3 73f0 	sub.w	r3, r3, #480	; 0x1e0
 8001b9a:	681b      	ldr	r3, [r3, #0]
        while(__HAL_RCC_GET_FLAG(RCC_FLAG_PLLRDY)  != RESET)
 8001b9c:	fab3 f383 	clz	r3, r3
 8001ba0:	b2db      	uxtb	r3, r3
 8001ba2:	095b      	lsrs	r3, r3, #5
 8001ba4:	b2db      	uxtb	r3, r3
 8001ba6:	f043 0301 	orr.w	r3, r3, #1
 8001baa:	b2db      	uxtb	r3, r3
 8001bac:	2b01      	cmp	r3, #1
 8001bae:	d102      	bne.n	8001bb6 <HAL_RCC_OscConfig+0xf8a>
 8001bb0:	4b47      	ldr	r3, [pc, #284]	; (8001cd0 <HAL_RCC_OscConfig+0x10a4>)
 8001bb2:	681b      	ldr	r3, [r3, #0]
 8001bb4:	e027      	b.n	8001c06 <HAL_RCC_OscConfig+0xfda>
 8001bb6:	f507 7302 	add.w	r3, r7, #520	; 0x208
 8001bba:	f5a3 73f2 	sub.w	r3, r3, #484	; 0x1e4
 8001bbe:	f04f 7200 	mov.w	r2, #33554432	; 0x2000000
 8001bc2:	601a      	str	r2, [r3, #0]
   __ASM volatile ("rbit %0, %1" : "=r" (result) : "r" (value) );
 8001bc4:	f507 7302 	add.w	r3, r7, #520	; 0x208
 8001bc8:	f5a3 73f2 	sub.w	r3, r3, #484	; 0x1e4
 8001bcc:	681b      	ldr	r3, [r3, #0]
 8001bce:	fa93 f2a3 	rbit	r2, r3
 8001bd2:	f507 7302 	add.w	r3, r7, #520	; 0x208
 8001bd6:	f5a3 73f4 	sub.w	r3, r3, #488	; 0x1e8
 8001bda:	601a      	str	r2, [r3, #0]
 8001bdc:	f507 7302 	add.w	r3, r7, #520	; 0x208
 8001be0:	f5a3 73f6 	sub.w	r3, r3, #492	; 0x1ec
 8001be4:	f04f 7200 	mov.w	r2, #33554432	; 0x2000000
 8001be8:	601a      	str	r2, [r3, #0]
 8001bea:	f507 7302 	add.w	r3, r7, #520	; 0x208
 8001bee:	f5a3 73f6 	sub.w	r3, r3, #492	; 0x1ec
 8001bf2:	681b      	ldr	r3, [r3, #0]
 8001bf4:	fa93 f2a3 	rbit	r2, r3
 8001bf8:	f507 7302 	add.w	r3, r7, #520	; 0x208
 8001bfc:	f5a3 73f8 	sub.w	r3, r3, #496	; 0x1f0
 8001c00:	601a      	str	r2, [r3, #0]
 8001c02:	4b33      	ldr	r3, [pc, #204]	; (8001cd0 <HAL_RCC_OscConfig+0x10a4>)
 8001c04:	6a5b      	ldr	r3, [r3, #36]	; 0x24
 8001c06:	f507 7202 	add.w	r2, r7, #520	; 0x208
 8001c0a:	f5a2 72fa 	sub.w	r2, r2, #500	; 0x1f4
 8001c0e:	f04f 7100 	mov.w	r1, #33554432	; 0x2000000
 8001c12:	6011      	str	r1, [r2, #0]
 8001c14:	f507 7202 	add.w	r2, r7, #520	; 0x208
 8001c18:	f5a2 72fa 	sub.w	r2, r2, #500	; 0x1f4
 8001c1c:	6812      	ldr	r2, [r2, #0]
 8001c1e:	fa92 f1a2 	rbit	r1, r2
 8001c22:	f507 7202 	add.w	r2, r7, #520	; 0x208
 8001c26:	f5a2 72fc 	sub.w	r2, r2, #504	; 0x1f8
 8001c2a:	6011      	str	r1, [r2, #0]
  return result;
 8001c2c:	f507 7202 	add.w	r2, r7, #520	; 0x208
 8001c30:	f5a2 72fc 	sub.w	r2, r2, #504	; 0x1f8
 8001c34:	6812      	ldr	r2, [r2, #0]
 8001c36:	fab2 f282 	clz	r2, r2
 8001c3a:	b2d2      	uxtb	r2, r2
 8001c3c:	f042 0220 	orr.w	r2, r2, #32
 8001c40:	b2d2      	uxtb	r2, r2
 8001c42:	f002 021f 	and.w	r2, r2, #31
 8001c46:	2101      	movs	r1, #1
 8001c48:	fa01 f202 	lsl.w	r2, r1, r2
 8001c4c:	4013      	ands	r3, r2
 8001c4e:	2b00      	cmp	r3, #0
 8001c50:	d182      	bne.n	8001b58 <HAL_RCC_OscConfig+0xf2c>
 8001c52:	e037      	b.n	8001cc4 <HAL_RCC_OscConfig+0x1098>
      }
    }
    else
    {
      /* Check if there is a request to disable the PLL used as System clock source */
      if((RCC_OscInitStruct->PLL.PLLState) == RCC_PLL_OFF)
 8001c54:	f507 7302 	add.w	r3, r7, #520	; 0x208
 8001c58:	f5a3 7301 	sub.w	r3, r3, #516	; 0x204
 8001c5c:	681b      	ldr	r3, [r3, #0]
 8001c5e:	699b      	ldr	r3, [r3, #24]
 8001c60:	2b01      	cmp	r3, #1
 8001c62:	d101      	bne.n	8001c68 <HAL_RCC_OscConfig+0x103c>
      {
        return HAL_ERROR;
 8001c64:	2301      	movs	r3, #1
 8001c66:	e02e      	b.n	8001cc6 <HAL_RCC_OscConfig+0x109a>
      }
      else
      {
        /* Do not return HAL_ERROR if request repeats the current configuration */
        pll_config = RCC->CFGR;
 8001c68:	4b19      	ldr	r3, [pc, #100]	; (8001cd0 <HAL_RCC_OscConfig+0x10a4>)
 8001c6a:	685b      	ldr	r3, [r3, #4]
 8001c6c:	f8c7 31fc 	str.w	r3, [r7, #508]	; 0x1fc
#if defined(RCC_CFGR_PLLSRC_HSI_PREDIV)
        pll_config2 = RCC->CFGR2;
 8001c70:	4b17      	ldr	r3, [pc, #92]	; (8001cd0 <HAL_RCC_OscConfig+0x10a4>)
 8001c72:	6adb      	ldr	r3, [r3, #44]	; 0x2c
 8001c74:	f8c7 31f8 	str.w	r3, [r7, #504]	; 0x1f8
        if((READ_BIT(pll_config, RCC_CFGR_PLLSRC)   != RCC_OscInitStruct->PLL.PLLSource) ||      
 8001c78:	f8d7 31fc 	ldr.w	r3, [r7, #508]	; 0x1fc
 8001c7c:	f403 32c0 	and.w	r2, r3, #98304	; 0x18000
 8001c80:	f507 7302 	add.w	r3, r7, #520	; 0x208
 8001c84:	f5a3 7301 	sub.w	r3, r3, #516	; 0x204
 8001c88:	681b      	ldr	r3, [r3, #0]
 8001c8a:	69db      	ldr	r3, [r3, #28]
 8001c8c:	429a      	cmp	r2, r3
 8001c8e:	d117      	bne.n	8001cc0 <HAL_RCC_OscConfig+0x1094>
           (READ_BIT(pll_config, RCC_CFGR_PLLMUL)   != RCC_OscInitStruct->PLL.PLLMUL)    ||      
 8001c90:	f8d7 31fc 	ldr.w	r3, [r7, #508]	; 0x1fc
 8001c94:	f403 1270 	and.w	r2, r3, #3932160	; 0x3c0000
 8001c98:	f507 7302 	add.w	r3, r7, #520	; 0x208
 8001c9c:	f5a3 7301 	sub.w	r3, r3, #516	; 0x204
 8001ca0:	681b      	ldr	r3, [r3, #0]
 8001ca2:	6a1b      	ldr	r3, [r3, #32]
        if((READ_BIT(pll_config, RCC_CFGR_PLLSRC)   != RCC_OscInitStruct->PLL.PLLSource) ||      
 8001ca4:	429a      	cmp	r2, r3
 8001ca6:	d10b      	bne.n	8001cc0 <HAL_RCC_OscConfig+0x1094>
           (READ_BIT(pll_config2, RCC_CFGR2_PREDIV)  != RCC_OscInitStruct->PLL.PREDIV))     
 8001ca8:	f8d7 31f8 	ldr.w	r3, [r7, #504]	; 0x1f8
 8001cac:	f003 020f 	and.w	r2, r3, #15
 8001cb0:	f507 7302 	add.w	r3, r7, #520	; 0x208
 8001cb4:	f5a3 7301 	sub.w	r3, r3, #516	; 0x204
 8001cb8:	681b      	ldr	r3, [r3, #0]
 8001cba:	6a5b      	ldr	r3, [r3, #36]	; 0x24
           (READ_BIT(pll_config, RCC_CFGR_PLLMUL)   != RCC_OscInitStruct->PLL.PLLMUL)    ||      
 8001cbc:	429a      	cmp	r2, r3
 8001cbe:	d001      	beq.n	8001cc4 <HAL_RCC_OscConfig+0x1098>
#else
        if((READ_BIT(pll_config, RCC_CFGR_PLLSRC)   != RCC_OscInitStruct->PLL.PLLSource) ||      
           (READ_BIT(pll_config, RCC_CFGR_PLLMUL)   != RCC_OscInitStruct->PLL.PLLMUL))
#endif
        {
          return HAL_ERROR;
 8001cc0:	2301      	movs	r3, #1
 8001cc2:	e000      	b.n	8001cc6 <HAL_RCC_OscConfig+0x109a>
        }
      }
    }
  }

  return HAL_OK;
 8001cc4:	2300      	movs	r3, #0
}
 8001cc6:	4618      	mov	r0, r3
 8001cc8:	f507 7702 	add.w	r7, r7, #520	; 0x208
 8001ccc:	46bd      	mov	sp, r7
 8001cce:	bd80      	pop	{r7, pc}
 8001cd0:	40021000 	.word	0x40021000

08001cd4 <HAL_RCC_ClockConfig>:
  *         You can use @ref HAL_RCC_GetClockConfig() function to know which clock is
  *         currently used as system clock source.
  * @retval HAL status
  */
HAL_StatusTypeDef HAL_RCC_ClockConfig(RCC_ClkInitTypeDef  *RCC_ClkInitStruct, uint32_t FLatency)
{
 8001cd4:	b580      	push	{r7, lr}
 8001cd6:	b09e      	sub	sp, #120	; 0x78
 8001cd8:	af00      	add	r7, sp, #0
 8001cda:	6078      	str	r0, [r7, #4]
 8001cdc:	6039      	str	r1, [r7, #0]
  uint32_t tickstart = 0U;
 8001cde:	2300      	movs	r3, #0
 8001ce0:	677b      	str	r3, [r7, #116]	; 0x74

  /* Check Null pointer */
  if(RCC_ClkInitStruct == NULL)
 8001ce2:	687b      	ldr	r3, [r7, #4]
 8001ce4:	2b00      	cmp	r3, #0
 8001ce6:	d101      	bne.n	8001cec <HAL_RCC_ClockConfig+0x18>
  {
    return HAL_ERROR;
 8001ce8:	2301      	movs	r3, #1
 8001cea:	e162      	b.n	8001fb2 <HAL_RCC_ClockConfig+0x2de>
  /* To correctly read data from FLASH memory, the number of wait states (LATENCY) 
  must be correctly programmed according to the frequency of the CPU clock 
    (HCLK) of the device. */

  /* Increasing the number of wait states because of higher CPU frequency */
  if(FLatency > __HAL_FLASH_GET_LATENCY())
 8001cec:	4b90      	ldr	r3, [pc, #576]	; (8001f30 <HAL_RCC_ClockConfig+0x25c>)
 8001cee:	681b      	ldr	r3, [r3, #0]
 8001cf0:	f003 0307 	and.w	r3, r3, #7
 8001cf4:	683a      	ldr	r2, [r7, #0]
 8001cf6:	429a      	cmp	r2, r3
 8001cf8:	d910      	bls.n	8001d1c <HAL_RCC_ClockConfig+0x48>
  {    
    /* Program the new number of wait states to the LATENCY bits in the FLASH_ACR register */
    __HAL_FLASH_SET_LATENCY(FLatency);
 8001cfa:	4b8d      	ldr	r3, [pc, #564]	; (8001f30 <HAL_RCC_ClockConfig+0x25c>)
 8001cfc:	681b      	ldr	r3, [r3, #0]
 8001cfe:	f023 0207 	bic.w	r2, r3, #7
 8001d02:	498b      	ldr	r1, [pc, #556]	; (8001f30 <HAL_RCC_ClockConfig+0x25c>)
 8001d04:	683b      	ldr	r3, [r7, #0]
 8001d06:	4313      	orrs	r3, r2
 8001d08:	600b      	str	r3, [r1, #0]
    
    /* Check that the new number of wait states is taken into account to access the Flash
    memory by reading the FLASH_ACR register */
    if(__HAL_FLASH_GET_LATENCY() != FLatency)
 8001d0a:	4b89      	ldr	r3, [pc, #548]	; (8001f30 <HAL_RCC_ClockConfig+0x25c>)
 8001d0c:	681b      	ldr	r3, [r3, #0]
 8001d0e:	f003 0307 	and.w	r3, r3, #7
 8001d12:	683a      	ldr	r2, [r7, #0]
 8001d14:	429a      	cmp	r2, r3
 8001d16:	d001      	beq.n	8001d1c <HAL_RCC_ClockConfig+0x48>
    {
      return HAL_ERROR;
 8001d18:	2301      	movs	r3, #1
 8001d1a:	e14a      	b.n	8001fb2 <HAL_RCC_ClockConfig+0x2de>
    }
  }

  /*-------------------------- HCLK Configuration --------------------------*/
  if(((RCC_ClkInitStruct->ClockType) & RCC_CLOCKTYPE_HCLK) == RCC_CLOCKTYPE_HCLK)
 8001d1c:	687b      	ldr	r3, [r7, #4]
 8001d1e:	681b      	ldr	r3, [r3, #0]
 8001d20:	f003 0302 	and.w	r3, r3, #2
 8001d24:	2b00      	cmp	r3, #0
 8001d26:	d008      	beq.n	8001d3a <HAL_RCC_ClockConfig+0x66>
  {
    assert_param(IS_RCC_HCLK(RCC_ClkInitStruct->AHBCLKDivider));
    MODIFY_REG(RCC->CFGR, RCC_CFGR_HPRE, RCC_ClkInitStruct->AHBCLKDivider);
 8001d28:	4b82      	ldr	r3, [pc, #520]	; (8001f34 <HAL_RCC_ClockConfig+0x260>)
 8001d2a:	685b      	ldr	r3, [r3, #4]
 8001d2c:	f023 02f0 	bic.w	r2, r3, #240	; 0xf0
 8001d30:	687b      	ldr	r3, [r7, #4]
 8001d32:	689b      	ldr	r3, [r3, #8]
 8001d34:	497f      	ldr	r1, [pc, #508]	; (8001f34 <HAL_RCC_ClockConfig+0x260>)
 8001d36:	4313      	orrs	r3, r2
 8001d38:	604b      	str	r3, [r1, #4]
  }

  /*------------------------- SYSCLK Configuration ---------------------------*/ 
  if(((RCC_ClkInitStruct->ClockType) & RCC_CLOCKTYPE_SYSCLK) == RCC_CLOCKTYPE_SYSCLK)
 8001d3a:	687b      	ldr	r3, [r7, #4]
 8001d3c:	681b      	ldr	r3, [r3, #0]
 8001d3e:	f003 0301 	and.w	r3, r3, #1
 8001d42:	2b00      	cmp	r3, #0
 8001d44:	f000 80dc 	beq.w	8001f00 <HAL_RCC_ClockConfig+0x22c>
  {    
    assert_param(IS_RCC_SYSCLKSOURCE(RCC_ClkInitStruct->SYSCLKSource));
    
    /* HSE is selected as System Clock Source */
    if(RCC_ClkInitStruct->SYSCLKSource == RCC_SYSCLKSOURCE_HSE)
 8001d48:	687b      	ldr	r3, [r7, #4]
 8001d4a:	685b      	ldr	r3, [r3, #4]
 8001d4c:	2b01      	cmp	r3, #1
 8001d4e:	d13c      	bne.n	8001dca <HAL_RCC_ClockConfig+0xf6>
 8001d50:	f44f 3300 	mov.w	r3, #131072	; 0x20000
 8001d54:	673b      	str	r3, [r7, #112]	; 0x70
   __ASM volatile ("rbit %0, %1" : "=r" (result) : "r" (value) );
 8001d56:	6f3b      	ldr	r3, [r7, #112]	; 0x70
 8001d58:	fa93 f3a3 	rbit	r3, r3
 8001d5c:	66fb      	str	r3, [r7, #108]	; 0x6c
  return result;
 8001d5e:	6efb      	ldr	r3, [r7, #108]	; 0x6c
    {
      /* Check the HSE ready flag */  
      if(__HAL_RCC_GET_FLAG(RCC_FLAG_HSERDY) == RESET)
 8001d60:	fab3 f383 	clz	r3, r3
 8001d64:	b2db      	uxtb	r3, r3
 8001d66:	095b      	lsrs	r3, r3, #5
 8001d68:	b2db      	uxtb	r3, r3
 8001d6a:	f043 0301 	orr.w	r3, r3, #1
 8001d6e:	b2db      	uxtb	r3, r3
 8001d70:	2b01      	cmp	r3, #1
 8001d72:	d102      	bne.n	8001d7a <HAL_RCC_ClockConfig+0xa6>
 8001d74:	4b6f      	ldr	r3, [pc, #444]	; (8001f34 <HAL_RCC_ClockConfig+0x260>)
 8001d76:	681b      	ldr	r3, [r3, #0]
 8001d78:	e00f      	b.n	8001d9a <HAL_RCC_ClockConfig+0xc6>
 8001d7a:	f44f 3300 	mov.w	r3, #131072	; 0x20000
 8001d7e:	66bb      	str	r3, [r7, #104]	; 0x68
   __ASM volatile ("rbit %0, %1" : "=r" (result) : "r" (value) );
 8001d80:	6ebb      	ldr	r3, [r7, #104]	; 0x68
 8001d82:	fa93 f3a3 	rbit	r3, r3
 8001d86:	667b      	str	r3, [r7, #100]	; 0x64
 8001d88:	f44f 3300 	mov.w	r3, #131072	; 0x20000
 8001d8c:	663b      	str	r3, [r7, #96]	; 0x60
 8001d8e:	6e3b      	ldr	r3, [r7, #96]	; 0x60
 8001d90:	fa93 f3a3 	rbit	r3, r3
 8001d94:	65fb      	str	r3, [r7, #92]	; 0x5c
 8001d96:	4b67      	ldr	r3, [pc, #412]	; (8001f34 <HAL_RCC_ClockConfig+0x260>)
 8001d98:	6a5b      	ldr	r3, [r3, #36]	; 0x24
 8001d9a:	f44f 3200 	mov.w	r2, #131072	; 0x20000
 8001d9e:	65ba      	str	r2, [r7, #88]	; 0x58
 8001da0:	6dba      	ldr	r2, [r7, #88]	; 0x58
 8001da2:	fa92 f2a2 	rbit	r2, r2
 8001da6:	657a      	str	r2, [r7, #84]	; 0x54
  return result;
 8001da8:	6d7a      	ldr	r2, [r7, #84]	; 0x54
 8001daa:	fab2 f282 	clz	r2, r2
 8001dae:	b2d2      	uxtb	r2, r2
 8001db0:	f042 0220 	orr.w	r2, r2, #32
 8001db4:	b2d2      	uxtb	r2, r2
 8001db6:	f002 021f 	and.w	r2, r2, #31
 8001dba:	2101      	movs	r1, #1
 8001dbc:	fa01 f202 	lsl.w	r2, r1, r2
 8001dc0:	4013      	ands	r3, r2
 8001dc2:	2b00      	cmp	r3, #0
 8001dc4:	d17b      	bne.n	8001ebe <HAL_RCC_ClockConfig+0x1ea>
      {
        return HAL_ERROR;
 8001dc6:	2301      	movs	r3, #1
 8001dc8:	e0f3      	b.n	8001fb2 <HAL_RCC_ClockConfig+0x2de>
      }
    }
    /* PLL is selected as System Clock Source */
    else if(RCC_ClkInitStruct->SYSCLKSource == RCC_SYSCLKSOURCE_PLLCLK)
 8001dca:	687b      	ldr	r3, [r7, #4]
 8001dcc:	685b      	ldr	r3, [r3, #4]
 8001dce:	2b02      	cmp	r3, #2
 8001dd0:	d13c      	bne.n	8001e4c <HAL_RCC_ClockConfig+0x178>
 8001dd2:	f04f 7300 	mov.w	r3, #33554432	; 0x2000000
 8001dd6:	653b      	str	r3, [r7, #80]	; 0x50
   __ASM volatile ("rbit %0, %1" : "=r" (result) : "r" (value) );
 8001dd8:	6d3b      	ldr	r3, [r7, #80]	; 0x50
 8001dda:	fa93 f3a3 	rbit	r3, r3
 8001dde:	64fb      	str	r3, [r7, #76]	; 0x4c
  return result;
 8001de0:	6cfb      	ldr	r3, [r7, #76]	; 0x4c
    {
      /* Check the PLL ready flag */  
      if(__HAL_RCC_GET_FLAG(RCC_FLAG_PLLRDY) == RESET)
 8001de2:	fab3 f383 	clz	r3, r3
 8001de6:	b2db      	uxtb	r3, r3
 8001de8:	095b      	lsrs	r3, r3, #5
 8001dea:	b2db      	uxtb	r3, r3
 8001dec:	f043 0301 	orr.w	r3, r3, #1
 8001df0:	b2db      	uxtb	r3, r3
 8001df2:	2b01      	cmp	r3, #1
 8001df4:	d102      	bne.n	8001dfc <HAL_RCC_ClockConfig+0x128>
 8001df6:	4b4f      	ldr	r3, [pc, #316]	; (8001f34 <HAL_RCC_ClockConfig+0x260>)
 8001df8:	681b      	ldr	r3, [r3, #0]
 8001dfa:	e00f      	b.n	8001e1c <HAL_RCC_ClockConfig+0x148>
 8001dfc:	f04f 7300 	mov.w	r3, #33554432	; 0x2000000
 8001e00:	64bb      	str	r3, [r7, #72]	; 0x48
   __ASM volatile ("rbit %0, %1" : "=r" (result) : "r" (value) );
 8001e02:	6cbb      	ldr	r3, [r7, #72]	; 0x48
 8001e04:	fa93 f3a3 	rbit	r3, r3
 8001e08:	647b      	str	r3, [r7, #68]	; 0x44
 8001e0a:	f04f 7300 	mov.w	r3, #33554432	; 0x2000000
 8001e0e:	643b      	str	r3, [r7, #64]	; 0x40
 8001e10:	6c3b      	ldr	r3, [r7, #64]	; 0x40
 8001e12:	fa93 f3a3 	rbit	r3, r3
 8001e16:	63fb      	str	r3, [r7, #60]	; 0x3c
 8001e18:	4b46      	ldr	r3, [pc, #280]	; (8001f34 <HAL_RCC_ClockConfig+0x260>)
 8001e1a:	6a5b      	ldr	r3, [r3, #36]	; 0x24
 8001e1c:	f04f 7200 	mov.w	r2, #33554432	; 0x2000000
 8001e20:	63ba      	str	r2, [r7, #56]	; 0x38
 8001e22:	6bba      	ldr	r2, [r7, #56]	; 0x38
 8001e24:	fa92 f2a2 	rbit	r2, r2
 8001e28:	637a      	str	r2, [r7, #52]	; 0x34
  return result;
 8001e2a:	6b7a      	ldr	r2, [r7, #52]	; 0x34
 8001e2c:	fab2 f282 	clz	r2, r2
 8001e30:	b2d2      	uxtb	r2, r2
 8001e32:	f042 0220 	orr.w	r2, r2, #32
 8001e36:	b2d2      	uxtb	r2, r2
 8001e38:	f002 021f 	and.w	r2, r2, #31
 8001e3c:	2101      	movs	r1, #1
 8001e3e:	fa01 f202 	lsl.w	r2, r1, r2
 8001e42:	4013      	ands	r3, r2
 8001e44:	2b00      	cmp	r3, #0
 8001e46:	d13a      	bne.n	8001ebe <HAL_RCC_ClockConfig+0x1ea>
      {
        return HAL_ERROR;
 8001e48:	2301      	movs	r3, #1
 8001e4a:	e0b2      	b.n	8001fb2 <HAL_RCC_ClockConfig+0x2de>
 8001e4c:	2302      	movs	r3, #2
 8001e4e:	633b      	str	r3, [r7, #48]	; 0x30
   __ASM volatile ("rbit %0, %1" : "=r" (result) : "r" (value) );
 8001e50:	6b3b      	ldr	r3, [r7, #48]	; 0x30
 8001e52:	fa93 f3a3 	rbit	r3, r3
 8001e56:	62fb      	str	r3, [r7, #44]	; 0x2c
  return result;
 8001e58:	6afb      	ldr	r3, [r7, #44]	; 0x2c
    }
    /* HSI is selected as System Clock Source */
    else
    {
      /* Check the HSI ready flag */  
      if(__HAL_RCC_GET_FLAG(RCC_FLAG_HSIRDY) == RESET)
 8001e5a:	fab3 f383 	clz	r3, r3
 8001e5e:	b2db      	uxtb	r3, r3
 8001e60:	095b      	lsrs	r3, r3, #5
 8001e62:	b2db      	uxtb	r3, r3
 8001e64:	f043 0301 	orr.w	r3, r3, #1
 8001e68:	b2db      	uxtb	r3, r3
 8001e6a:	2b01      	cmp	r3, #1
 8001e6c:	d102      	bne.n	8001e74 <HAL_RCC_ClockConfig+0x1a0>
 8001e6e:	4b31      	ldr	r3, [pc, #196]	; (8001f34 <HAL_RCC_ClockConfig+0x260>)
 8001e70:	681b      	ldr	r3, [r3, #0]
 8001e72:	e00d      	b.n	8001e90 <HAL_RCC_ClockConfig+0x1bc>
 8001e74:	2302      	movs	r3, #2
 8001e76:	62bb      	str	r3, [r7, #40]	; 0x28
   __ASM volatile ("rbit %0, %1" : "=r" (result) : "r" (value) );
 8001e78:	6abb      	ldr	r3, [r7, #40]	; 0x28
 8001e7a:	fa93 f3a3 	rbit	r3, r3
 8001e7e:	627b      	str	r3, [r7, #36]	; 0x24
 8001e80:	2302      	movs	r3, #2
 8001e82:	623b      	str	r3, [r7, #32]
 8001e84:	6a3b      	ldr	r3, [r7, #32]
 8001e86:	fa93 f3a3 	rbit	r3, r3
 8001e8a:	61fb      	str	r3, [r7, #28]
 8001e8c:	4b29      	ldr	r3, [pc, #164]	; (8001f34 <HAL_RCC_ClockConfig+0x260>)
 8001e8e:	6a5b      	ldr	r3, [r3, #36]	; 0x24
 8001e90:	2202      	movs	r2, #2
 8001e92:	61ba      	str	r2, [r7, #24]
 8001e94:	69ba      	ldr	r2, [r7, #24]
 8001e96:	fa92 f2a2 	rbit	r2, r2
 8001e9a:	617a      	str	r2, [r7, #20]
  return result;
 8001e9c:	697a      	ldr	r2, [r7, #20]
 8001e9e:	fab2 f282 	clz	r2, r2
 8001ea2:	b2d2      	uxtb	r2, r2
 8001ea4:	f042 0220 	orr.w	r2, r2, #32
 8001ea8:	b2d2      	uxtb	r2, r2
 8001eaa:	f002 021f 	and.w	r2, r2, #31
 8001eae:	2101      	movs	r1, #1
 8001eb0:	fa01 f202 	lsl.w	r2, r1, r2
 8001eb4:	4013      	ands	r3, r2
 8001eb6:	2b00      	cmp	r3, #0
 8001eb8:	d101      	bne.n	8001ebe <HAL_RCC_ClockConfig+0x1ea>
      {
        return HAL_ERROR;
 8001eba:	2301      	movs	r3, #1
 8001ebc:	e079      	b.n	8001fb2 <HAL_RCC_ClockConfig+0x2de>
      }
    }

    __HAL_RCC_SYSCLK_CONFIG(RCC_ClkInitStruct->SYSCLKSource);
 8001ebe:	4b1d      	ldr	r3, [pc, #116]	; (8001f34 <HAL_RCC_ClockConfig+0x260>)
 8001ec0:	685b      	ldr	r3, [r3, #4]
 8001ec2:	f023 0203 	bic.w	r2, r3, #3
 8001ec6:	687b      	ldr	r3, [r7, #4]
 8001ec8:	685b      	ldr	r3, [r3, #4]
 8001eca:	491a      	ldr	r1, [pc, #104]	; (8001f34 <HAL_RCC_ClockConfig+0x260>)
 8001ecc:	4313      	orrs	r3, r2
 8001ece:	604b      	str	r3, [r1, #4]

    /* Get Start Tick */
    tickstart = HAL_GetTick();
 8001ed0:	f7fe fc30 	bl	8000734 <HAL_GetTick>
 8001ed4:	6778      	str	r0, [r7, #116]	; 0x74
    
    while (__HAL_RCC_GET_SYSCLK_SOURCE() != (RCC_ClkInitStruct->SYSCLKSource << RCC_CFGR_SWS_Pos))
 8001ed6:	e00a      	b.n	8001eee <HAL_RCC_ClockConfig+0x21a>
    {
      if ((HAL_GetTick() - tickstart) > CLOCKSWITCH_TIMEOUT_VALUE)
 8001ed8:	f7fe fc2c 	bl	8000734 <HAL_GetTick>
 8001edc:	4602      	mov	r2, r0
 8001ede:	6f7b      	ldr	r3, [r7, #116]	; 0x74
 8001ee0:	1ad3      	subs	r3, r2, r3
 8001ee2:	f241 3288 	movw	r2, #5000	; 0x1388
 8001ee6:	4293      	cmp	r3, r2
 8001ee8:	d901      	bls.n	8001eee <HAL_RCC_ClockConfig+0x21a>
      {
        return HAL_TIMEOUT;
 8001eea:	2303      	movs	r3, #3
 8001eec:	e061      	b.n	8001fb2 <HAL_RCC_ClockConfig+0x2de>
    while (__HAL_RCC_GET_SYSCLK_SOURCE() != (RCC_ClkInitStruct->SYSCLKSource << RCC_CFGR_SWS_Pos))
 8001eee:	4b11      	ldr	r3, [pc, #68]	; (8001f34 <HAL_RCC_ClockConfig+0x260>)
 8001ef0:	685b      	ldr	r3, [r3, #4]
 8001ef2:	f003 020c 	and.w	r2, r3, #12
 8001ef6:	687b      	ldr	r3, [r7, #4]
 8001ef8:	685b      	ldr	r3, [r3, #4]
 8001efa:	009b      	lsls	r3, r3, #2
 8001efc:	429a      	cmp	r2, r3
 8001efe:	d1eb      	bne.n	8001ed8 <HAL_RCC_ClockConfig+0x204>
      }
    }
  }
  /* Decreasing the number of wait states because of lower CPU frequency */
  if(FLatency < __HAL_FLASH_GET_LATENCY())
 8001f00:	4b0b      	ldr	r3, [pc, #44]	; (8001f30 <HAL_RCC_ClockConfig+0x25c>)
 8001f02:	681b      	ldr	r3, [r3, #0]
 8001f04:	f003 0307 	and.w	r3, r3, #7
 8001f08:	683a      	ldr	r2, [r7, #0]
 8001f0a:	429a      	cmp	r2, r3
 8001f0c:	d214      	bcs.n	8001f38 <HAL_RCC_ClockConfig+0x264>
  {    
    /* Program the new number of wait states to the LATENCY bits in the FLASH_ACR register */
    __HAL_FLASH_SET_LATENCY(FLatency);
 8001f0e:	4b08      	ldr	r3, [pc, #32]	; (8001f30 <HAL_RCC_ClockConfig+0x25c>)
 8001f10:	681b      	ldr	r3, [r3, #0]
 8001f12:	f023 0207 	bic.w	r2, r3, #7
 8001f16:	4906      	ldr	r1, [pc, #24]	; (8001f30 <HAL_RCC_ClockConfig+0x25c>)
 8001f18:	683b      	ldr	r3, [r7, #0]
 8001f1a:	4313      	orrs	r3, r2
 8001f1c:	600b      	str	r3, [r1, #0]
    
    /* Check that the new number of wait states is taken into account to access the Flash
    memory by reading the FLASH_ACR register */
    if(__HAL_FLASH_GET_LATENCY() != FLatency)
 8001f1e:	4b04      	ldr	r3, [pc, #16]	; (8001f30 <HAL_RCC_ClockConfig+0x25c>)
 8001f20:	681b      	ldr	r3, [r3, #0]
 8001f22:	f003 0307 	and.w	r3, r3, #7
 8001f26:	683a      	ldr	r2, [r7, #0]
 8001f28:	429a      	cmp	r2, r3
 8001f2a:	d005      	beq.n	8001f38 <HAL_RCC_ClockConfig+0x264>
    {
      return HAL_ERROR;
 8001f2c:	2301      	movs	r3, #1
 8001f2e:	e040      	b.n	8001fb2 <HAL_RCC_ClockConfig+0x2de>
 8001f30:	40022000 	.word	0x40022000
 8001f34:	40021000 	.word	0x40021000
    }
  }    

  /*-------------------------- PCLK1 Configuration ---------------------------*/ 
  if(((RCC_ClkInitStruct->ClockType) & RCC_CLOCKTYPE_PCLK1) == RCC_CLOCKTYPE_PCLK1)
 8001f38:	687b      	ldr	r3, [r7, #4]
 8001f3a:	681b      	ldr	r3, [r3, #0]
 8001f3c:	f003 0304 	and.w	r3, r3, #4
 8001f40:	2b00      	cmp	r3, #0
 8001f42:	d008      	beq.n	8001f56 <HAL_RCC_ClockConfig+0x282>
  {
    assert_param(IS_RCC_PCLK(RCC_ClkInitStruct->APB1CLKDivider));
    MODIFY_REG(RCC->CFGR, RCC_CFGR_PPRE1, RCC_ClkInitStruct->APB1CLKDivider);
 8001f44:	4b1d      	ldr	r3, [pc, #116]	; (8001fbc <HAL_RCC_ClockConfig+0x2e8>)
 8001f46:	685b      	ldr	r3, [r3, #4]
 8001f48:	f423 62e0 	bic.w	r2, r3, #1792	; 0x700
 8001f4c:	687b      	ldr	r3, [r7, #4]
 8001f4e:	68db      	ldr	r3, [r3, #12]
 8001f50:	491a      	ldr	r1, [pc, #104]	; (8001fbc <HAL_RCC_ClockConfig+0x2e8>)
 8001f52:	4313      	orrs	r3, r2
 8001f54:	604b      	str	r3, [r1, #4]
  }
  
  /*-------------------------- PCLK2 Configuration ---------------------------*/ 
  if(((RCC_ClkInitStruct->ClockType) & RCC_CLOCKTYPE_PCLK2) == RCC_CLOCKTYPE_PCLK2)
 8001f56:	687b      	ldr	r3, [r7, #4]
 8001f58:	681b      	ldr	r3, [r3, #0]
 8001f5a:	f003 0308 	and.w	r3, r3, #8
 8001f5e:	2b00      	cmp	r3, #0
 8001f60:	d009      	beq.n	8001f76 <HAL_RCC_ClockConfig+0x2a2>
  {
    assert_param(IS_RCC_PCLK(RCC_ClkInitStruct->APB2CLKDivider));
    MODIFY_REG(RCC->CFGR, RCC_CFGR_PPRE2, ((RCC_ClkInitStruct->APB2CLKDivider) << 3U));
 8001f62:	4b16      	ldr	r3, [pc, #88]	; (8001fbc <HAL_RCC_ClockConfig+0x2e8>)
 8001f64:	685b      	ldr	r3, [r3, #4]
 8001f66:	f423 5260 	bic.w	r2, r3, #14336	; 0x3800
 8001f6a:	687b      	ldr	r3, [r7, #4]
 8001f6c:	691b      	ldr	r3, [r3, #16]
 8001f6e:	00db      	lsls	r3, r3, #3
 8001f70:	4912      	ldr	r1, [pc, #72]	; (8001fbc <HAL_RCC_ClockConfig+0x2e8>)
 8001f72:	4313      	orrs	r3, r2
 8001f74:	604b      	str	r3, [r1, #4]
  }
 
  /* Update the SystemCoreClock global variable */
  SystemCoreClock = HAL_RCC_GetSysClockFreq() >> AHBPrescTable[(RCC->CFGR & RCC_CFGR_HPRE)>> RCC_CFGR_HPRE_BITNUMBER];
 8001f76:	f000 f829 	bl	8001fcc <HAL_RCC_GetSysClockFreq>
 8001f7a:	4601      	mov	r1, r0
 8001f7c:	4b0f      	ldr	r3, [pc, #60]	; (8001fbc <HAL_RCC_ClockConfig+0x2e8>)
 8001f7e:	685b      	ldr	r3, [r3, #4]
 8001f80:	f003 03f0 	and.w	r3, r3, #240	; 0xf0
 8001f84:	22f0      	movs	r2, #240	; 0xf0
 8001f86:	613a      	str	r2, [r7, #16]
   __ASM volatile ("rbit %0, %1" : "=r" (result) : "r" (value) );
 8001f88:	693a      	ldr	r2, [r7, #16]
 8001f8a:	fa92 f2a2 	rbit	r2, r2
 8001f8e:	60fa      	str	r2, [r7, #12]
  return result;
 8001f90:	68fa      	ldr	r2, [r7, #12]
 8001f92:	fab2 f282 	clz	r2, r2
 8001f96:	b2d2      	uxtb	r2, r2
 8001f98:	40d3      	lsrs	r3, r2
 8001f9a:	4a09      	ldr	r2, [pc, #36]	; (8001fc0 <HAL_RCC_ClockConfig+0x2ec>)
 8001f9c:	5cd3      	ldrb	r3, [r2, r3]
 8001f9e:	fa21 f303 	lsr.w	r3, r1, r3
 8001fa2:	4a08      	ldr	r2, [pc, #32]	; (8001fc4 <HAL_RCC_ClockConfig+0x2f0>)
 8001fa4:	6013      	str	r3, [r2, #0]

  /* Configure the source of time base considering new system clocks settings*/
  HAL_InitTick (uwTickPrio);
 8001fa6:	4b08      	ldr	r3, [pc, #32]	; (8001fc8 <HAL_RCC_ClockConfig+0x2f4>)
 8001fa8:	681b      	ldr	r3, [r3, #0]
 8001faa:	4618      	mov	r0, r3
 8001fac:	f7fe fb7e 	bl	80006ac <HAL_InitTick>
  
  return HAL_OK;
 8001fb0:	2300      	movs	r3, #0
}
 8001fb2:	4618      	mov	r0, r3
 8001fb4:	3778      	adds	r7, #120	; 0x78
 8001fb6:	46bd      	mov	sp, r7
 8001fb8:	bd80      	pop	{r7, pc}
 8001fba:	bf00      	nop
 8001fbc:	40021000 	.word	0x40021000
 8001fc0:	08002110 	.word	0x08002110
 8001fc4:	20000004 	.word	0x20000004
 8001fc8:	20000008 	.word	0x20000008

08001fcc <HAL_RCC_GetSysClockFreq>:
  *         right SYSCLK value. Otherwise, any configuration based on this function will be incorrect.
  *         
  * @retval SYSCLK frequency
  */
uint32_t HAL_RCC_GetSysClockFreq(void)
{
 8001fcc:	b480      	push	{r7}
 8001fce:	b08b      	sub	sp, #44	; 0x2c
 8001fd0:	af00      	add	r7, sp, #0
  uint32_t tmpreg = 0U, prediv = 0U, pllclk = 0U, pllmul = 0U;
 8001fd2:	2300      	movs	r3, #0
 8001fd4:	61fb      	str	r3, [r7, #28]
 8001fd6:	2300      	movs	r3, #0
 8001fd8:	61bb      	str	r3, [r7, #24]
 8001fda:	2300      	movs	r3, #0
 8001fdc:	627b      	str	r3, [r7, #36]	; 0x24
 8001fde:	2300      	movs	r3, #0
 8001fe0:	617b      	str	r3, [r7, #20]
  uint32_t sysclockfreq = 0U;
 8001fe2:	2300      	movs	r3, #0
 8001fe4:	623b      	str	r3, [r7, #32]
  
  tmpreg = RCC->CFGR;
 8001fe6:	4b2a      	ldr	r3, [pc, #168]	; (8002090 <HAL_RCC_GetSysClockFreq+0xc4>)
 8001fe8:	685b      	ldr	r3, [r3, #4]
 8001fea:	61fb      	str	r3, [r7, #28]
  
  /* Get SYSCLK source -------------------------------------------------------*/
  switch (tmpreg & RCC_CFGR_SWS)
 8001fec:	69fb      	ldr	r3, [r7, #28]
 8001fee:	f003 030c 	and.w	r3, r3, #12
 8001ff2:	2b04      	cmp	r3, #4
 8001ff4:	d002      	beq.n	8001ffc <HAL_RCC_GetSysClockFreq+0x30>
 8001ff6:	2b08      	cmp	r3, #8
 8001ff8:	d003      	beq.n	8002002 <HAL_RCC_GetSysClockFreq+0x36>
 8001ffa:	e03f      	b.n	800207c <HAL_RCC_GetSysClockFreq+0xb0>
  {
    case RCC_SYSCLKSOURCE_STATUS_HSE:  /* HSE used as system clock */
    {
      sysclockfreq = HSE_VALUE;
 8001ffc:	4b25      	ldr	r3, [pc, #148]	; (8002094 <HAL_RCC_GetSysClockFreq+0xc8>)
 8001ffe:	623b      	str	r3, [r7, #32]
      break;
 8002000:	e03f      	b.n	8002082 <HAL_RCC_GetSysClockFreq+0xb6>
    }
    case RCC_SYSCLKSOURCE_STATUS_PLLCLK:  /* PLL used as system clock */
    {
      pllmul = aPLLMULFactorTable[(uint32_t)(tmpreg & RCC_CFGR_PLLMUL) >> POSITION_VAL(RCC_CFGR_PLLMUL)];
 8002002:	69fb      	ldr	r3, [r7, #28]
 8002004:	f403 1370 	and.w	r3, r3, #3932160	; 0x3c0000
 8002008:	f44f 1270 	mov.w	r2, #3932160	; 0x3c0000
 800200c:	60ba      	str	r2, [r7, #8]
   __ASM volatile ("rbit %0, %1" : "=r" (result) : "r" (value) );
 800200e:	68ba      	ldr	r2, [r7, #8]
 8002010:	fa92 f2a2 	rbit	r2, r2
 8002014:	607a      	str	r2, [r7, #4]
  return result;
 8002016:	687a      	ldr	r2, [r7, #4]
 8002018:	fab2 f282 	clz	r2, r2
 800201c:	b2d2      	uxtb	r2, r2
 800201e:	40d3      	lsrs	r3, r2
 8002020:	4a1d      	ldr	r2, [pc, #116]	; (8002098 <HAL_RCC_GetSysClockFreq+0xcc>)
 8002022:	5cd3      	ldrb	r3, [r2, r3]
 8002024:	617b      	str	r3, [r7, #20]
      prediv = aPredivFactorTable[(uint32_t)(RCC->CFGR2 & RCC_CFGR2_PREDIV) >> POSITION_VAL(RCC_CFGR2_PREDIV)];
 8002026:	4b1a      	ldr	r3, [pc, #104]	; (8002090 <HAL_RCC_GetSysClockFreq+0xc4>)
 8002028:	6adb      	ldr	r3, [r3, #44]	; 0x2c
 800202a:	f003 030f 	and.w	r3, r3, #15
 800202e:	220f      	movs	r2, #15
 8002030:	613a      	str	r2, [r7, #16]
   __ASM volatile ("rbit %0, %1" : "=r" (result) : "r" (value) );
 8002032:	693a      	ldr	r2, [r7, #16]
 8002034:	fa92 f2a2 	rbit	r2, r2
 8002038:	60fa      	str	r2, [r7, #12]
  return result;
 800203a:	68fa      	ldr	r2, [r7, #12]
 800203c:	fab2 f282 	clz	r2, r2
 8002040:	b2d2      	uxtb	r2, r2
 8002042:	40d3      	lsrs	r3, r2
 8002044:	4a15      	ldr	r2, [pc, #84]	; (800209c <HAL_RCC_GetSysClockFreq+0xd0>)
 8002046:	5cd3      	ldrb	r3, [r2, r3]
 8002048:	61bb      	str	r3, [r7, #24]
      {
        /* HSI used as PLL clock source : PLLCLK = HSI/2 * PLLMUL */
        pllclk = (uint32_t)((uint64_t) (HSI_VALUE >> 1U) * ((uint64_t) pllmul));
      }
#else
      if ((tmpreg & RCC_CFGR_PLLSRC_HSE_PREDIV) == RCC_CFGR_PLLSRC_HSE_PREDIV)
 800204a:	69fb      	ldr	r3, [r7, #28]
 800204c:	f403 3380 	and.w	r3, r3, #65536	; 0x10000
 8002050:	2b00      	cmp	r3, #0
 8002052:	d008      	beq.n	8002066 <HAL_RCC_GetSysClockFreq+0x9a>
      {
        /* HSE used as PLL clock source : PLLCLK = HSE/PREDIV * PLLMUL */
        pllclk = (uint32_t)((uint64_t) HSE_VALUE / (uint64_t) (prediv)) * ((uint64_t) pllmul);
 8002054:	4a0f      	ldr	r2, [pc, #60]	; (8002094 <HAL_RCC_GetSysClockFreq+0xc8>)
 8002056:	69bb      	ldr	r3, [r7, #24]
 8002058:	fbb2 f2f3 	udiv	r2, r2, r3
 800205c:	697b      	ldr	r3, [r7, #20]
 800205e:	fb02 f303 	mul.w	r3, r2, r3
 8002062:	627b      	str	r3, [r7, #36]	; 0x24
 8002064:	e007      	b.n	8002076 <HAL_RCC_GetSysClockFreq+0xaa>
      }
      else
      {
        /* HSI used as PLL clock source : PLLCLK = HSI/PREDIV * PLLMUL */
        pllclk = (uint32_t)((uint64_t) HSI_VALUE / (uint64_t) (prediv)) * ((uint64_t) pllmul);
 8002066:	4a0b      	ldr	r2, [pc, #44]	; (8002094 <HAL_RCC_GetSysClockFreq+0xc8>)
 8002068:	69bb      	ldr	r3, [r7, #24]
 800206a:	fbb2 f2f3 	udiv	r2, r2, r3
 800206e:	697b      	ldr	r3, [r7, #20]
 8002070:	fb02 f303 	mul.w	r3, r2, r3
 8002074:	627b      	str	r3, [r7, #36]	; 0x24
      }
#endif /* RCC_CFGR_PLLSRC_HSI_DIV2 */
      sysclockfreq = pllclk;
 8002076:	6a7b      	ldr	r3, [r7, #36]	; 0x24
 8002078:	623b      	str	r3, [r7, #32]
      break;
 800207a:	e002      	b.n	8002082 <HAL_RCC_GetSysClockFreq+0xb6>
    }
    case RCC_SYSCLKSOURCE_STATUS_HSI:  /* HSI used as system clock source */
    default: /* HSI used as system clock */
    {
      sysclockfreq = HSI_VALUE;
 800207c:	4b05      	ldr	r3, [pc, #20]	; (8002094 <HAL_RCC_GetSysClockFreq+0xc8>)
 800207e:	623b      	str	r3, [r7, #32]
      break;
 8002080:	bf00      	nop
    }
  }
  return sysclockfreq;
 8002082:	6a3b      	ldr	r3, [r7, #32]
}
 8002084:	4618      	mov	r0, r3
 8002086:	372c      	adds	r7, #44	; 0x2c
 8002088:	46bd      	mov	sp, r7
 800208a:	f85d 7b04 	ldr.w	r7, [sp], #4
 800208e:	4770      	bx	lr
 8002090:	40021000 	.word	0x40021000
 8002094:	007a1200 	.word	0x007a1200
 8002098:	08002120 	.word	0x08002120
 800209c:	08002130 	.word	0x08002130

080020a0 <memset>:
 80020a0:	4402      	add	r2, r0
 80020a2:	4603      	mov	r3, r0
 80020a4:	4293      	cmp	r3, r2
 80020a6:	d100      	bne.n	80020aa <memset+0xa>
 80020a8:	4770      	bx	lr
 80020aa:	f803 1b01 	strb.w	r1, [r3], #1
 80020ae:	e7f9      	b.n	80020a4 <memset+0x4>

080020b0 <__libc_init_array>:
 80020b0:	b570      	push	{r4, r5, r6, lr}
 80020b2:	4d0d      	ldr	r5, [pc, #52]	; (80020e8 <__libc_init_array+0x38>)
 80020b4:	4c0d      	ldr	r4, [pc, #52]	; (80020ec <__libc_init_array+0x3c>)
 80020b6:	1b64      	subs	r4, r4, r5
 80020b8:	10a4      	asrs	r4, r4, #2
 80020ba:	2600      	movs	r6, #0
 80020bc:	42a6      	cmp	r6, r4
 80020be:	d109      	bne.n	80020d4 <__libc_init_array+0x24>
 80020c0:	4d0b      	ldr	r5, [pc, #44]	; (80020f0 <__libc_init_array+0x40>)
 80020c2:	4c0c      	ldr	r4, [pc, #48]	; (80020f4 <__libc_init_array+0x44>)
 80020c4:	f000 f818 	bl	80020f8 <_init>
 80020c8:	1b64      	subs	r4, r4, r5
 80020ca:	10a4      	asrs	r4, r4, #2
 80020cc:	2600      	movs	r6, #0
 80020ce:	42a6      	cmp	r6, r4
 80020d0:	d105      	bne.n	80020de <__libc_init_array+0x2e>
 80020d2:	bd70      	pop	{r4, r5, r6, pc}
 80020d4:	f855 3b04 	ldr.w	r3, [r5], #4
 80020d8:	4798      	blx	r3
 80020da:	3601      	adds	r6, #1
 80020dc:	e7ee      	b.n	80020bc <__libc_init_array+0xc>
 80020de:	f855 3b04 	ldr.w	r3, [r5], #4
 80020e2:	4798      	blx	r3
 80020e4:	3601      	adds	r6, #1
 80020e6:	e7f2      	b.n	80020ce <__libc_init_array+0x1e>
 80020e8:	08002140 	.word	0x08002140
 80020ec:	08002140 	.word	0x08002140
 80020f0:	08002140 	.word	0x08002140
 80020f4:	08002144 	.word	0x08002144

080020f8 <_init>:
 80020f8:	b5f8      	push	{r3, r4, r5, r6, r7, lr}
 80020fa:	bf00      	nop
 80020fc:	bcf8      	pop	{r3, r4, r5, r6, r7}
 80020fe:	bc08      	pop	{r3}
 8002100:	469e      	mov	lr, r3
 8002102:	4770      	bx	lr

08002104 <_fini>:
 8002104:	b5f8      	push	{r3, r4, r5, r6, r7, lr}
 8002106:	bf00      	nop
 8002108:	bcf8      	pop	{r3, r4, r5, r6, r7}
 800210a:	bc08      	pop	{r3}
 800210c:	469e      	mov	lr, r3
 800210e:	4770      	bx	lr
