
SYSTICK_A_assignment.elf:     file format elf32-littlearm

Sections:
Idx Name          Size      VMA       LMA       File off  Algn
  0 .isr_vector   00000194  08000000  08000000  00010000  2**0
                  CONTENTS, ALLOC, LOAD, READONLY, DATA
  1 .text         00001b0c  08000194  08000194  00010194  2**2
                  CONTENTS, ALLOC, LOAD, READONLY, CODE
  2 .rodata       00000030  08001ca0  08001ca0  00011ca0  2**2
                  CONTENTS, ALLOC, LOAD, READONLY, DATA
  3 .ARM.extab    00000000  08001cd0  08001cd0  0002000c  2**0
                  CONTENTS
  4 .ARM          00000000  08001cd0  08001cd0  0002000c  2**0
                  CONTENTS
  5 .preinit_array 00000000  08001cd0  08001cd0  0002000c  2**0
                  CONTENTS, ALLOC, LOAD, DATA
  6 .init_array   00000004  08001cd0  08001cd0  00011cd0  2**2
                  CONTENTS, ALLOC, LOAD, DATA
  7 .fini_array   00000004  08001cd4  08001cd4  00011cd4  2**2
                  CONTENTS, ALLOC, LOAD, DATA
  8 .data         0000000c  20000000  08001cd8  00020000  2**2
                  CONTENTS, ALLOC, LOAD, DATA
  9 .ccmram       00000000  10000000  10000000  0002000c  2**0
                  CONTENTS
 10 .bss          00000020  2000000c  2000000c  0002000c  2**2
                  ALLOC
 11 ._user_heap_stack 00000604  2000002c  2000002c  0002000c  2**0
                  ALLOC
 12 .ARM.attributes 00000030  00000000  00000000  0002000c  2**0
                  CONTENTS, READONLY
 13 .comment      00000043  00000000  00000000  0002003c  2**0
                  CONTENTS, READONLY
 14 .debug_info   00003b41  00000000  00000000  0002007f  2**0
                  CONTENTS, READONLY, DEBUGGING, OCTETS
 15 .debug_abbrev 00000cf7  00000000  00000000  00023bc0  2**0
                  CONTENTS, READONLY, DEBUGGING, OCTETS
 16 .debug_aranges 000003b0  00000000  00000000  000248b8  2**3
                  CONTENTS, READONLY, DEBUGGING, OCTETS
 17 .debug_rnglists 000002a4  00000000  00000000  00024c68  2**0
                  CONTENTS, READONLY, DEBUGGING, OCTETS
 18 .debug_macro  0001e096  00000000  00000000  00024f0c  2**0
                  CONTENTS, READONLY, DEBUGGING, OCTETS
 19 .debug_line   00004946  00000000  00000000  00042fa2  2**0
                  CONTENTS, READONLY, DEBUGGING, OCTETS
 20 .debug_str    000b6c15  00000000  00000000  000478e8  2**0
                  CONTENTS, READONLY, DEBUGGING, OCTETS
 21 .debug_frame  00000d04  00000000  00000000  000fe500  2**2
                  CONTENTS, READONLY, DEBUGGING, OCTETS
 22 .debug_line_str 0000005e  00000000  00000000  000ff204  2**0
                  CONTENTS, READONLY, DEBUGGING, OCTETS

Disassembly of section .text:

08000194 <__do_global_dtors_aux>:
 8000194:	b510      	push	{r4, lr}
 8000196:	4c05      	ldr	r4, [pc, #20]	; (80001ac <__do_global_dtors_aux+0x18>)
 8000198:	7823      	ldrb	r3, [r4, #0]
 800019a:	b933      	cbnz	r3, 80001aa <__do_global_dtors_aux+0x16>
 800019c:	4b04      	ldr	r3, [pc, #16]	; (80001b0 <__do_global_dtors_aux+0x1c>)
 800019e:	b113      	cbz	r3, 80001a6 <__do_global_dtors_aux+0x12>
 80001a0:	4804      	ldr	r0, [pc, #16]	; (80001b4 <__do_global_dtors_aux+0x20>)
 80001a2:	f3af 8000 	nop.w
 80001a6:	2301      	movs	r3, #1
 80001a8:	7023      	strb	r3, [r4, #0]
 80001aa:	bd10      	pop	{r4, pc}
 80001ac:	2000000c 	.word	0x2000000c
 80001b0:	00000000 	.word	0x00000000
 80001b4:	08001c88 	.word	0x08001c88

080001b8 <frame_dummy>:
 80001b8:	b508      	push	{r3, lr}
 80001ba:	4b03      	ldr	r3, [pc, #12]	; (80001c8 <frame_dummy+0x10>)
 80001bc:	b11b      	cbz	r3, 80001c6 <frame_dummy+0xe>
 80001be:	4903      	ldr	r1, [pc, #12]	; (80001cc <frame_dummy+0x14>)
 80001c0:	4803      	ldr	r0, [pc, #12]	; (80001d0 <frame_dummy+0x18>)
 80001c2:	f3af 8000 	nop.w
 80001c6:	bd08      	pop	{r3, pc}
 80001c8:	00000000 	.word	0x00000000
 80001cc:	20000010 	.word	0x20000010
 80001d0:	08001c88 	.word	0x08001c88

080001d4 <__NVIC_SetPriority>:
  \param [in]      IRQn  Interrupt number.
  \param [in]  priority  Priority to set.
  \note    The priority cannot be set for every processor exception.
 */
__STATIC_INLINE void __NVIC_SetPriority(IRQn_Type IRQn, uint32_t priority)
{
 80001d4:	b480      	push	{r7}
 80001d6:	b083      	sub	sp, #12
 80001d8:	af00      	add	r7, sp, #0
 80001da:	4603      	mov	r3, r0
 80001dc:	6039      	str	r1, [r7, #0]
 80001de:	71fb      	strb	r3, [r7, #7]
  if ((int32_t)(IRQn) >= 0)
 80001e0:	f997 3007 	ldrsb.w	r3, [r7, #7]
 80001e4:	2b00      	cmp	r3, #0
 80001e6:	db0a      	blt.n	80001fe <__NVIC_SetPriority+0x2a>
  {
    NVIC->IP[((uint32_t)IRQn)]               = (uint8_t)((priority << (8U - __NVIC_PRIO_BITS)) & (uint32_t)0xFFUL);
 80001e8:	683b      	ldr	r3, [r7, #0]
 80001ea:	b2da      	uxtb	r2, r3
 80001ec:	490c      	ldr	r1, [pc, #48]	; (8000220 <__NVIC_SetPriority+0x4c>)
 80001ee:	f997 3007 	ldrsb.w	r3, [r7, #7]
 80001f2:	0112      	lsls	r2, r2, #4
 80001f4:	b2d2      	uxtb	r2, r2
 80001f6:	440b      	add	r3, r1
 80001f8:	f883 2300 	strb.w	r2, [r3, #768]	; 0x300
  }
  else
  {
    SCB->SHP[(((uint32_t)IRQn) & 0xFUL)-4UL] = (uint8_t)((priority << (8U - __NVIC_PRIO_BITS)) & (uint32_t)0xFFUL);
  }
}
 80001fc:	e00a      	b.n	8000214 <__NVIC_SetPriority+0x40>
    SCB->SHP[(((uint32_t)IRQn) & 0xFUL)-4UL] = (uint8_t)((priority << (8U - __NVIC_PRIO_BITS)) & (uint32_t)0xFFUL);
 80001fe:	683b      	ldr	r3, [r7, #0]
 8000200:	b2da      	uxtb	r2, r3
 8000202:	4908      	ldr	r1, [pc, #32]	; (8000224 <__NVIC_SetPriority+0x50>)
 8000204:	79fb      	ldrb	r3, [r7, #7]
 8000206:	f003 030f 	and.w	r3, r3, #15
 800020a:	3b04      	subs	r3, #4
 800020c:	0112      	lsls	r2, r2, #4
 800020e:	b2d2      	uxtb	r2, r2
 8000210:	440b      	add	r3, r1
 8000212:	761a      	strb	r2, [r3, #24]
}
 8000214:	bf00      	nop
 8000216:	370c      	adds	r7, #12
 8000218:	46bd      	mov	sp, r7
 800021a:	f85d 7b04 	ldr.w	r7, [sp], #4
 800021e:	4770      	bx	lr
 8000220:	e000e100 	.word	0xe000e100
 8000224:	e000ed00 	.word	0xe000ed00

08000228 <main>:

/**
 * @brief  The application entry point.
 * @retval int
 */
int main(void) {
 8000228:	b580      	push	{r7, lr}
 800022a:	af00      	add	r7, sp, #0
	/* USER CODE END 1 */

	/* MCU Configuration--------------------------------------------------------*/

	/* Reset of all peripherals, Initializes the Flash interface and the Systick. */
	HAL_Init();
 800022c:	f000 f97a 	bl	8000524 <HAL_Init>
	/* USER CODE BEGIN Init */

	/* USER CODE END Init */

	/* Configure the system clock */
	SystemClock_Config();
 8000230:	f000 f814 	bl	800025c <SystemClock_Config>

	/* USER CODE BEGIN SysInit */
	SysTick_Init();
 8000234:	f000 f854 	bl	80002e0 <SysTick_Init>
	SysTick_LED();
 8000238:	f000 f872 	bl	8000320 <SysTick_LED>
	/* USER CODE END SysInit */

	/* Initialize all configured peripherals */
	/* USER CODE BEGIN 2 */
	ResetLED(GPIOB, GPIO_PIN_1);
 800023c:	2102      	movs	r1, #2
 800023e:	4806      	ldr	r0, [pc, #24]	; (8000258 <main+0x30>)
 8000240:	f000 f8c0 	bl	80003c4 <ResetLED>

	/* Infinite loop */
	/* USER CODE BEGIN WHILE */
	while (1) {
		/* USER CODE END WHILE */
		BlinkLED(GPIOB, GPIO_PIN_1);
 8000244:	2102      	movs	r1, #2
 8000246:	4804      	ldr	r0, [pc, #16]	; (8000258 <main+0x30>)
 8000248:	f000 f8cb 	bl	80003e2 <BlinkLED>
		DelayMS(3000);
 800024c:	f640 30b8 	movw	r0, #3000	; 0xbb8
 8000250:	f000 f89c 	bl	800038c <DelayMS>
		BlinkLED(GPIOB, GPIO_PIN_1);
 8000254:	e7f6      	b.n	8000244 <main+0x1c>
 8000256:	bf00      	nop
 8000258:	48000400 	.word	0x48000400

0800025c <SystemClock_Config>:

/**
 * @brief System Clock Configuration
 * @retval None
 */
void SystemClock_Config(void) {
 800025c:	b580      	push	{r7, lr}
 800025e:	b090      	sub	sp, #64	; 0x40
 8000260:	af00      	add	r7, sp, #0
	RCC_OscInitTypeDef RCC_OscInitStruct = { 0 };
 8000262:	f107 0318 	add.w	r3, r7, #24
 8000266:	2228      	movs	r2, #40	; 0x28
 8000268:	2100      	movs	r1, #0
 800026a:	4618      	mov	r0, r3
 800026c:	f001 fce0 	bl	8001c30 <memset>
	RCC_ClkInitTypeDef RCC_ClkInitStruct = { 0 };
 8000270:	1d3b      	adds	r3, r7, #4
 8000272:	2200      	movs	r2, #0
 8000274:	601a      	str	r2, [r3, #0]
 8000276:	605a      	str	r2, [r3, #4]
 8000278:	609a      	str	r2, [r3, #8]
 800027a:	60da      	str	r2, [r3, #12]
 800027c:	611a      	str	r2, [r3, #16]

	/** Initializes the RCC Oscillators according to the specified parameters
	 * in the RCC_OscInitTypeDef structure.
	 */
	RCC_OscInitStruct.OscillatorType = RCC_OSCILLATORTYPE_HSI;
 800027e:	2302      	movs	r3, #2
 8000280:	61bb      	str	r3, [r7, #24]
	RCC_OscInitStruct.HSIState = RCC_HSI_ON;
 8000282:	2301      	movs	r3, #1
 8000284:	627b      	str	r3, [r7, #36]	; 0x24
	RCC_OscInitStruct.HSICalibrationValue = RCC_HSICALIBRATION_DEFAULT;
 8000286:	2310      	movs	r3, #16
 8000288:	62bb      	str	r3, [r7, #40]	; 0x28
	RCC_OscInitStruct.PLL.PLLState = RCC_PLL_ON;
 800028a:	2302      	movs	r3, #2
 800028c:	633b      	str	r3, [r7, #48]	; 0x30
	RCC_OscInitStruct.PLL.PLLSource = RCC_PLLSOURCE_HSI;
 800028e:	f44f 4300 	mov.w	r3, #32768	; 0x8000
 8000292:	637b      	str	r3, [r7, #52]	; 0x34
	RCC_OscInitStruct.PLL.PLLMUL = RCC_PLL_MUL2;
 8000294:	2300      	movs	r3, #0
 8000296:	63bb      	str	r3, [r7, #56]	; 0x38
	RCC_OscInitStruct.PLL.PREDIV = RCC_PREDIV_DIV1;
 8000298:	2300      	movs	r3, #0
 800029a:	63fb      	str	r3, [r7, #60]	; 0x3c
	if (HAL_RCC_OscConfig(&RCC_OscInitStruct) != HAL_OK) {
 800029c:	f107 0318 	add.w	r3, r7, #24
 80002a0:	4618      	mov	r0, r3
 80002a2:	f000 fa8b 	bl	80007bc <HAL_RCC_OscConfig>
 80002a6:	4603      	mov	r3, r0
 80002a8:	2b00      	cmp	r3, #0
 80002aa:	d001      	beq.n	80002b0 <SystemClock_Config+0x54>
		Error_Handler();
 80002ac:	f000 f8ab 	bl	8000406 <Error_Handler>
	}

	/** Initializes the CPU, AHB and APB buses clocks
	 */
	RCC_ClkInitStruct.ClockType = RCC_CLOCKTYPE_HCLK | RCC_CLOCKTYPE_SYSCLK
 80002b0:	230f      	movs	r3, #15
 80002b2:	607b      	str	r3, [r7, #4]
			| RCC_CLOCKTYPE_PCLK1 | RCC_CLOCKTYPE_PCLK2;
	RCC_ClkInitStruct.SYSCLKSource = RCC_SYSCLKSOURCE_PLLCLK;
 80002b4:	2302      	movs	r3, #2
 80002b6:	60bb      	str	r3, [r7, #8]
	RCC_ClkInitStruct.AHBCLKDivider = RCC_SYSCLK_DIV1;
 80002b8:	2300      	movs	r3, #0
 80002ba:	60fb      	str	r3, [r7, #12]
	RCC_ClkInitStruct.APB1CLKDivider = RCC_HCLK_DIV1;
 80002bc:	2300      	movs	r3, #0
 80002be:	613b      	str	r3, [r7, #16]
	RCC_ClkInitStruct.APB2CLKDivider = RCC_HCLK_DIV1;
 80002c0:	2300      	movs	r3, #0
 80002c2:	617b      	str	r3, [r7, #20]

	if (HAL_RCC_ClockConfig(&RCC_ClkInitStruct, FLASH_LATENCY_0) != HAL_OK) {
 80002c4:	1d3b      	adds	r3, r7, #4
 80002c6:	2100      	movs	r1, #0
 80002c8:	4618      	mov	r0, r3
 80002ca:	f001 facb 	bl	8001864 <HAL_RCC_ClockConfig>
 80002ce:	4603      	mov	r3, r0
 80002d0:	2b00      	cmp	r3, #0
 80002d2:	d001      	beq.n	80002d8 <SystemClock_Config+0x7c>
		Error_Handler();
 80002d4:	f000 f897 	bl	8000406 <Error_Handler>
	}
}
 80002d8:	bf00      	nop
 80002da:	3740      	adds	r7, #64	; 0x40
 80002dc:	46bd      	mov	sp, r7
 80002de:	bd80      	pop	{r7, pc}

080002e0 <SysTick_Init>:
 *
 * @note   This function is a SysTick initialization to setup the timer register of the
 * 		   ARM4 controller of the Nucleo board.
 *
 */
void SysTick_Init() {
 80002e0:	b580      	push	{r7, lr}
 80002e2:	af00      	add	r7, sp, #0
	//resets SysTick control pin to 0.
	SysTick->CTRL = ~SysTick_CTRL_ENABLE_Msk;
 80002e4:	4b0d      	ldr	r3, [pc, #52]	; (800031c <SysTick_Init+0x3c>)
 80002e6:	f06f 0201 	mvn.w	r2, #1
 80002ea:	601a      	str	r2, [r3, #0]
	//sets up the reload register.
	SysTick->LOAD = 16000 - 1;
 80002ec:	4b0b      	ldr	r3, [pc, #44]	; (800031c <SysTick_Init+0x3c>)
 80002ee:	f643 627f 	movw	r2, #15999	; 0x3e7f
 80002f2:	605a      	str	r2, [r3, #4]
	//sets the interrupt priority of SysTick to the least urgent.
	NVIC_SetPriority(SysTick_IRQn, (1 << __NVIC_PRIO_BITS) - 1);
 80002f4:	210f      	movs	r1, #15
 80002f6:	f04f 30ff 	mov.w	r0, #4294967295
 80002fa:	f7ff ff6b 	bl	80001d4 <__NVIC_SetPriority>
	//resets the SysTick counter value.
	SysTick->VAL &= ~SysTick_VAL_CURRENT_Msk;
 80002fe:	4b07      	ldr	r3, [pc, #28]	; (800031c <SysTick_Init+0x3c>)
 8000300:	689b      	ldr	r3, [r3, #8]
 8000302:	4a06      	ldr	r2, [pc, #24]	; (800031c <SysTick_Init+0x3c>)
 8000304:	f003 437f 	and.w	r3, r3, #4278190080	; 0xff000000
 8000308:	6093      	str	r3, [r2, #8]
	//sets the SysTick control pin to use the clock source and enables it.
	SysTick->CTRL |= (SysTick_CTRL_CLKSOURCE_Msk | SysTick_CTRL_ENABLE_Msk);
 800030a:	4b04      	ldr	r3, [pc, #16]	; (800031c <SysTick_Init+0x3c>)
 800030c:	681b      	ldr	r3, [r3, #0]
 800030e:	4a03      	ldr	r2, [pc, #12]	; (800031c <SysTick_Init+0x3c>)
 8000310:	f043 0305 	orr.w	r3, r3, #5
 8000314:	6013      	str	r3, [r2, #0]
}
 8000316:	bf00      	nop
 8000318:	bd80      	pop	{r7, pc}
 800031a:	bf00      	nop
 800031c:	e000e010 	.word	0xe000e010

08000320 <SysTick_LED>:
 *
 * @note   This function is a GPIO setup function to set the output pin of the Nucleo
 *         board. In this case, the GPIO pin in setup is PB1
 *
 */
void SysTick_LED() {
 8000320:	b480      	push	{r7}
 8000322:	af00      	add	r7, sp, #0
	//enables the GPIOB clock register.
	RCC->AHBENR |= RCC_AHBENR_GPIOBEN;
 8000324:	4b17      	ldr	r3, [pc, #92]	; (8000384 <SysTick_LED+0x64>)
 8000326:	695b      	ldr	r3, [r3, #20]
 8000328:	4a16      	ldr	r2, [pc, #88]	; (8000384 <SysTick_LED+0x64>)
 800032a:	f443 2380 	orr.w	r3, r3, #262144	; 0x40000
 800032e:	6153      	str	r3, [r2, #20]

	//resets the LED's pin MODE to 0.
	GPIOB->MODER &= ~GPIO_MODER_MODER1;
 8000330:	4b15      	ldr	r3, [pc, #84]	; (8000388 <SysTick_LED+0x68>)
 8000332:	681b      	ldr	r3, [r3, #0]
 8000334:	4a14      	ldr	r2, [pc, #80]	; (8000388 <SysTick_LED+0x68>)
 8000336:	f023 030c 	bic.w	r3, r3, #12
 800033a:	6013      	str	r3, [r2, #0]
	//resets the LED's pin OTYPE to 0 as push-pull.
	GPIOB->OTYPER &= ~GPIO_OTYPER_OT_1;
 800033c:	4b12      	ldr	r3, [pc, #72]	; (8000388 <SysTick_LED+0x68>)
 800033e:	685b      	ldr	r3, [r3, #4]
 8000340:	4a11      	ldr	r2, [pc, #68]	; (8000388 <SysTick_LED+0x68>)
 8000342:	f023 0302 	bic.w	r3, r3, #2
 8000346:	6053      	str	r3, [r2, #4]
	//resets the LED's pin SPEED.
	GPIOB->OSPEEDR &= ~GPIO_OSPEEDER_OSPEEDR1;
 8000348:	4b0f      	ldr	r3, [pc, #60]	; (8000388 <SysTick_LED+0x68>)
 800034a:	689b      	ldr	r3, [r3, #8]
 800034c:	4a0e      	ldr	r2, [pc, #56]	; (8000388 <SysTick_LED+0x68>)
 800034e:	f023 030c 	bic.w	r3, r3, #12
 8000352:	6093      	str	r3, [r2, #8]
	//sets the LED's pin MODE to 01 as an output.
	GPIOB->MODER |= GPIO_MODER_MODER1_0;
 8000354:	4b0c      	ldr	r3, [pc, #48]	; (8000388 <SysTick_LED+0x68>)
 8000356:	681b      	ldr	r3, [r3, #0]
 8000358:	4a0b      	ldr	r2, [pc, #44]	; (8000388 <SysTick_LED+0x68>)
 800035a:	f043 0304 	orr.w	r3, r3, #4
 800035e:	6013      	str	r3, [r2, #0]
	//sets the LED's pin SPEED to medium.
	GPIOB->OSPEEDR |= GPIO_OSPEEDER_OSPEEDR1_0;
 8000360:	4b09      	ldr	r3, [pc, #36]	; (8000388 <SysTick_LED+0x68>)
 8000362:	689b      	ldr	r3, [r3, #8]
 8000364:	4a08      	ldr	r2, [pc, #32]	; (8000388 <SysTick_LED+0x68>)
 8000366:	f043 0304 	orr.w	r3, r3, #4
 800036a:	6093      	str	r3, [r2, #8]
	//resets the LED's PUPD register.(since internal pull-up & pull-down is not used)
	GPIOB->PUPDR &= ~GPIO_PUPDR_PUPDR1;
 800036c:	4b06      	ldr	r3, [pc, #24]	; (8000388 <SysTick_LED+0x68>)
 800036e:	68db      	ldr	r3, [r3, #12]
 8000370:	4a05      	ldr	r2, [pc, #20]	; (8000388 <SysTick_LED+0x68>)
 8000372:	f023 030c 	bic.w	r3, r3, #12
 8000376:	60d3      	str	r3, [r2, #12]
}
 8000378:	bf00      	nop
 800037a:	46bd      	mov	sp, r7
 800037c:	f85d 7b04 	ldr.w	r7, [sp], #4
 8000380:	4770      	bx	lr
 8000382:	bf00      	nop
 8000384:	40021000 	.word	0x40021000
 8000388:	48000400 	.word	0x48000400

0800038c <DelayMS>:
 * @note   This function is a SysTick control to count down an input timer value
 * 		   in a ARM register as the timer delay.
 *
 * @param  delay_n the input delay value.
 */
void DelayMS(uint32_t delay_n) {
 800038c:	b480      	push	{r7}
 800038e:	b085      	sub	sp, #20
 8000390:	af00      	add	r7, sp, #0
 8000392:	6078      	str	r0, [r7, #4]
	int counter = 0;
 8000394:	2300      	movs	r3, #0
 8000396:	60fb      	str	r3, [r7, #12]
	while (counter < delay_n) {
 8000398:	e007      	b.n	80003aa <DelayMS+0x1e>
		if ((SysTick->CTRL >> 16) == 1) {
 800039a:	4b09      	ldr	r3, [pc, #36]	; (80003c0 <DelayMS+0x34>)
 800039c:	681b      	ldr	r3, [r3, #0]
 800039e:	0c1b      	lsrs	r3, r3, #16
 80003a0:	2b01      	cmp	r3, #1
 80003a2:	d102      	bne.n	80003aa <DelayMS+0x1e>
			counter++;
 80003a4:	68fb      	ldr	r3, [r7, #12]
 80003a6:	3301      	adds	r3, #1
 80003a8:	60fb      	str	r3, [r7, #12]
	while (counter < delay_n) {
 80003aa:	68fb      	ldr	r3, [r7, #12]
 80003ac:	687a      	ldr	r2, [r7, #4]
 80003ae:	429a      	cmp	r2, r3
 80003b0:	d8f3      	bhi.n	800039a <DelayMS+0xe>
		}
	}
}
 80003b2:	bf00      	nop
 80003b4:	bf00      	nop
 80003b6:	3714      	adds	r7, #20
 80003b8:	46bd      	mov	sp, r7
 80003ba:	f85d 7b04 	ldr.w	r7, [sp], #4
 80003be:	4770      	bx	lr
 80003c0:	e000e010 	.word	0xe000e010

080003c4 <ResetLED>:
 * 		   PIN_POS to be 0 or LOW.
 *
 * @param  PORT is the GPIO peripheral for STM32F3 family (between A to F).
 * @param  PIN_POS specifies the output port bit to be written.
 */
void ResetLED(GPIO_TypeDef *PORT, uint16_t PIN_POS) {
 80003c4:	b480      	push	{r7}
 80003c6:	b083      	sub	sp, #12
 80003c8:	af00      	add	r7, sp, #0
 80003ca:	6078      	str	r0, [r7, #4]
 80003cc:	460b      	mov	r3, r1
 80003ce:	807b      	strh	r3, [r7, #2]
	PORT->BRR = (uint32_t) PIN_POS;
 80003d0:	887a      	ldrh	r2, [r7, #2]
 80003d2:	687b      	ldr	r3, [r7, #4]
 80003d4:	629a      	str	r2, [r3, #40]	; 0x28
}
 80003d6:	bf00      	nop
 80003d8:	370c      	adds	r7, #12
 80003da:	46bd      	mov	sp, r7
 80003dc:	f85d 7b04 	ldr.w	r7, [sp], #4
 80003e0:	4770      	bx	lr

080003e2 <BlinkLED>:
 * 		   LED Pin.
 *
 * @param  PORT is the GPIO peripheral for STM32F3 family (between A to F).
 * @param  PIN_POS specifies the output port bit to be written.
 */
void BlinkLED(GPIO_TypeDef *PORT, uint16_t PIN_POS) {
 80003e2:	b480      	push	{r7}
 80003e4:	b083      	sub	sp, #12
 80003e6:	af00      	add	r7, sp, #0
 80003e8:	6078      	str	r0, [r7, #4]
 80003ea:	460b      	mov	r3, r1
 80003ec:	807b      	strh	r3, [r7, #2]
	PORT->ODR ^= PIN_POS;
 80003ee:	687b      	ldr	r3, [r7, #4]
 80003f0:	695a      	ldr	r2, [r3, #20]
 80003f2:	887b      	ldrh	r3, [r7, #2]
 80003f4:	405a      	eors	r2, r3
 80003f6:	687b      	ldr	r3, [r7, #4]
 80003f8:	615a      	str	r2, [r3, #20]
}
 80003fa:	bf00      	nop
 80003fc:	370c      	adds	r7, #12
 80003fe:	46bd      	mov	sp, r7
 8000400:	f85d 7b04 	ldr.w	r7, [sp], #4
 8000404:	4770      	bx	lr

08000406 <Error_Handler>:

/**
 * @brief  This function is executed in case of error occurrence.
 * @retval None
 */
void Error_Handler(void) {
 8000406:	b480      	push	{r7}
 8000408:	af00      	add	r7, sp, #0
  \details Disables IRQ interrupts by setting the I-bit in the CPSR.
           Can only be executed in Privileged modes.
 */
__STATIC_FORCEINLINE void __disable_irq(void)
{
  __ASM volatile ("cpsid i" : : : "memory");
 800040a:	b672      	cpsid	i
}
 800040c:	bf00      	nop
	/* USER CODE BEGIN Error_Handler_Debug */
	/* User can add his own implementation to report the HAL error return state */
	__disable_irq();
	while (1) {
 800040e:	e7fe      	b.n	800040e <Error_Handler+0x8>

08000410 <HAL_MspInit>:
/* USER CODE END 0 */
/**
  * Initializes the Global MSP.
  */
void HAL_MspInit(void)
{
 8000410:	b480      	push	{r7}
 8000412:	b083      	sub	sp, #12
 8000414:	af00      	add	r7, sp, #0
  /* USER CODE BEGIN MspInit 0 */

  /* USER CODE END MspInit 0 */

  __HAL_RCC_SYSCFG_CLK_ENABLE();
 8000416:	4b0f      	ldr	r3, [pc, #60]	; (8000454 <HAL_MspInit+0x44>)
 8000418:	699b      	ldr	r3, [r3, #24]
 800041a:	4a0e      	ldr	r2, [pc, #56]	; (8000454 <HAL_MspInit+0x44>)
 800041c:	f043 0301 	orr.w	r3, r3, #1
 8000420:	6193      	str	r3, [r2, #24]
 8000422:	4b0c      	ldr	r3, [pc, #48]	; (8000454 <HAL_MspInit+0x44>)
 8000424:	699b      	ldr	r3, [r3, #24]
 8000426:	f003 0301 	and.w	r3, r3, #1
 800042a:	607b      	str	r3, [r7, #4]
 800042c:	687b      	ldr	r3, [r7, #4]
  __HAL_RCC_PWR_CLK_ENABLE();
 800042e:	4b09      	ldr	r3, [pc, #36]	; (8000454 <HAL_MspInit+0x44>)
 8000430:	69db      	ldr	r3, [r3, #28]
 8000432:	4a08      	ldr	r2, [pc, #32]	; (8000454 <HAL_MspInit+0x44>)
 8000434:	f043 5380 	orr.w	r3, r3, #268435456	; 0x10000000
 8000438:	61d3      	str	r3, [r2, #28]
 800043a:	4b06      	ldr	r3, [pc, #24]	; (8000454 <HAL_MspInit+0x44>)
 800043c:	69db      	ldr	r3, [r3, #28]
 800043e:	f003 5380 	and.w	r3, r3, #268435456	; 0x10000000
 8000442:	603b      	str	r3, [r7, #0]
 8000444:	683b      	ldr	r3, [r7, #0]
  /* System interrupt init*/

  /* USER CODE BEGIN MspInit 1 */

  /* USER CODE END MspInit 1 */
}
 8000446:	bf00      	nop
 8000448:	370c      	adds	r7, #12
 800044a:	46bd      	mov	sp, r7
 800044c:	f85d 7b04 	ldr.w	r7, [sp], #4
 8000450:	4770      	bx	lr
 8000452:	bf00      	nop
 8000454:	40021000 	.word	0x40021000

08000458 <NMI_Handler>:
/******************************************************************************/
/**
  * @brief This function handles Non maskable interrupt.
  */
void NMI_Handler(void)
{
 8000458:	b480      	push	{r7}
 800045a:	af00      	add	r7, sp, #0
  /* USER CODE BEGIN NonMaskableInt_IRQn 0 */

  /* USER CODE END NonMaskableInt_IRQn 0 */
  /* USER CODE BEGIN NonMaskableInt_IRQn 1 */
  while (1)
 800045c:	e7fe      	b.n	800045c <NMI_Handler+0x4>

0800045e <HardFault_Handler>:

/**
  * @brief This function handles Hard fault interrupt.
  */
void HardFault_Handler(void)
{
 800045e:	b480      	push	{r7}
 8000460:	af00      	add	r7, sp, #0
  /* USER CODE BEGIN HardFault_IRQn 0 */

  /* USER CODE END HardFault_IRQn 0 */
  while (1)
 8000462:	e7fe      	b.n	8000462 <HardFault_Handler+0x4>

08000464 <MemManage_Handler>:

/**
  * @brief This function handles Memory management fault.
  */
void MemManage_Handler(void)
{
 8000464:	b480      	push	{r7}
 8000466:	af00      	add	r7, sp, #0
  /* USER CODE BEGIN MemoryManagement_IRQn 0 */

  /* USER CODE END MemoryManagement_IRQn 0 */
  while (1)
 8000468:	e7fe      	b.n	8000468 <MemManage_Handler+0x4>

0800046a <BusFault_Handler>:

/**
  * @brief This function handles Pre-fetch fault, memory access fault.
  */
void BusFault_Handler(void)
{
 800046a:	b480      	push	{r7}
 800046c:	af00      	add	r7, sp, #0
  /* USER CODE BEGIN BusFault_IRQn 0 */

  /* USER CODE END BusFault_IRQn 0 */
  while (1)
 800046e:	e7fe      	b.n	800046e <BusFault_Handler+0x4>

08000470 <UsageFault_Handler>:

/**
  * @brief This function handles Undefined instruction or illegal state.
  */
void UsageFault_Handler(void)
{
 8000470:	b480      	push	{r7}
 8000472:	af00      	add	r7, sp, #0
  /* USER CODE BEGIN UsageFault_IRQn 0 */

  /* USER CODE END UsageFault_IRQn 0 */
  while (1)
 8000474:	e7fe      	b.n	8000474 <UsageFault_Handler+0x4>

08000476 <SVC_Handler>:

/**
  * @brief This function handles System service call via SWI instruction.
  */
void SVC_Handler(void)
{
 8000476:	b480      	push	{r7}
 8000478:	af00      	add	r7, sp, #0

  /* USER CODE END SVCall_IRQn 0 */
  /* USER CODE BEGIN SVCall_IRQn 1 */

  /* USER CODE END SVCall_IRQn 1 */
}
 800047a:	bf00      	nop
 800047c:	46bd      	mov	sp, r7
 800047e:	f85d 7b04 	ldr.w	r7, [sp], #4
 8000482:	4770      	bx	lr

08000484 <DebugMon_Handler>:

/**
  * @brief This function handles Debug monitor.
  */
void DebugMon_Handler(void)
{
 8000484:	b480      	push	{r7}
 8000486:	af00      	add	r7, sp, #0

  /* USER CODE END DebugMonitor_IRQn 0 */
  /* USER CODE BEGIN DebugMonitor_IRQn 1 */

  /* USER CODE END DebugMonitor_IRQn 1 */
}
 8000488:	bf00      	nop
 800048a:	46bd      	mov	sp, r7
 800048c:	f85d 7b04 	ldr.w	r7, [sp], #4
 8000490:	4770      	bx	lr

08000492 <PendSV_Handler>:

/**
  * @brief This function handles Pendable request for system service.
  */
void PendSV_Handler(void)
{
 8000492:	b480      	push	{r7}
 8000494:	af00      	add	r7, sp, #0

  /* USER CODE END PendSV_IRQn 0 */
  /* USER CODE BEGIN PendSV_IRQn 1 */

  /* USER CODE END PendSV_IRQn 1 */
}
 8000496:	bf00      	nop
 8000498:	46bd      	mov	sp, r7
 800049a:	f85d 7b04 	ldr.w	r7, [sp], #4
 800049e:	4770      	bx	lr

080004a0 <SysTick_Handler>:

/**
  * @brief This function handles System tick timer.
  */
void SysTick_Handler(void)
{
 80004a0:	b580      	push	{r7, lr}
 80004a2:	af00      	add	r7, sp, #0
  /* USER CODE BEGIN SysTick_IRQn 0 */

  /* USER CODE END SysTick_IRQn 0 */
  HAL_IncTick();
 80004a4:	f000 f884 	bl	80005b0 <HAL_IncTick>
  /* USER CODE BEGIN SysTick_IRQn 1 */

  /* USER CODE END SysTick_IRQn 1 */
}
 80004a8:	bf00      	nop
 80004aa:	bd80      	pop	{r7, pc}

080004ac <SystemInit>:
  * @brief  Setup the microcontroller system
  * @param  None
  * @retval None
  */
void SystemInit(void)
{
 80004ac:	b480      	push	{r7}
 80004ae:	af00      	add	r7, sp, #0
/* FPU settings --------------------------------------------------------------*/
#if (__FPU_PRESENT == 1) && (__FPU_USED == 1)
  SCB->CPACR |= ((3UL << 10*2)|(3UL << 11*2));  /* set CP10 and CP11 Full Access */
 80004b0:	4b06      	ldr	r3, [pc, #24]	; (80004cc <SystemInit+0x20>)
 80004b2:	f8d3 3088 	ldr.w	r3, [r3, #136]	; 0x88
 80004b6:	4a05      	ldr	r2, [pc, #20]	; (80004cc <SystemInit+0x20>)
 80004b8:	f443 0370 	orr.w	r3, r3, #15728640	; 0xf00000
 80004bc:	f8c2 3088 	str.w	r3, [r2, #136]	; 0x88

  /* Configure the Vector Table location -------------------------------------*/
#if defined(USER_VECT_TAB_ADDRESS)
  SCB->VTOR = VECT_TAB_BASE_ADDRESS | VECT_TAB_OFFSET; /* Vector Table Relocation in Internal SRAM */
#endif /* USER_VECT_TAB_ADDRESS */
}
 80004c0:	bf00      	nop
 80004c2:	46bd      	mov	sp, r7
 80004c4:	f85d 7b04 	ldr.w	r7, [sp], #4
 80004c8:	4770      	bx	lr
 80004ca:	bf00      	nop
 80004cc:	e000ed00 	.word	0xe000ed00

080004d0 <Reset_Handler>:

    .section	.text.Reset_Handler
	.weak	Reset_Handler
	.type	Reset_Handler, %function
Reset_Handler:
  ldr   sp, =_estack    /* Atollic update: set stack pointer */
 80004d0:	f8df d034 	ldr.w	sp, [pc, #52]	; 8000508 <LoopForever+0x2>
  
/* Call the clock system initialization function.*/
    bl  SystemInit
 80004d4:	f7ff ffea 	bl	80004ac <SystemInit>

/* Copy the data segment initializers from flash to SRAM */
  ldr r0, =_sdata
 80004d8:	480c      	ldr	r0, [pc, #48]	; (800050c <LoopForever+0x6>)
  ldr r1, =_edata
 80004da:	490d      	ldr	r1, [pc, #52]	; (8000510 <LoopForever+0xa>)
  ldr r2, =_sidata
 80004dc:	4a0d      	ldr	r2, [pc, #52]	; (8000514 <LoopForever+0xe>)
  movs r3, #0
 80004de:	2300      	movs	r3, #0
  b LoopCopyDataInit
 80004e0:	e002      	b.n	80004e8 <LoopCopyDataInit>

080004e2 <CopyDataInit>:

CopyDataInit:
  ldr r4, [r2, r3]
 80004e2:	58d4      	ldr	r4, [r2, r3]
  str r4, [r0, r3]
 80004e4:	50c4      	str	r4, [r0, r3]
  adds r3, r3, #4
 80004e6:	3304      	adds	r3, #4

080004e8 <LoopCopyDataInit>:

LoopCopyDataInit:
  adds r4, r0, r3
 80004e8:	18c4      	adds	r4, r0, r3
  cmp r4, r1
 80004ea:	428c      	cmp	r4, r1
  bcc CopyDataInit
 80004ec:	d3f9      	bcc.n	80004e2 <CopyDataInit>
  
/* Zero fill the bss segment. */
  ldr r2, =_sbss
 80004ee:	4a0a      	ldr	r2, [pc, #40]	; (8000518 <LoopForever+0x12>)
  ldr r4, =_ebss
 80004f0:	4c0a      	ldr	r4, [pc, #40]	; (800051c <LoopForever+0x16>)
  movs r3, #0
 80004f2:	2300      	movs	r3, #0
  b LoopFillZerobss
 80004f4:	e001      	b.n	80004fa <LoopFillZerobss>

080004f6 <FillZerobss>:

FillZerobss:
  str  r3, [r2]
 80004f6:	6013      	str	r3, [r2, #0]
  adds r2, r2, #4
 80004f8:	3204      	adds	r2, #4

080004fa <LoopFillZerobss>:

LoopFillZerobss:
  cmp r2, r4
 80004fa:	42a2      	cmp	r2, r4
  bcc FillZerobss
 80004fc:	d3fb      	bcc.n	80004f6 <FillZerobss>

/* Call static constructors */
    bl __libc_init_array
 80004fe:	f001 fb9f 	bl	8001c40 <__libc_init_array>
/* Call the application's entry point.*/
	bl	main
 8000502:	f7ff fe91 	bl	8000228 <main>

08000506 <LoopForever>:

LoopForever:
    b LoopForever
 8000506:	e7fe      	b.n	8000506 <LoopForever>
  ldr   sp, =_estack    /* Atollic update: set stack pointer */
 8000508:	20010000 	.word	0x20010000
  ldr r0, =_sdata
 800050c:	20000000 	.word	0x20000000
  ldr r1, =_edata
 8000510:	2000000c 	.word	0x2000000c
  ldr r2, =_sidata
 8000514:	08001cd8 	.word	0x08001cd8
  ldr r2, =_sbss
 8000518:	2000000c 	.word	0x2000000c
  ldr r4, =_ebss
 800051c:	2000002c 	.word	0x2000002c

08000520 <ADC1_2_IRQHandler>:
 * @retval : None
*/
    .section	.text.Default_Handler,"ax",%progbits
Default_Handler:
Infinite_Loop:
	b	Infinite_Loop
 8000520:	e7fe      	b.n	8000520 <ADC1_2_IRQHandler>
	...

08000524 <HAL_Init>:
  *         In the default implementation,Systick is used as source of time base.
  *       The tick variable is incremented each 1ms in its ISR.
  * @retval HAL status
  */
HAL_StatusTypeDef HAL_Init(void)
{
 8000524:	b580      	push	{r7, lr}
 8000526:	af00      	add	r7, sp, #0
  /* Configure Flash prefetch */
#if (PREFETCH_ENABLE != 0U)
  __HAL_FLASH_PREFETCH_BUFFER_ENABLE();
 8000528:	4b08      	ldr	r3, [pc, #32]	; (800054c <HAL_Init+0x28>)
 800052a:	681b      	ldr	r3, [r3, #0]
 800052c:	4a07      	ldr	r2, [pc, #28]	; (800054c <HAL_Init+0x28>)
 800052e:	f043 0310 	orr.w	r3, r3, #16
 8000532:	6013      	str	r3, [r2, #0]
#endif /* PREFETCH_ENABLE */

  /* Set Interrupt Group Priority */
  HAL_NVIC_SetPriorityGrouping(NVIC_PRIORITYGROUP_4);
 8000534:	2003      	movs	r0, #3
 8000536:	f000 f90d 	bl	8000754 <HAL_NVIC_SetPriorityGrouping>

  /* Enable systick and configure 1ms tick (default clock after Reset is HSI) */
  HAL_InitTick(TICK_INT_PRIORITY);
 800053a:	200f      	movs	r0, #15
 800053c:	f000 f808 	bl	8000550 <HAL_InitTick>

  /* Init the low level hardware */
  HAL_MspInit();
 8000540:	f7ff ff66 	bl	8000410 <HAL_MspInit>

  /* Return function status */
  return HAL_OK;
 8000544:	2300      	movs	r3, #0
}
 8000546:	4618      	mov	r0, r3
 8000548:	bd80      	pop	{r7, pc}
 800054a:	bf00      	nop
 800054c:	40022000 	.word	0x40022000

08000550 <HAL_InitTick>:
  *         implementation  in user file.
  * @param TickPriority Tick interrupt priority.
  * @retval HAL status
  */
__weak HAL_StatusTypeDef HAL_InitTick(uint32_t TickPriority)
{
 8000550:	b580      	push	{r7, lr}
 8000552:	b082      	sub	sp, #8
 8000554:	af00      	add	r7, sp, #0
 8000556:	6078      	str	r0, [r7, #4]
  /* Configure the SysTick to have interrupt in 1ms time basis*/
  if (HAL_SYSTICK_Config(SystemCoreClock / (1000U / uwTickFreq)) > 0U)
 8000558:	4b12      	ldr	r3, [pc, #72]	; (80005a4 <HAL_InitTick+0x54>)
 800055a:	681a      	ldr	r2, [r3, #0]
 800055c:	4b12      	ldr	r3, [pc, #72]	; (80005a8 <HAL_InitTick+0x58>)
 800055e:	781b      	ldrb	r3, [r3, #0]
 8000560:	4619      	mov	r1, r3
 8000562:	f44f 737a 	mov.w	r3, #1000	; 0x3e8
 8000566:	fbb3 f3f1 	udiv	r3, r3, r1
 800056a:	fbb2 f3f3 	udiv	r3, r2, r3
 800056e:	4618      	mov	r0, r3
 8000570:	f000 f917 	bl	80007a2 <HAL_SYSTICK_Config>
 8000574:	4603      	mov	r3, r0
 8000576:	2b00      	cmp	r3, #0
 8000578:	d001      	beq.n	800057e <HAL_InitTick+0x2e>
  {
    return HAL_ERROR;
 800057a:	2301      	movs	r3, #1
 800057c:	e00e      	b.n	800059c <HAL_InitTick+0x4c>
  }

  /* Configure the SysTick IRQ priority */
  if (TickPriority < (1UL << __NVIC_PRIO_BITS))
 800057e:	687b      	ldr	r3, [r7, #4]
 8000580:	2b0f      	cmp	r3, #15
 8000582:	d80a      	bhi.n	800059a <HAL_InitTick+0x4a>
  {
    HAL_NVIC_SetPriority(SysTick_IRQn, TickPriority, 0U);
 8000584:	2200      	movs	r2, #0
 8000586:	6879      	ldr	r1, [r7, #4]
 8000588:	f04f 30ff 	mov.w	r0, #4294967295
 800058c:	f000 f8ed 	bl	800076a <HAL_NVIC_SetPriority>
    uwTickPrio = TickPriority;
 8000590:	4a06      	ldr	r2, [pc, #24]	; (80005ac <HAL_InitTick+0x5c>)
 8000592:	687b      	ldr	r3, [r7, #4]
 8000594:	6013      	str	r3, [r2, #0]
  else
  {
    return HAL_ERROR;
  }
   /* Return function status */
  return HAL_OK;
 8000596:	2300      	movs	r3, #0
 8000598:	e000      	b.n	800059c <HAL_InitTick+0x4c>
    return HAL_ERROR;
 800059a:	2301      	movs	r3, #1
}
 800059c:	4618      	mov	r0, r3
 800059e:	3708      	adds	r7, #8
 80005a0:	46bd      	mov	sp, r7
 80005a2:	bd80      	pop	{r7, pc}
 80005a4:	20000000 	.word	0x20000000
 80005a8:	20000008 	.word	0x20000008
 80005ac:	20000004 	.word	0x20000004

080005b0 <HAL_IncTick>:
  * @note This function is declared as __weak to be overwritten in case of other 
  *         implementations  in user file.
  * @retval None
  */
__weak void HAL_IncTick(void)
{
 80005b0:	b480      	push	{r7}
 80005b2:	af00      	add	r7, sp, #0
  uwTick += uwTickFreq;
 80005b4:	4b06      	ldr	r3, [pc, #24]	; (80005d0 <HAL_IncTick+0x20>)
 80005b6:	781b      	ldrb	r3, [r3, #0]
 80005b8:	461a      	mov	r2, r3
 80005ba:	4b06      	ldr	r3, [pc, #24]	; (80005d4 <HAL_IncTick+0x24>)
 80005bc:	681b      	ldr	r3, [r3, #0]
 80005be:	4413      	add	r3, r2
 80005c0:	4a04      	ldr	r2, [pc, #16]	; (80005d4 <HAL_IncTick+0x24>)
 80005c2:	6013      	str	r3, [r2, #0]
}
 80005c4:	bf00      	nop
 80005c6:	46bd      	mov	sp, r7
 80005c8:	f85d 7b04 	ldr.w	r7, [sp], #4
 80005cc:	4770      	bx	lr
 80005ce:	bf00      	nop
 80005d0:	20000008 	.word	0x20000008
 80005d4:	20000028 	.word	0x20000028

080005d8 <HAL_GetTick>:
  * @note   The function is declared as __Weak  to be overwritten  in case of other 
  *         implementations  in user file.
  * @retval tick value
  */
__weak uint32_t HAL_GetTick(void)
{
 80005d8:	b480      	push	{r7}
 80005da:	af00      	add	r7, sp, #0
  return uwTick;  
 80005dc:	4b03      	ldr	r3, [pc, #12]	; (80005ec <HAL_GetTick+0x14>)
 80005de:	681b      	ldr	r3, [r3, #0]
}
 80005e0:	4618      	mov	r0, r3
 80005e2:	46bd      	mov	sp, r7
 80005e4:	f85d 7b04 	ldr.w	r7, [sp], #4
 80005e8:	4770      	bx	lr
 80005ea:	bf00      	nop
 80005ec:	20000028 	.word	0x20000028

080005f0 <__NVIC_SetPriorityGrouping>:
{
 80005f0:	b480      	push	{r7}
 80005f2:	b085      	sub	sp, #20
 80005f4:	af00      	add	r7, sp, #0
 80005f6:	6078      	str	r0, [r7, #4]
  uint32_t PriorityGroupTmp = (PriorityGroup & (uint32_t)0x07UL);             /* only values 0..7 are used          */
 80005f8:	687b      	ldr	r3, [r7, #4]
 80005fa:	f003 0307 	and.w	r3, r3, #7
 80005fe:	60fb      	str	r3, [r7, #12]
  reg_value  =  SCB->AIRCR;                                                   /* read old register configuration    */
 8000600:	4b0c      	ldr	r3, [pc, #48]	; (8000634 <__NVIC_SetPriorityGrouping+0x44>)
 8000602:	68db      	ldr	r3, [r3, #12]
 8000604:	60bb      	str	r3, [r7, #8]
  reg_value &= ~((uint32_t)(SCB_AIRCR_VECTKEY_Msk | SCB_AIRCR_PRIGROUP_Msk)); /* clear bits to change               */
 8000606:	68ba      	ldr	r2, [r7, #8]
 8000608:	f64f 03ff 	movw	r3, #63743	; 0xf8ff
 800060c:	4013      	ands	r3, r2
 800060e:	60bb      	str	r3, [r7, #8]
                (PriorityGroupTmp << SCB_AIRCR_PRIGROUP_Pos)  );              /* Insert write key and priority group */
 8000610:	68fb      	ldr	r3, [r7, #12]
 8000612:	021a      	lsls	r2, r3, #8
                ((uint32_t)0x5FAUL << SCB_AIRCR_VECTKEY_Pos) |
 8000614:	68bb      	ldr	r3, [r7, #8]
 8000616:	4313      	orrs	r3, r2
  reg_value  =  (reg_value                                   |
 8000618:	f043 63bf 	orr.w	r3, r3, #100139008	; 0x5f80000
 800061c:	f443 3300 	orr.w	r3, r3, #131072	; 0x20000
 8000620:	60bb      	str	r3, [r7, #8]
  SCB->AIRCR =  reg_value;
 8000622:	4a04      	ldr	r2, [pc, #16]	; (8000634 <__NVIC_SetPriorityGrouping+0x44>)
 8000624:	68bb      	ldr	r3, [r7, #8]
 8000626:	60d3      	str	r3, [r2, #12]
}
 8000628:	bf00      	nop
 800062a:	3714      	adds	r7, #20
 800062c:	46bd      	mov	sp, r7
 800062e:	f85d 7b04 	ldr.w	r7, [sp], #4
 8000632:	4770      	bx	lr
 8000634:	e000ed00 	.word	0xe000ed00

08000638 <__NVIC_GetPriorityGrouping>:
{
 8000638:	b480      	push	{r7}
 800063a:	af00      	add	r7, sp, #0
  return ((uint32_t)((SCB->AIRCR & SCB_AIRCR_PRIGROUP_Msk) >> SCB_AIRCR_PRIGROUP_Pos));
 800063c:	4b04      	ldr	r3, [pc, #16]	; (8000650 <__NVIC_GetPriorityGrouping+0x18>)
 800063e:	68db      	ldr	r3, [r3, #12]
 8000640:	0a1b      	lsrs	r3, r3, #8
 8000642:	f003 0307 	and.w	r3, r3, #7
}
 8000646:	4618      	mov	r0, r3
 8000648:	46bd      	mov	sp, r7
 800064a:	f85d 7b04 	ldr.w	r7, [sp], #4
 800064e:	4770      	bx	lr
 8000650:	e000ed00 	.word	0xe000ed00

08000654 <__NVIC_SetPriority>:
{
 8000654:	b480      	push	{r7}
 8000656:	b083      	sub	sp, #12
 8000658:	af00      	add	r7, sp, #0
 800065a:	4603      	mov	r3, r0
 800065c:	6039      	str	r1, [r7, #0]
 800065e:	71fb      	strb	r3, [r7, #7]
  if ((int32_t)(IRQn) >= 0)
 8000660:	f997 3007 	ldrsb.w	r3, [r7, #7]
 8000664:	2b00      	cmp	r3, #0
 8000666:	db0a      	blt.n	800067e <__NVIC_SetPriority+0x2a>
    NVIC->IP[((uint32_t)IRQn)]               = (uint8_t)((priority << (8U - __NVIC_PRIO_BITS)) & (uint32_t)0xFFUL);
 8000668:	683b      	ldr	r3, [r7, #0]
 800066a:	b2da      	uxtb	r2, r3
 800066c:	490c      	ldr	r1, [pc, #48]	; (80006a0 <__NVIC_SetPriority+0x4c>)
 800066e:	f997 3007 	ldrsb.w	r3, [r7, #7]
 8000672:	0112      	lsls	r2, r2, #4
 8000674:	b2d2      	uxtb	r2, r2
 8000676:	440b      	add	r3, r1
 8000678:	f883 2300 	strb.w	r2, [r3, #768]	; 0x300
}
 800067c:	e00a      	b.n	8000694 <__NVIC_SetPriority+0x40>
    SCB->SHP[(((uint32_t)IRQn) & 0xFUL)-4UL] = (uint8_t)((priority << (8U - __NVIC_PRIO_BITS)) & (uint32_t)0xFFUL);
 800067e:	683b      	ldr	r3, [r7, #0]
 8000680:	b2da      	uxtb	r2, r3
 8000682:	4908      	ldr	r1, [pc, #32]	; (80006a4 <__NVIC_SetPriority+0x50>)
 8000684:	79fb      	ldrb	r3, [r7, #7]
 8000686:	f003 030f 	and.w	r3, r3, #15
 800068a:	3b04      	subs	r3, #4
 800068c:	0112      	lsls	r2, r2, #4
 800068e:	b2d2      	uxtb	r2, r2
 8000690:	440b      	add	r3, r1
 8000692:	761a      	strb	r2, [r3, #24]
}
 8000694:	bf00      	nop
 8000696:	370c      	adds	r7, #12
 8000698:	46bd      	mov	sp, r7
 800069a:	f85d 7b04 	ldr.w	r7, [sp], #4
 800069e:	4770      	bx	lr
 80006a0:	e000e100 	.word	0xe000e100
 80006a4:	e000ed00 	.word	0xe000ed00

080006a8 <NVIC_EncodePriority>:
  \param [in]   PreemptPriority  Preemptive priority value (starting from 0).
  \param [in]       SubPriority  Subpriority value (starting from 0).
  \return                        Encoded priority. Value can be used in the function \ref NVIC_SetPriority().
 */
__STATIC_INLINE uint32_t NVIC_EncodePriority (uint32_t PriorityGroup, uint32_t PreemptPriority, uint32_t SubPriority)
{
 80006a8:	b480      	push	{r7}
 80006aa:	b089      	sub	sp, #36	; 0x24
 80006ac:	af00      	add	r7, sp, #0
 80006ae:	60f8      	str	r0, [r7, #12]
 80006b0:	60b9      	str	r1, [r7, #8]
 80006b2:	607a      	str	r2, [r7, #4]
  uint32_t PriorityGroupTmp = (PriorityGroup & (uint32_t)0x07UL);   /* only values 0..7 are used          */
 80006b4:	68fb      	ldr	r3, [r7, #12]
 80006b6:	f003 0307 	and.w	r3, r3, #7
 80006ba:	61fb      	str	r3, [r7, #28]
  uint32_t PreemptPriorityBits;
  uint32_t SubPriorityBits;

  PreemptPriorityBits = ((7UL - PriorityGroupTmp) > (uint32_t)(__NVIC_PRIO_BITS)) ? (uint32_t)(__NVIC_PRIO_BITS) : (uint32_t)(7UL - PriorityGroupTmp);
 80006bc:	69fb      	ldr	r3, [r7, #28]
 80006be:	f1c3 0307 	rsb	r3, r3, #7
 80006c2:	2b04      	cmp	r3, #4
 80006c4:	bf28      	it	cs
 80006c6:	2304      	movcs	r3, #4
 80006c8:	61bb      	str	r3, [r7, #24]
  SubPriorityBits     = ((PriorityGroupTmp + (uint32_t)(__NVIC_PRIO_BITS)) < (uint32_t)7UL) ? (uint32_t)0UL : (uint32_t)((PriorityGroupTmp - 7UL) + (uint32_t)(__NVIC_PRIO_BITS));
 80006ca:	69fb      	ldr	r3, [r7, #28]
 80006cc:	3304      	adds	r3, #4
 80006ce:	2b06      	cmp	r3, #6
 80006d0:	d902      	bls.n	80006d8 <NVIC_EncodePriority+0x30>
 80006d2:	69fb      	ldr	r3, [r7, #28]
 80006d4:	3b03      	subs	r3, #3
 80006d6:	e000      	b.n	80006da <NVIC_EncodePriority+0x32>
 80006d8:	2300      	movs	r3, #0
 80006da:	617b      	str	r3, [r7, #20]

  return (
           ((PreemptPriority & (uint32_t)((1UL << (PreemptPriorityBits)) - 1UL)) << SubPriorityBits) |
 80006dc:	f04f 32ff 	mov.w	r2, #4294967295
 80006e0:	69bb      	ldr	r3, [r7, #24]
 80006e2:	fa02 f303 	lsl.w	r3, r2, r3
 80006e6:	43da      	mvns	r2, r3
 80006e8:	68bb      	ldr	r3, [r7, #8]
 80006ea:	401a      	ands	r2, r3
 80006ec:	697b      	ldr	r3, [r7, #20]
 80006ee:	409a      	lsls	r2, r3
           ((SubPriority     & (uint32_t)((1UL << (SubPriorityBits    )) - 1UL)))
 80006f0:	f04f 31ff 	mov.w	r1, #4294967295
 80006f4:	697b      	ldr	r3, [r7, #20]
 80006f6:	fa01 f303 	lsl.w	r3, r1, r3
 80006fa:	43d9      	mvns	r1, r3
 80006fc:	687b      	ldr	r3, [r7, #4]
 80006fe:	400b      	ands	r3, r1
           ((PreemptPriority & (uint32_t)((1UL << (PreemptPriorityBits)) - 1UL)) << SubPriorityBits) |
 8000700:	4313      	orrs	r3, r2
         );
}
 8000702:	4618      	mov	r0, r3
 8000704:	3724      	adds	r7, #36	; 0x24
 8000706:	46bd      	mov	sp, r7
 8000708:	f85d 7b04 	ldr.w	r7, [sp], #4
 800070c:	4770      	bx	lr
	...

08000710 <SysTick_Config>:
  \note    When the variable <b>__Vendor_SysTickConfig</b> is set to 1, then the
           function <b>SysTick_Config</b> is not included. In this case, the file <b><i>device</i>.h</b>
           must contain a vendor-specific implementation of this function.
 */
__STATIC_INLINE uint32_t SysTick_Config(uint32_t ticks)
{
 8000710:	b580      	push	{r7, lr}
 8000712:	b082      	sub	sp, #8
 8000714:	af00      	add	r7, sp, #0
 8000716:	6078      	str	r0, [r7, #4]
  if ((ticks - 1UL) > SysTick_LOAD_RELOAD_Msk)
 8000718:	687b      	ldr	r3, [r7, #4]
 800071a:	3b01      	subs	r3, #1
 800071c:	f1b3 7f80 	cmp.w	r3, #16777216	; 0x1000000
 8000720:	d301      	bcc.n	8000726 <SysTick_Config+0x16>
  {
    return (1UL);                                                   /* Reload value impossible */
 8000722:	2301      	movs	r3, #1
 8000724:	e00f      	b.n	8000746 <SysTick_Config+0x36>
  }

  SysTick->LOAD  = (uint32_t)(ticks - 1UL);                         /* set reload register */
 8000726:	4a0a      	ldr	r2, [pc, #40]	; (8000750 <SysTick_Config+0x40>)
 8000728:	687b      	ldr	r3, [r7, #4]
 800072a:	3b01      	subs	r3, #1
 800072c:	6053      	str	r3, [r2, #4]
  NVIC_SetPriority (SysTick_IRQn, (1UL << __NVIC_PRIO_BITS) - 1UL); /* set Priority for Systick Interrupt */
 800072e:	210f      	movs	r1, #15
 8000730:	f04f 30ff 	mov.w	r0, #4294967295
 8000734:	f7ff ff8e 	bl	8000654 <__NVIC_SetPriority>
  SysTick->VAL   = 0UL;                                             /* Load the SysTick Counter Value */
 8000738:	4b05      	ldr	r3, [pc, #20]	; (8000750 <SysTick_Config+0x40>)
 800073a:	2200      	movs	r2, #0
 800073c:	609a      	str	r2, [r3, #8]
  SysTick->CTRL  = SysTick_CTRL_CLKSOURCE_Msk |
 800073e:	4b04      	ldr	r3, [pc, #16]	; (8000750 <SysTick_Config+0x40>)
 8000740:	2207      	movs	r2, #7
 8000742:	601a      	str	r2, [r3, #0]
                   SysTick_CTRL_TICKINT_Msk   |
                   SysTick_CTRL_ENABLE_Msk;                         /* Enable SysTick IRQ and SysTick Timer */
  return (0UL);                                                     /* Function successful */
 8000744:	2300      	movs	r3, #0
}
 8000746:	4618      	mov	r0, r3
 8000748:	3708      	adds	r7, #8
 800074a:	46bd      	mov	sp, r7
 800074c:	bd80      	pop	{r7, pc}
 800074e:	bf00      	nop
 8000750:	e000e010 	.word	0xe000e010

08000754 <HAL_NVIC_SetPriorityGrouping>:
  * @note   When the NVIC_PriorityGroup_0 is selected, IRQ pre-emption is no more possible.
  *         The pending IRQ priority will be managed only by the subpriority.
  * @retval None
  */
void HAL_NVIC_SetPriorityGrouping(uint32_t PriorityGroup)
{
 8000754:	b580      	push	{r7, lr}
 8000756:	b082      	sub	sp, #8
 8000758:	af00      	add	r7, sp, #0
 800075a:	6078      	str	r0, [r7, #4]
  /* Check the parameters */
  assert_param(IS_NVIC_PRIORITY_GROUP(PriorityGroup));

  /* Set the PRIGROUP[10:8] bits according to the PriorityGroup parameter value */
  NVIC_SetPriorityGrouping(PriorityGroup);
 800075c:	6878      	ldr	r0, [r7, #4]
 800075e:	f7ff ff47 	bl	80005f0 <__NVIC_SetPriorityGrouping>
}
 8000762:	bf00      	nop
 8000764:	3708      	adds	r7, #8
 8000766:	46bd      	mov	sp, r7
 8000768:	bd80      	pop	{r7, pc}

0800076a <HAL_NVIC_SetPriority>:
  *         This parameter can be a value between 0 and 15 as described in the table CORTEX_NVIC_Priority_Table
  *         A lower priority value indicates a higher priority.
  * @retval None
  */
void HAL_NVIC_SetPriority(IRQn_Type IRQn, uint32_t PreemptPriority, uint32_t SubPriority)
{
 800076a:	b580      	push	{r7, lr}
 800076c:	b086      	sub	sp, #24
 800076e:	af00      	add	r7, sp, #0
 8000770:	4603      	mov	r3, r0
 8000772:	60b9      	str	r1, [r7, #8]
 8000774:	607a      	str	r2, [r7, #4]
 8000776:	73fb      	strb	r3, [r7, #15]
  uint32_t prioritygroup = 0x00U;
 8000778:	2300      	movs	r3, #0
 800077a:	617b      	str	r3, [r7, #20]
  
  /* Check the parameters */
  assert_param(IS_NVIC_SUB_PRIORITY(SubPriority));
  assert_param(IS_NVIC_PREEMPTION_PRIORITY(PreemptPriority));
  
  prioritygroup = NVIC_GetPriorityGrouping();
 800077c:	f7ff ff5c 	bl	8000638 <__NVIC_GetPriorityGrouping>
 8000780:	6178      	str	r0, [r7, #20]
  
  NVIC_SetPriority(IRQn, NVIC_EncodePriority(prioritygroup, PreemptPriority, SubPriority));
 8000782:	687a      	ldr	r2, [r7, #4]
 8000784:	68b9      	ldr	r1, [r7, #8]
 8000786:	6978      	ldr	r0, [r7, #20]
 8000788:	f7ff ff8e 	bl	80006a8 <NVIC_EncodePriority>
 800078c:	4602      	mov	r2, r0
 800078e:	f997 300f 	ldrsb.w	r3, [r7, #15]
 8000792:	4611      	mov	r1, r2
 8000794:	4618      	mov	r0, r3
 8000796:	f7ff ff5d 	bl	8000654 <__NVIC_SetPriority>
}
 800079a:	bf00      	nop
 800079c:	3718      	adds	r7, #24
 800079e:	46bd      	mov	sp, r7
 80007a0:	bd80      	pop	{r7, pc}

080007a2 <HAL_SYSTICK_Config>:
  * @param  TicksNumb Specifies the ticks Number of ticks between two interrupts.
  * @retval status:  - 0  Function succeeded.
  *                  - 1  Function failed.
  */
uint32_t HAL_SYSTICK_Config(uint32_t TicksNumb)
{
 80007a2:	b580      	push	{r7, lr}
 80007a4:	b082      	sub	sp, #8
 80007a6:	af00      	add	r7, sp, #0
 80007a8:	6078      	str	r0, [r7, #4]
   return SysTick_Config(TicksNumb);
 80007aa:	6878      	ldr	r0, [r7, #4]
 80007ac:	f7ff ffb0 	bl	8000710 <SysTick_Config>
 80007b0:	4603      	mov	r3, r0
}
 80007b2:	4618      	mov	r0, r3
 80007b4:	3708      	adds	r7, #8
 80007b6:	46bd      	mov	sp, r7
 80007b8:	bd80      	pop	{r7, pc}
	...

080007bc <HAL_RCC_OscConfig>:
  *         supported by this macro. User should request a transition to HSE Off
  *         first and then HSE On or HSE Bypass.
  * @retval HAL status
  */
HAL_StatusTypeDef HAL_RCC_OscConfig(RCC_OscInitTypeDef  *RCC_OscInitStruct)
{
 80007bc:	b580      	push	{r7, lr}
 80007be:	f5ad 7d02 	sub.w	sp, sp, #520	; 0x208
 80007c2:	af00      	add	r7, sp, #0
 80007c4:	f507 7302 	add.w	r3, r7, #520	; 0x208
 80007c8:	f5a3 7301 	sub.w	r3, r3, #516	; 0x204
 80007cc:	6018      	str	r0, [r3, #0]
#if defined(RCC_CFGR_PLLSRC_HSI_PREDIV)
  uint32_t pll_config2;
#endif /* RCC_CFGR_PLLSRC_HSI_PREDIV */

  /* Check Null pointer */
  if(RCC_OscInitStruct == NULL)
 80007ce:	f507 7302 	add.w	r3, r7, #520	; 0x208
 80007d2:	f5a3 7301 	sub.w	r3, r3, #516	; 0x204
 80007d6:	681b      	ldr	r3, [r3, #0]
 80007d8:	2b00      	cmp	r3, #0
 80007da:	d102      	bne.n	80007e2 <HAL_RCC_OscConfig+0x26>
  {
    return HAL_ERROR;
 80007dc:	2301      	movs	r3, #1
 80007de:	f001 b83a 	b.w	8001856 <HAL_RCC_OscConfig+0x109a>

  /* Check the parameters */
  assert_param(IS_RCC_OSCILLATORTYPE(RCC_OscInitStruct->OscillatorType));

  /*------------------------------- HSE Configuration ------------------------*/ 
  if(((RCC_OscInitStruct->OscillatorType) & RCC_OSCILLATORTYPE_HSE) == RCC_OSCILLATORTYPE_HSE)
 80007e2:	f507 7302 	add.w	r3, r7, #520	; 0x208
 80007e6:	f5a3 7301 	sub.w	r3, r3, #516	; 0x204
 80007ea:	681b      	ldr	r3, [r3, #0]
 80007ec:	681b      	ldr	r3, [r3, #0]
 80007ee:	f003 0301 	and.w	r3, r3, #1
 80007f2:	2b00      	cmp	r3, #0
 80007f4:	f000 816f 	beq.w	8000ad6 <HAL_RCC_OscConfig+0x31a>
  {
    /* Check the parameters */
    assert_param(IS_RCC_HSE(RCC_OscInitStruct->HSEState));

    /* When the HSE is used as system clock or clock source for PLL in these cases it is not allowed to be disabled */
    if((__HAL_RCC_GET_SYSCLK_SOURCE() == RCC_SYSCLKSOURCE_STATUS_HSE) 
 80007f8:	4bb5      	ldr	r3, [pc, #724]	; (8000ad0 <HAL_RCC_OscConfig+0x314>)
 80007fa:	685b      	ldr	r3, [r3, #4]
 80007fc:	f003 030c 	and.w	r3, r3, #12
 8000800:	2b04      	cmp	r3, #4
 8000802:	d00c      	beq.n	800081e <HAL_RCC_OscConfig+0x62>
       || ((__HAL_RCC_GET_SYSCLK_SOURCE() == RCC_SYSCLKSOURCE_STATUS_PLLCLK) && (__HAL_RCC_GET_PLL_OSCSOURCE() == RCC_PLLSOURCE_HSE)))
 8000804:	4bb2      	ldr	r3, [pc, #712]	; (8000ad0 <HAL_RCC_OscConfig+0x314>)
 8000806:	685b      	ldr	r3, [r3, #4]
 8000808:	f003 030c 	and.w	r3, r3, #12
 800080c:	2b08      	cmp	r3, #8
 800080e:	d15c      	bne.n	80008ca <HAL_RCC_OscConfig+0x10e>
 8000810:	4baf      	ldr	r3, [pc, #700]	; (8000ad0 <HAL_RCC_OscConfig+0x314>)
 8000812:	685b      	ldr	r3, [r3, #4]
 8000814:	f403 33c0 	and.w	r3, r3, #98304	; 0x18000
 8000818:	f5b3 3f80 	cmp.w	r3, #65536	; 0x10000
 800081c:	d155      	bne.n	80008ca <HAL_RCC_OscConfig+0x10e>
 800081e:	f44f 3300 	mov.w	r3, #131072	; 0x20000
 8000822:	f8c7 31f4 	str.w	r3, [r7, #500]	; 0x1f4
  uint32_t result;

#if ((defined (__ARM_ARCH_7M__      ) && (__ARM_ARCH_7M__      == 1)) || \
     (defined (__ARM_ARCH_7EM__     ) && (__ARM_ARCH_7EM__     == 1)) || \
     (defined (__ARM_ARCH_8M_MAIN__ ) && (__ARM_ARCH_8M_MAIN__ == 1))    )
   __ASM volatile ("rbit %0, %1" : "=r" (result) : "r" (value) );
 8000826:	f8d7 31f4 	ldr.w	r3, [r7, #500]	; 0x1f4
 800082a:	fa93 f3a3 	rbit	r3, r3
 800082e:	f8c7 31f0 	str.w	r3, [r7, #496]	; 0x1f0
    result |= value & 1U;
    s--;
  }
  result <<= s;                        /* shift when v's highest bits are zero */
#endif
  return result;
 8000832:	f8d7 31f0 	ldr.w	r3, [r7, #496]	; 0x1f0
    {
      if((__HAL_RCC_GET_FLAG(RCC_FLAG_HSERDY) != RESET) && (RCC_OscInitStruct->HSEState == RCC_HSE_OFF))
 8000836:	fab3 f383 	clz	r3, r3
 800083a:	b2db      	uxtb	r3, r3
 800083c:	095b      	lsrs	r3, r3, #5
 800083e:	b2db      	uxtb	r3, r3
 8000840:	f043 0301 	orr.w	r3, r3, #1
 8000844:	b2db      	uxtb	r3, r3
 8000846:	2b01      	cmp	r3, #1
 8000848:	d102      	bne.n	8000850 <HAL_RCC_OscConfig+0x94>
 800084a:	4ba1      	ldr	r3, [pc, #644]	; (8000ad0 <HAL_RCC_OscConfig+0x314>)
 800084c:	681b      	ldr	r3, [r3, #0]
 800084e:	e015      	b.n	800087c <HAL_RCC_OscConfig+0xc0>
 8000850:	f44f 3300 	mov.w	r3, #131072	; 0x20000
 8000854:	f8c7 31ec 	str.w	r3, [r7, #492]	; 0x1ec
   __ASM volatile ("rbit %0, %1" : "=r" (result) : "r" (value) );
 8000858:	f8d7 31ec 	ldr.w	r3, [r7, #492]	; 0x1ec
 800085c:	fa93 f3a3 	rbit	r3, r3
 8000860:	f8c7 31e8 	str.w	r3, [r7, #488]	; 0x1e8
 8000864:	f44f 3300 	mov.w	r3, #131072	; 0x20000
 8000868:	f8c7 31e4 	str.w	r3, [r7, #484]	; 0x1e4
 800086c:	f8d7 31e4 	ldr.w	r3, [r7, #484]	; 0x1e4
 8000870:	fa93 f3a3 	rbit	r3, r3
 8000874:	f8c7 31e0 	str.w	r3, [r7, #480]	; 0x1e0
 8000878:	4b95      	ldr	r3, [pc, #596]	; (8000ad0 <HAL_RCC_OscConfig+0x314>)
 800087a:	6a5b      	ldr	r3, [r3, #36]	; 0x24
 800087c:	f44f 3200 	mov.w	r2, #131072	; 0x20000
 8000880:	f8c7 21dc 	str.w	r2, [r7, #476]	; 0x1dc
 8000884:	f8d7 21dc 	ldr.w	r2, [r7, #476]	; 0x1dc
 8000888:	fa92 f2a2 	rbit	r2, r2
 800088c:	f8c7 21d8 	str.w	r2, [r7, #472]	; 0x1d8
  return result;
 8000890:	f8d7 21d8 	ldr.w	r2, [r7, #472]	; 0x1d8
 8000894:	fab2 f282 	clz	r2, r2
 8000898:	b2d2      	uxtb	r2, r2
 800089a:	f042 0220 	orr.w	r2, r2, #32
 800089e:	b2d2      	uxtb	r2, r2
 80008a0:	f002 021f 	and.w	r2, r2, #31
 80008a4:	2101      	movs	r1, #1
 80008a6:	fa01 f202 	lsl.w	r2, r1, r2
 80008aa:	4013      	ands	r3, r2
 80008ac:	2b00      	cmp	r3, #0
 80008ae:	f000 8111 	beq.w	8000ad4 <HAL_RCC_OscConfig+0x318>
 80008b2:	f507 7302 	add.w	r3, r7, #520	; 0x208
 80008b6:	f5a3 7301 	sub.w	r3, r3, #516	; 0x204
 80008ba:	681b      	ldr	r3, [r3, #0]
 80008bc:	685b      	ldr	r3, [r3, #4]
 80008be:	2b00      	cmp	r3, #0
 80008c0:	f040 8108 	bne.w	8000ad4 <HAL_RCC_OscConfig+0x318>
      {
        return HAL_ERROR;
 80008c4:	2301      	movs	r3, #1
 80008c6:	f000 bfc6 	b.w	8001856 <HAL_RCC_OscConfig+0x109a>
      }
    }
    else
    {
      /* Set the new HSE configuration ---------------------------------------*/
      __HAL_RCC_HSE_CONFIG(RCC_OscInitStruct->HSEState);
 80008ca:	f507 7302 	add.w	r3, r7, #520	; 0x208
 80008ce:	f5a3 7301 	sub.w	r3, r3, #516	; 0x204
 80008d2:	681b      	ldr	r3, [r3, #0]
 80008d4:	685b      	ldr	r3, [r3, #4]
 80008d6:	f5b3 3f80 	cmp.w	r3, #65536	; 0x10000
 80008da:	d106      	bne.n	80008ea <HAL_RCC_OscConfig+0x12e>
 80008dc:	4b7c      	ldr	r3, [pc, #496]	; (8000ad0 <HAL_RCC_OscConfig+0x314>)
 80008de:	681b      	ldr	r3, [r3, #0]
 80008e0:	4a7b      	ldr	r2, [pc, #492]	; (8000ad0 <HAL_RCC_OscConfig+0x314>)
 80008e2:	f443 3380 	orr.w	r3, r3, #65536	; 0x10000
 80008e6:	6013      	str	r3, [r2, #0]
 80008e8:	e036      	b.n	8000958 <HAL_RCC_OscConfig+0x19c>
 80008ea:	f507 7302 	add.w	r3, r7, #520	; 0x208
 80008ee:	f5a3 7301 	sub.w	r3, r3, #516	; 0x204
 80008f2:	681b      	ldr	r3, [r3, #0]
 80008f4:	685b      	ldr	r3, [r3, #4]
 80008f6:	2b00      	cmp	r3, #0
 80008f8:	d10c      	bne.n	8000914 <HAL_RCC_OscConfig+0x158>
 80008fa:	4b75      	ldr	r3, [pc, #468]	; (8000ad0 <HAL_RCC_OscConfig+0x314>)
 80008fc:	681b      	ldr	r3, [r3, #0]
 80008fe:	4a74      	ldr	r2, [pc, #464]	; (8000ad0 <HAL_RCC_OscConfig+0x314>)
 8000900:	f423 3380 	bic.w	r3, r3, #65536	; 0x10000
 8000904:	6013      	str	r3, [r2, #0]
 8000906:	4b72      	ldr	r3, [pc, #456]	; (8000ad0 <HAL_RCC_OscConfig+0x314>)
 8000908:	681b      	ldr	r3, [r3, #0]
 800090a:	4a71      	ldr	r2, [pc, #452]	; (8000ad0 <HAL_RCC_OscConfig+0x314>)
 800090c:	f423 2380 	bic.w	r3, r3, #262144	; 0x40000
 8000910:	6013      	str	r3, [r2, #0]
 8000912:	e021      	b.n	8000958 <HAL_RCC_OscConfig+0x19c>
 8000914:	f507 7302 	add.w	r3, r7, #520	; 0x208
 8000918:	f5a3 7301 	sub.w	r3, r3, #516	; 0x204
 800091c:	681b      	ldr	r3, [r3, #0]
 800091e:	685b      	ldr	r3, [r3, #4]
 8000920:	f5b3 2fa0 	cmp.w	r3, #327680	; 0x50000
 8000924:	d10c      	bne.n	8000940 <HAL_RCC_OscConfig+0x184>
 8000926:	4b6a      	ldr	r3, [pc, #424]	; (8000ad0 <HAL_RCC_OscConfig+0x314>)
 8000928:	681b      	ldr	r3, [r3, #0]
 800092a:	4a69      	ldr	r2, [pc, #420]	; (8000ad0 <HAL_RCC_OscConfig+0x314>)
 800092c:	f443 2380 	orr.w	r3, r3, #262144	; 0x40000
 8000930:	6013      	str	r3, [r2, #0]
 8000932:	4b67      	ldr	r3, [pc, #412]	; (8000ad0 <HAL_RCC_OscConfig+0x314>)
 8000934:	681b      	ldr	r3, [r3, #0]
 8000936:	4a66      	ldr	r2, [pc, #408]	; (8000ad0 <HAL_RCC_OscConfig+0x314>)
 8000938:	f443 3380 	orr.w	r3, r3, #65536	; 0x10000
 800093c:	6013      	str	r3, [r2, #0]
 800093e:	e00b      	b.n	8000958 <HAL_RCC_OscConfig+0x19c>
 8000940:	4b63      	ldr	r3, [pc, #396]	; (8000ad0 <HAL_RCC_OscConfig+0x314>)
 8000942:	681b      	ldr	r3, [r3, #0]
 8000944:	4a62      	ldr	r2, [pc, #392]	; (8000ad0 <HAL_RCC_OscConfig+0x314>)
 8000946:	f423 3380 	bic.w	r3, r3, #65536	; 0x10000
 800094a:	6013      	str	r3, [r2, #0]
 800094c:	4b60      	ldr	r3, [pc, #384]	; (8000ad0 <HAL_RCC_OscConfig+0x314>)
 800094e:	681b      	ldr	r3, [r3, #0]
 8000950:	4a5f      	ldr	r2, [pc, #380]	; (8000ad0 <HAL_RCC_OscConfig+0x314>)
 8000952:	f423 2380 	bic.w	r3, r3, #262144	; 0x40000
 8000956:	6013      	str	r3, [r2, #0]
      /* Configure the HSE predivision factor --------------------------------*/
      __HAL_RCC_HSE_PREDIV_CONFIG(RCC_OscInitStruct->HSEPredivValue);
#endif /* RCC_CFGR_PLLSRC_HSI_DIV2 */

       /* Check the HSE State */
      if(RCC_OscInitStruct->HSEState != RCC_HSE_OFF)
 8000958:	f507 7302 	add.w	r3, r7, #520	; 0x208
 800095c:	f5a3 7301 	sub.w	r3, r3, #516	; 0x204
 8000960:	681b      	ldr	r3, [r3, #0]
 8000962:	685b      	ldr	r3, [r3, #4]
 8000964:	2b00      	cmp	r3, #0
 8000966:	d059      	beq.n	8000a1c <HAL_RCC_OscConfig+0x260>
      {
        /* Get Start Tick */
        tickstart = HAL_GetTick();
 8000968:	f7ff fe36 	bl	80005d8 <HAL_GetTick>
 800096c:	f8c7 0200 	str.w	r0, [r7, #512]	; 0x200
        
        /* Wait till HSE is ready */
        while(__HAL_RCC_GET_FLAG(RCC_FLAG_HSERDY) == RESET)
 8000970:	e00a      	b.n	8000988 <HAL_RCC_OscConfig+0x1cc>
        {
          if((HAL_GetTick() - tickstart ) > HSE_TIMEOUT_VALUE)
 8000972:	f7ff fe31 	bl	80005d8 <HAL_GetTick>
 8000976:	4602      	mov	r2, r0
 8000978:	f8d7 3200 	ldr.w	r3, [r7, #512]	; 0x200
 800097c:	1ad3      	subs	r3, r2, r3
 800097e:	2b64      	cmp	r3, #100	; 0x64
 8000980:	d902      	bls.n	8000988 <HAL_RCC_OscConfig+0x1cc>
          {
            return HAL_TIMEOUT;
 8000982:	2303      	movs	r3, #3
 8000984:	f000 bf67 	b.w	8001856 <HAL_RCC_OscConfig+0x109a>
 8000988:	f44f 3300 	mov.w	r3, #131072	; 0x20000
 800098c:	f8c7 31d4 	str.w	r3, [r7, #468]	; 0x1d4
   __ASM volatile ("rbit %0, %1" : "=r" (result) : "r" (value) );
 8000990:	f8d7 31d4 	ldr.w	r3, [r7, #468]	; 0x1d4
 8000994:	fa93 f3a3 	rbit	r3, r3
 8000998:	f8c7 31d0 	str.w	r3, [r7, #464]	; 0x1d0
  return result;
 800099c:	f8d7 31d0 	ldr.w	r3, [r7, #464]	; 0x1d0
        while(__HAL_RCC_GET_FLAG(RCC_FLAG_HSERDY) == RESET)
 80009a0:	fab3 f383 	clz	r3, r3
 80009a4:	b2db      	uxtb	r3, r3
 80009a6:	095b      	lsrs	r3, r3, #5
 80009a8:	b2db      	uxtb	r3, r3
 80009aa:	f043 0301 	orr.w	r3, r3, #1
 80009ae:	b2db      	uxtb	r3, r3
 80009b0:	2b01      	cmp	r3, #1
 80009b2:	d102      	bne.n	80009ba <HAL_RCC_OscConfig+0x1fe>
 80009b4:	4b46      	ldr	r3, [pc, #280]	; (8000ad0 <HAL_RCC_OscConfig+0x314>)
 80009b6:	681b      	ldr	r3, [r3, #0]
 80009b8:	e015      	b.n	80009e6 <HAL_RCC_OscConfig+0x22a>
 80009ba:	f44f 3300 	mov.w	r3, #131072	; 0x20000
 80009be:	f8c7 31cc 	str.w	r3, [r7, #460]	; 0x1cc
   __ASM volatile ("rbit %0, %1" : "=r" (result) : "r" (value) );
 80009c2:	f8d7 31cc 	ldr.w	r3, [r7, #460]	; 0x1cc
 80009c6:	fa93 f3a3 	rbit	r3, r3
 80009ca:	f8c7 31c8 	str.w	r3, [r7, #456]	; 0x1c8
 80009ce:	f44f 3300 	mov.w	r3, #131072	; 0x20000
 80009d2:	f8c7 31c4 	str.w	r3, [r7, #452]	; 0x1c4
 80009d6:	f8d7 31c4 	ldr.w	r3, [r7, #452]	; 0x1c4
 80009da:	fa93 f3a3 	rbit	r3, r3
 80009de:	f8c7 31c0 	str.w	r3, [r7, #448]	; 0x1c0
 80009e2:	4b3b      	ldr	r3, [pc, #236]	; (8000ad0 <HAL_RCC_OscConfig+0x314>)
 80009e4:	6a5b      	ldr	r3, [r3, #36]	; 0x24
 80009e6:	f44f 3200 	mov.w	r2, #131072	; 0x20000
 80009ea:	f8c7 21bc 	str.w	r2, [r7, #444]	; 0x1bc
 80009ee:	f8d7 21bc 	ldr.w	r2, [r7, #444]	; 0x1bc
 80009f2:	fa92 f2a2 	rbit	r2, r2
 80009f6:	f8c7 21b8 	str.w	r2, [r7, #440]	; 0x1b8
  return result;
 80009fa:	f8d7 21b8 	ldr.w	r2, [r7, #440]	; 0x1b8
 80009fe:	fab2 f282 	clz	r2, r2
 8000a02:	b2d2      	uxtb	r2, r2
 8000a04:	f042 0220 	orr.w	r2, r2, #32
 8000a08:	b2d2      	uxtb	r2, r2
 8000a0a:	f002 021f 	and.w	r2, r2, #31
 8000a0e:	2101      	movs	r1, #1
 8000a10:	fa01 f202 	lsl.w	r2, r1, r2
 8000a14:	4013      	ands	r3, r2
 8000a16:	2b00      	cmp	r3, #0
 8000a18:	d0ab      	beq.n	8000972 <HAL_RCC_OscConfig+0x1b6>
 8000a1a:	e05c      	b.n	8000ad6 <HAL_RCC_OscConfig+0x31a>
        }
      }
      else
      {
        /* Get Start Tick */
        tickstart = HAL_GetTick();
 8000a1c:	f7ff fddc 	bl	80005d8 <HAL_GetTick>
 8000a20:	f8c7 0200 	str.w	r0, [r7, #512]	; 0x200
        
        /* Wait till HSE is disabled */
        while(__HAL_RCC_GET_FLAG(RCC_FLAG_HSERDY) != RESET)
 8000a24:	e00a      	b.n	8000a3c <HAL_RCC_OscConfig+0x280>
        {
           if((HAL_GetTick() - tickstart ) > HSE_TIMEOUT_VALUE)
 8000a26:	f7ff fdd7 	bl	80005d8 <HAL_GetTick>
 8000a2a:	4602      	mov	r2, r0
 8000a2c:	f8d7 3200 	ldr.w	r3, [r7, #512]	; 0x200
 8000a30:	1ad3      	subs	r3, r2, r3
 8000a32:	2b64      	cmp	r3, #100	; 0x64
 8000a34:	d902      	bls.n	8000a3c <HAL_RCC_OscConfig+0x280>
          {
            return HAL_TIMEOUT;
 8000a36:	2303      	movs	r3, #3
 8000a38:	f000 bf0d 	b.w	8001856 <HAL_RCC_OscConfig+0x109a>
 8000a3c:	f44f 3300 	mov.w	r3, #131072	; 0x20000
 8000a40:	f8c7 31b4 	str.w	r3, [r7, #436]	; 0x1b4
   __ASM volatile ("rbit %0, %1" : "=r" (result) : "r" (value) );
 8000a44:	f8d7 31b4 	ldr.w	r3, [r7, #436]	; 0x1b4
 8000a48:	fa93 f3a3 	rbit	r3, r3
 8000a4c:	f8c7 31b0 	str.w	r3, [r7, #432]	; 0x1b0
  return result;
 8000a50:	f8d7 31b0 	ldr.w	r3, [r7, #432]	; 0x1b0
        while(__HAL_RCC_GET_FLAG(RCC_FLAG_HSERDY) != RESET)
 8000a54:	fab3 f383 	clz	r3, r3
 8000a58:	b2db      	uxtb	r3, r3
 8000a5a:	095b      	lsrs	r3, r3, #5
 8000a5c:	b2db      	uxtb	r3, r3
 8000a5e:	f043 0301 	orr.w	r3, r3, #1
 8000a62:	b2db      	uxtb	r3, r3
 8000a64:	2b01      	cmp	r3, #1
 8000a66:	d102      	bne.n	8000a6e <HAL_RCC_OscConfig+0x2b2>
 8000a68:	4b19      	ldr	r3, [pc, #100]	; (8000ad0 <HAL_RCC_OscConfig+0x314>)
 8000a6a:	681b      	ldr	r3, [r3, #0]
 8000a6c:	e015      	b.n	8000a9a <HAL_RCC_OscConfig+0x2de>
 8000a6e:	f44f 3300 	mov.w	r3, #131072	; 0x20000
 8000a72:	f8c7 31ac 	str.w	r3, [r7, #428]	; 0x1ac
   __ASM volatile ("rbit %0, %1" : "=r" (result) : "r" (value) );
 8000a76:	f8d7 31ac 	ldr.w	r3, [r7, #428]	; 0x1ac
 8000a7a:	fa93 f3a3 	rbit	r3, r3
 8000a7e:	f8c7 31a8 	str.w	r3, [r7, #424]	; 0x1a8
 8000a82:	f44f 3300 	mov.w	r3, #131072	; 0x20000
 8000a86:	f8c7 31a4 	str.w	r3, [r7, #420]	; 0x1a4
 8000a8a:	f8d7 31a4 	ldr.w	r3, [r7, #420]	; 0x1a4
 8000a8e:	fa93 f3a3 	rbit	r3, r3
 8000a92:	f8c7 31a0 	str.w	r3, [r7, #416]	; 0x1a0
 8000a96:	4b0e      	ldr	r3, [pc, #56]	; (8000ad0 <HAL_RCC_OscConfig+0x314>)
 8000a98:	6a5b      	ldr	r3, [r3, #36]	; 0x24
 8000a9a:	f44f 3200 	mov.w	r2, #131072	; 0x20000
 8000a9e:	f8c7 219c 	str.w	r2, [r7, #412]	; 0x19c
 8000aa2:	f8d7 219c 	ldr.w	r2, [r7, #412]	; 0x19c
 8000aa6:	fa92 f2a2 	rbit	r2, r2
 8000aaa:	f8c7 2198 	str.w	r2, [r7, #408]	; 0x198
  return result;
 8000aae:	f8d7 2198 	ldr.w	r2, [r7, #408]	; 0x198
 8000ab2:	fab2 f282 	clz	r2, r2
 8000ab6:	b2d2      	uxtb	r2, r2
 8000ab8:	f042 0220 	orr.w	r2, r2, #32
 8000abc:	b2d2      	uxtb	r2, r2
 8000abe:	f002 021f 	and.w	r2, r2, #31
 8000ac2:	2101      	movs	r1, #1
 8000ac4:	fa01 f202 	lsl.w	r2, r1, r2
 8000ac8:	4013      	ands	r3, r2
 8000aca:	2b00      	cmp	r3, #0
 8000acc:	d1ab      	bne.n	8000a26 <HAL_RCC_OscConfig+0x26a>
 8000ace:	e002      	b.n	8000ad6 <HAL_RCC_OscConfig+0x31a>
 8000ad0:	40021000 	.word	0x40021000
      if((__HAL_RCC_GET_FLAG(RCC_FLAG_HSERDY) != RESET) && (RCC_OscInitStruct->HSEState == RCC_HSE_OFF))
 8000ad4:	bf00      	nop
        }
      }
    }
  }
  /*----------------------------- HSI Configuration --------------------------*/ 
  if(((RCC_OscInitStruct->OscillatorType) & RCC_OSCILLATORTYPE_HSI) == RCC_OSCILLATORTYPE_HSI)
 8000ad6:	f507 7302 	add.w	r3, r7, #520	; 0x208
 8000ada:	f5a3 7301 	sub.w	r3, r3, #516	; 0x204
 8000ade:	681b      	ldr	r3, [r3, #0]
 8000ae0:	681b      	ldr	r3, [r3, #0]
 8000ae2:	f003 0302 	and.w	r3, r3, #2
 8000ae6:	2b00      	cmp	r3, #0
 8000ae8:	f000 817f 	beq.w	8000dea <HAL_RCC_OscConfig+0x62e>
    /* Check the parameters */
    assert_param(IS_RCC_HSI(RCC_OscInitStruct->HSIState));
    assert_param(IS_RCC_CALIBRATION_VALUE(RCC_OscInitStruct->HSICalibrationValue));
    
    /* Check if HSI is used as system clock or as PLL source when PLL is selected as system clock */ 
    if((__HAL_RCC_GET_SYSCLK_SOURCE() == RCC_SYSCLKSOURCE_STATUS_HSI) 
 8000aec:	4ba7      	ldr	r3, [pc, #668]	; (8000d8c <HAL_RCC_OscConfig+0x5d0>)
 8000aee:	685b      	ldr	r3, [r3, #4]
 8000af0:	f003 030c 	and.w	r3, r3, #12
 8000af4:	2b00      	cmp	r3, #0
 8000af6:	d00c      	beq.n	8000b12 <HAL_RCC_OscConfig+0x356>
       || ((__HAL_RCC_GET_SYSCLK_SOURCE() == RCC_SYSCLKSOURCE_STATUS_PLLCLK) && (__HAL_RCC_GET_PLL_OSCSOURCE() == RCC_PLLSOURCE_HSI)))
 8000af8:	4ba4      	ldr	r3, [pc, #656]	; (8000d8c <HAL_RCC_OscConfig+0x5d0>)
 8000afa:	685b      	ldr	r3, [r3, #4]
 8000afc:	f003 030c 	and.w	r3, r3, #12
 8000b00:	2b08      	cmp	r3, #8
 8000b02:	d173      	bne.n	8000bec <HAL_RCC_OscConfig+0x430>
 8000b04:	4ba1      	ldr	r3, [pc, #644]	; (8000d8c <HAL_RCC_OscConfig+0x5d0>)
 8000b06:	685b      	ldr	r3, [r3, #4]
 8000b08:	f403 33c0 	and.w	r3, r3, #98304	; 0x18000
 8000b0c:	f5b3 4f00 	cmp.w	r3, #32768	; 0x8000
 8000b10:	d16c      	bne.n	8000bec <HAL_RCC_OscConfig+0x430>
 8000b12:	2302      	movs	r3, #2
 8000b14:	f8c7 3194 	str.w	r3, [r7, #404]	; 0x194
   __ASM volatile ("rbit %0, %1" : "=r" (result) : "r" (value) );
 8000b18:	f8d7 3194 	ldr.w	r3, [r7, #404]	; 0x194
 8000b1c:	fa93 f3a3 	rbit	r3, r3
 8000b20:	f8c7 3190 	str.w	r3, [r7, #400]	; 0x190
  return result;
 8000b24:	f8d7 3190 	ldr.w	r3, [r7, #400]	; 0x190
    {
      /* When HSI is used as system clock it will not disabled */
      if((__HAL_RCC_GET_FLAG(RCC_FLAG_HSIRDY) != RESET) && (RCC_OscInitStruct->HSIState != RCC_HSI_ON))
 8000b28:	fab3 f383 	clz	r3, r3
 8000b2c:	b2db      	uxtb	r3, r3
 8000b2e:	095b      	lsrs	r3, r3, #5
 8000b30:	b2db      	uxtb	r3, r3
 8000b32:	f043 0301 	orr.w	r3, r3, #1
 8000b36:	b2db      	uxtb	r3, r3
 8000b38:	2b01      	cmp	r3, #1
 8000b3a:	d102      	bne.n	8000b42 <HAL_RCC_OscConfig+0x386>
 8000b3c:	4b93      	ldr	r3, [pc, #588]	; (8000d8c <HAL_RCC_OscConfig+0x5d0>)
 8000b3e:	681b      	ldr	r3, [r3, #0]
 8000b40:	e013      	b.n	8000b6a <HAL_RCC_OscConfig+0x3ae>
 8000b42:	2302      	movs	r3, #2
 8000b44:	f8c7 318c 	str.w	r3, [r7, #396]	; 0x18c
   __ASM volatile ("rbit %0, %1" : "=r" (result) : "r" (value) );
 8000b48:	f8d7 318c 	ldr.w	r3, [r7, #396]	; 0x18c
 8000b4c:	fa93 f3a3 	rbit	r3, r3
 8000b50:	f8c7 3188 	str.w	r3, [r7, #392]	; 0x188
 8000b54:	2302      	movs	r3, #2
 8000b56:	f8c7 3184 	str.w	r3, [r7, #388]	; 0x184
 8000b5a:	f8d7 3184 	ldr.w	r3, [r7, #388]	; 0x184
 8000b5e:	fa93 f3a3 	rbit	r3, r3
 8000b62:	f8c7 3180 	str.w	r3, [r7, #384]	; 0x180
 8000b66:	4b89      	ldr	r3, [pc, #548]	; (8000d8c <HAL_RCC_OscConfig+0x5d0>)
 8000b68:	6a5b      	ldr	r3, [r3, #36]	; 0x24
 8000b6a:	2202      	movs	r2, #2
 8000b6c:	f8c7 217c 	str.w	r2, [r7, #380]	; 0x17c
 8000b70:	f8d7 217c 	ldr.w	r2, [r7, #380]	; 0x17c
 8000b74:	fa92 f2a2 	rbit	r2, r2
 8000b78:	f8c7 2178 	str.w	r2, [r7, #376]	; 0x178
  return result;
 8000b7c:	f8d7 2178 	ldr.w	r2, [r7, #376]	; 0x178
 8000b80:	fab2 f282 	clz	r2, r2
 8000b84:	b2d2      	uxtb	r2, r2
 8000b86:	f042 0220 	orr.w	r2, r2, #32
 8000b8a:	b2d2      	uxtb	r2, r2
 8000b8c:	f002 021f 	and.w	r2, r2, #31
 8000b90:	2101      	movs	r1, #1
 8000b92:	fa01 f202 	lsl.w	r2, r1, r2
 8000b96:	4013      	ands	r3, r2
 8000b98:	2b00      	cmp	r3, #0
 8000b9a:	d00a      	beq.n	8000bb2 <HAL_RCC_OscConfig+0x3f6>
 8000b9c:	f507 7302 	add.w	r3, r7, #520	; 0x208
 8000ba0:	f5a3 7301 	sub.w	r3, r3, #516	; 0x204
 8000ba4:	681b      	ldr	r3, [r3, #0]
 8000ba6:	68db      	ldr	r3, [r3, #12]
 8000ba8:	2b01      	cmp	r3, #1
 8000baa:	d002      	beq.n	8000bb2 <HAL_RCC_OscConfig+0x3f6>
      {
        return HAL_ERROR;
 8000bac:	2301      	movs	r3, #1
 8000bae:	f000 be52 	b.w	8001856 <HAL_RCC_OscConfig+0x109a>
      }
      /* Otherwise, just the calibration is allowed */
      else
      {
        /* Adjusts the Internal High Speed oscillator (HSI) calibration value.*/
        __HAL_RCC_HSI_CALIBRATIONVALUE_ADJUST(RCC_OscInitStruct->HSICalibrationValue);
 8000bb2:	4b76      	ldr	r3, [pc, #472]	; (8000d8c <HAL_RCC_OscConfig+0x5d0>)
 8000bb4:	681b      	ldr	r3, [r3, #0]
 8000bb6:	f023 02f8 	bic.w	r2, r3, #248	; 0xf8
 8000bba:	f507 7302 	add.w	r3, r7, #520	; 0x208
 8000bbe:	f5a3 7301 	sub.w	r3, r3, #516	; 0x204
 8000bc2:	681b      	ldr	r3, [r3, #0]
 8000bc4:	691b      	ldr	r3, [r3, #16]
 8000bc6:	21f8      	movs	r1, #248	; 0xf8
 8000bc8:	f8c7 1174 	str.w	r1, [r7, #372]	; 0x174
   __ASM volatile ("rbit %0, %1" : "=r" (result) : "r" (value) );
 8000bcc:	f8d7 1174 	ldr.w	r1, [r7, #372]	; 0x174
 8000bd0:	fa91 f1a1 	rbit	r1, r1
 8000bd4:	f8c7 1170 	str.w	r1, [r7, #368]	; 0x170
  return result;
 8000bd8:	f8d7 1170 	ldr.w	r1, [r7, #368]	; 0x170
 8000bdc:	fab1 f181 	clz	r1, r1
 8000be0:	b2c9      	uxtb	r1, r1
 8000be2:	408b      	lsls	r3, r1
 8000be4:	4969      	ldr	r1, [pc, #420]	; (8000d8c <HAL_RCC_OscConfig+0x5d0>)
 8000be6:	4313      	orrs	r3, r2
 8000be8:	600b      	str	r3, [r1, #0]
      if((__HAL_RCC_GET_FLAG(RCC_FLAG_HSIRDY) != RESET) && (RCC_OscInitStruct->HSIState != RCC_HSI_ON))
 8000bea:	e0fe      	b.n	8000dea <HAL_RCC_OscConfig+0x62e>
      }
    }
    else
    {
      /* Check the HSI State */
      if(RCC_OscInitStruct->HSIState != RCC_HSI_OFF)
 8000bec:	f507 7302 	add.w	r3, r7, #520	; 0x208
 8000bf0:	f5a3 7301 	sub.w	r3, r3, #516	; 0x204
 8000bf4:	681b      	ldr	r3, [r3, #0]
 8000bf6:	68db      	ldr	r3, [r3, #12]
 8000bf8:	2b00      	cmp	r3, #0
 8000bfa:	f000 8088 	beq.w	8000d0e <HAL_RCC_OscConfig+0x552>
 8000bfe:	2301      	movs	r3, #1
 8000c00:	f8c7 316c 	str.w	r3, [r7, #364]	; 0x16c
   __ASM volatile ("rbit %0, %1" : "=r" (result) : "r" (value) );
 8000c04:	f8d7 316c 	ldr.w	r3, [r7, #364]	; 0x16c
 8000c08:	fa93 f3a3 	rbit	r3, r3
 8000c0c:	f8c7 3168 	str.w	r3, [r7, #360]	; 0x168
  return result;
 8000c10:	f8d7 3168 	ldr.w	r3, [r7, #360]	; 0x168
      {
       /* Enable the Internal High Speed oscillator (HSI). */
        __HAL_RCC_HSI_ENABLE();
 8000c14:	fab3 f383 	clz	r3, r3
 8000c18:	b2db      	uxtb	r3, r3
 8000c1a:	f103 5384 	add.w	r3, r3, #276824064	; 0x10800000
 8000c1e:	f503 1384 	add.w	r3, r3, #1081344	; 0x108000
 8000c22:	009b      	lsls	r3, r3, #2
 8000c24:	461a      	mov	r2, r3
 8000c26:	2301      	movs	r3, #1
 8000c28:	6013      	str	r3, [r2, #0]
        
        /* Get Start Tick */
        tickstart = HAL_GetTick();
 8000c2a:	f7ff fcd5 	bl	80005d8 <HAL_GetTick>
 8000c2e:	f8c7 0200 	str.w	r0, [r7, #512]	; 0x200
        
        /* Wait till HSI is ready */
        while(__HAL_RCC_GET_FLAG(RCC_FLAG_HSIRDY) == RESET)
 8000c32:	e00a      	b.n	8000c4a <HAL_RCC_OscConfig+0x48e>
        {
          if((HAL_GetTick() - tickstart ) > HSI_TIMEOUT_VALUE)
 8000c34:	f7ff fcd0 	bl	80005d8 <HAL_GetTick>
 8000c38:	4602      	mov	r2, r0
 8000c3a:	f8d7 3200 	ldr.w	r3, [r7, #512]	; 0x200
 8000c3e:	1ad3      	subs	r3, r2, r3
 8000c40:	2b02      	cmp	r3, #2
 8000c42:	d902      	bls.n	8000c4a <HAL_RCC_OscConfig+0x48e>
          {
            return HAL_TIMEOUT;
 8000c44:	2303      	movs	r3, #3
 8000c46:	f000 be06 	b.w	8001856 <HAL_RCC_OscConfig+0x109a>
 8000c4a:	2302      	movs	r3, #2
 8000c4c:	f8c7 3164 	str.w	r3, [r7, #356]	; 0x164
   __ASM volatile ("rbit %0, %1" : "=r" (result) : "r" (value) );
 8000c50:	f8d7 3164 	ldr.w	r3, [r7, #356]	; 0x164
 8000c54:	fa93 f3a3 	rbit	r3, r3
 8000c58:	f8c7 3160 	str.w	r3, [r7, #352]	; 0x160
  return result;
 8000c5c:	f8d7 3160 	ldr.w	r3, [r7, #352]	; 0x160
        while(__HAL_RCC_GET_FLAG(RCC_FLAG_HSIRDY) == RESET)
 8000c60:	fab3 f383 	clz	r3, r3
 8000c64:	b2db      	uxtb	r3, r3
 8000c66:	095b      	lsrs	r3, r3, #5
 8000c68:	b2db      	uxtb	r3, r3
 8000c6a:	f043 0301 	orr.w	r3, r3, #1
 8000c6e:	b2db      	uxtb	r3, r3
 8000c70:	2b01      	cmp	r3, #1
 8000c72:	d102      	bne.n	8000c7a <HAL_RCC_OscConfig+0x4be>
 8000c74:	4b45      	ldr	r3, [pc, #276]	; (8000d8c <HAL_RCC_OscConfig+0x5d0>)
 8000c76:	681b      	ldr	r3, [r3, #0]
 8000c78:	e013      	b.n	8000ca2 <HAL_RCC_OscConfig+0x4e6>
 8000c7a:	2302      	movs	r3, #2
 8000c7c:	f8c7 315c 	str.w	r3, [r7, #348]	; 0x15c
   __ASM volatile ("rbit %0, %1" : "=r" (result) : "r" (value) );
 8000c80:	f8d7 315c 	ldr.w	r3, [r7, #348]	; 0x15c
 8000c84:	fa93 f3a3 	rbit	r3, r3
 8000c88:	f8c7 3158 	str.w	r3, [r7, #344]	; 0x158
 8000c8c:	2302      	movs	r3, #2
 8000c8e:	f8c7 3154 	str.w	r3, [r7, #340]	; 0x154
 8000c92:	f8d7 3154 	ldr.w	r3, [r7, #340]	; 0x154
 8000c96:	fa93 f3a3 	rbit	r3, r3
 8000c9a:	f8c7 3150 	str.w	r3, [r7, #336]	; 0x150
 8000c9e:	4b3b      	ldr	r3, [pc, #236]	; (8000d8c <HAL_RCC_OscConfig+0x5d0>)
 8000ca0:	6a5b      	ldr	r3, [r3, #36]	; 0x24
 8000ca2:	2202      	movs	r2, #2
 8000ca4:	f8c7 214c 	str.w	r2, [r7, #332]	; 0x14c
 8000ca8:	f8d7 214c 	ldr.w	r2, [r7, #332]	; 0x14c
 8000cac:	fa92 f2a2 	rbit	r2, r2
 8000cb0:	f8c7 2148 	str.w	r2, [r7, #328]	; 0x148
  return result;
 8000cb4:	f8d7 2148 	ldr.w	r2, [r7, #328]	; 0x148
 8000cb8:	fab2 f282 	clz	r2, r2
 8000cbc:	b2d2      	uxtb	r2, r2
 8000cbe:	f042 0220 	orr.w	r2, r2, #32
 8000cc2:	b2d2      	uxtb	r2, r2
 8000cc4:	f002 021f 	and.w	r2, r2, #31
 8000cc8:	2101      	movs	r1, #1
 8000cca:	fa01 f202 	lsl.w	r2, r1, r2
 8000cce:	4013      	ands	r3, r2
 8000cd0:	2b00      	cmp	r3, #0
 8000cd2:	d0af      	beq.n	8000c34 <HAL_RCC_OscConfig+0x478>
          }
        }
                
        /* Adjusts the Internal High Speed oscillator (HSI) calibration value.*/
        __HAL_RCC_HSI_CALIBRATIONVALUE_ADJUST(RCC_OscInitStruct->HSICalibrationValue);
 8000cd4:	4b2d      	ldr	r3, [pc, #180]	; (8000d8c <HAL_RCC_OscConfig+0x5d0>)
 8000cd6:	681b      	ldr	r3, [r3, #0]
 8000cd8:	f023 02f8 	bic.w	r2, r3, #248	; 0xf8
 8000cdc:	f507 7302 	add.w	r3, r7, #520	; 0x208
 8000ce0:	f5a3 7301 	sub.w	r3, r3, #516	; 0x204
 8000ce4:	681b      	ldr	r3, [r3, #0]
 8000ce6:	691b      	ldr	r3, [r3, #16]
 8000ce8:	21f8      	movs	r1, #248	; 0xf8
 8000cea:	f8c7 1144 	str.w	r1, [r7, #324]	; 0x144
   __ASM volatile ("rbit %0, %1" : "=r" (result) : "r" (value) );
 8000cee:	f8d7 1144 	ldr.w	r1, [r7, #324]	; 0x144
 8000cf2:	fa91 f1a1 	rbit	r1, r1
 8000cf6:	f8c7 1140 	str.w	r1, [r7, #320]	; 0x140
  return result;
 8000cfa:	f8d7 1140 	ldr.w	r1, [r7, #320]	; 0x140
 8000cfe:	fab1 f181 	clz	r1, r1
 8000d02:	b2c9      	uxtb	r1, r1
 8000d04:	408b      	lsls	r3, r1
 8000d06:	4921      	ldr	r1, [pc, #132]	; (8000d8c <HAL_RCC_OscConfig+0x5d0>)
 8000d08:	4313      	orrs	r3, r2
 8000d0a:	600b      	str	r3, [r1, #0]
 8000d0c:	e06d      	b.n	8000dea <HAL_RCC_OscConfig+0x62e>
 8000d0e:	2301      	movs	r3, #1
 8000d10:	f8c7 313c 	str.w	r3, [r7, #316]	; 0x13c
   __ASM volatile ("rbit %0, %1" : "=r" (result) : "r" (value) );
 8000d14:	f8d7 313c 	ldr.w	r3, [r7, #316]	; 0x13c
 8000d18:	fa93 f3a3 	rbit	r3, r3
 8000d1c:	f8c7 3138 	str.w	r3, [r7, #312]	; 0x138
  return result;
 8000d20:	f8d7 3138 	ldr.w	r3, [r7, #312]	; 0x138
      }
      else
      {
        /* Disable the Internal High Speed oscillator (HSI). */
        __HAL_RCC_HSI_DISABLE();
 8000d24:	fab3 f383 	clz	r3, r3
 8000d28:	b2db      	uxtb	r3, r3
 8000d2a:	f103 5384 	add.w	r3, r3, #276824064	; 0x10800000
 8000d2e:	f503 1384 	add.w	r3, r3, #1081344	; 0x108000
 8000d32:	009b      	lsls	r3, r3, #2
 8000d34:	461a      	mov	r2, r3
 8000d36:	2300      	movs	r3, #0
 8000d38:	6013      	str	r3, [r2, #0]
        
        /* Get Start Tick */
        tickstart = HAL_GetTick();
 8000d3a:	f7ff fc4d 	bl	80005d8 <HAL_GetTick>
 8000d3e:	f8c7 0200 	str.w	r0, [r7, #512]	; 0x200
        
        /* Wait till HSI is disabled */
        while(__HAL_RCC_GET_FLAG(RCC_FLAG_HSIRDY) != RESET)
 8000d42:	e00a      	b.n	8000d5a <HAL_RCC_OscConfig+0x59e>
        {
          if((HAL_GetTick() - tickstart ) > HSI_TIMEOUT_VALUE)
 8000d44:	f7ff fc48 	bl	80005d8 <HAL_GetTick>
 8000d48:	4602      	mov	r2, r0
 8000d4a:	f8d7 3200 	ldr.w	r3, [r7, #512]	; 0x200
 8000d4e:	1ad3      	subs	r3, r2, r3
 8000d50:	2b02      	cmp	r3, #2
 8000d52:	d902      	bls.n	8000d5a <HAL_RCC_OscConfig+0x59e>
          {
            return HAL_TIMEOUT;
 8000d54:	2303      	movs	r3, #3
 8000d56:	f000 bd7e 	b.w	8001856 <HAL_RCC_OscConfig+0x109a>
 8000d5a:	2302      	movs	r3, #2
 8000d5c:	f8c7 3134 	str.w	r3, [r7, #308]	; 0x134
   __ASM volatile ("rbit %0, %1" : "=r" (result) : "r" (value) );
 8000d60:	f8d7 3134 	ldr.w	r3, [r7, #308]	; 0x134
 8000d64:	fa93 f3a3 	rbit	r3, r3
 8000d68:	f8c7 3130 	str.w	r3, [r7, #304]	; 0x130
  return result;
 8000d6c:	f8d7 3130 	ldr.w	r3, [r7, #304]	; 0x130
        while(__HAL_RCC_GET_FLAG(RCC_FLAG_HSIRDY) != RESET)
 8000d70:	fab3 f383 	clz	r3, r3
 8000d74:	b2db      	uxtb	r3, r3
 8000d76:	095b      	lsrs	r3, r3, #5
 8000d78:	b2db      	uxtb	r3, r3
 8000d7a:	f043 0301 	orr.w	r3, r3, #1
 8000d7e:	b2db      	uxtb	r3, r3
 8000d80:	2b01      	cmp	r3, #1
 8000d82:	d105      	bne.n	8000d90 <HAL_RCC_OscConfig+0x5d4>
 8000d84:	4b01      	ldr	r3, [pc, #4]	; (8000d8c <HAL_RCC_OscConfig+0x5d0>)
 8000d86:	681b      	ldr	r3, [r3, #0]
 8000d88:	e016      	b.n	8000db8 <HAL_RCC_OscConfig+0x5fc>
 8000d8a:	bf00      	nop
 8000d8c:	40021000 	.word	0x40021000
 8000d90:	2302      	movs	r3, #2
 8000d92:	f8c7 312c 	str.w	r3, [r7, #300]	; 0x12c
   __ASM volatile ("rbit %0, %1" : "=r" (result) : "r" (value) );
 8000d96:	f8d7 312c 	ldr.w	r3, [r7, #300]	; 0x12c
 8000d9a:	fa93 f3a3 	rbit	r3, r3
 8000d9e:	f8c7 3128 	str.w	r3, [r7, #296]	; 0x128
 8000da2:	2302      	movs	r3, #2
 8000da4:	f8c7 3124 	str.w	r3, [r7, #292]	; 0x124
 8000da8:	f8d7 3124 	ldr.w	r3, [r7, #292]	; 0x124
 8000dac:	fa93 f3a3 	rbit	r3, r3
 8000db0:	f8c7 3120 	str.w	r3, [r7, #288]	; 0x120
 8000db4:	4bbf      	ldr	r3, [pc, #764]	; (80010b4 <HAL_RCC_OscConfig+0x8f8>)
 8000db6:	6a5b      	ldr	r3, [r3, #36]	; 0x24
 8000db8:	2202      	movs	r2, #2
 8000dba:	f8c7 211c 	str.w	r2, [r7, #284]	; 0x11c
 8000dbe:	f8d7 211c 	ldr.w	r2, [r7, #284]	; 0x11c
 8000dc2:	fa92 f2a2 	rbit	r2, r2
 8000dc6:	f8c7 2118 	str.w	r2, [r7, #280]	; 0x118
  return result;
 8000dca:	f8d7 2118 	ldr.w	r2, [r7, #280]	; 0x118
 8000dce:	fab2 f282 	clz	r2, r2
 8000dd2:	b2d2      	uxtb	r2, r2
 8000dd4:	f042 0220 	orr.w	r2, r2, #32
 8000dd8:	b2d2      	uxtb	r2, r2
 8000dda:	f002 021f 	and.w	r2, r2, #31
 8000dde:	2101      	movs	r1, #1
 8000de0:	fa01 f202 	lsl.w	r2, r1, r2
 8000de4:	4013      	ands	r3, r2
 8000de6:	2b00      	cmp	r3, #0
 8000de8:	d1ac      	bne.n	8000d44 <HAL_RCC_OscConfig+0x588>
        }
      }
    }
  }
  /*------------------------------ LSI Configuration -------------------------*/ 
  if(((RCC_OscInitStruct->OscillatorType) & RCC_OSCILLATORTYPE_LSI) == RCC_OSCILLATORTYPE_LSI)
 8000dea:	f507 7302 	add.w	r3, r7, #520	; 0x208
 8000dee:	f5a3 7301 	sub.w	r3, r3, #516	; 0x204
 8000df2:	681b      	ldr	r3, [r3, #0]
 8000df4:	681b      	ldr	r3, [r3, #0]
 8000df6:	f003 0308 	and.w	r3, r3, #8
 8000dfa:	2b00      	cmp	r3, #0
 8000dfc:	f000 8113 	beq.w	8001026 <HAL_RCC_OscConfig+0x86a>
  {
    /* Check the parameters */
    assert_param(IS_RCC_LSI(RCC_OscInitStruct->LSIState));
    
    /* Check the LSI State */
    if(RCC_OscInitStruct->LSIState != RCC_LSI_OFF)
 8000e00:	f507 7302 	add.w	r3, r7, #520	; 0x208
 8000e04:	f5a3 7301 	sub.w	r3, r3, #516	; 0x204
 8000e08:	681b      	ldr	r3, [r3, #0]
 8000e0a:	695b      	ldr	r3, [r3, #20]
 8000e0c:	2b00      	cmp	r3, #0
 8000e0e:	d07c      	beq.n	8000f0a <HAL_RCC_OscConfig+0x74e>
 8000e10:	2301      	movs	r3, #1
 8000e12:	f8c7 3114 	str.w	r3, [r7, #276]	; 0x114
   __ASM volatile ("rbit %0, %1" : "=r" (result) : "r" (value) );
 8000e16:	f8d7 3114 	ldr.w	r3, [r7, #276]	; 0x114
 8000e1a:	fa93 f3a3 	rbit	r3, r3
 8000e1e:	f8c7 3110 	str.w	r3, [r7, #272]	; 0x110
  return result;
 8000e22:	f8d7 3110 	ldr.w	r3, [r7, #272]	; 0x110
    {
      /* Enable the Internal Low Speed oscillator (LSI). */
      __HAL_RCC_LSI_ENABLE();
 8000e26:	fab3 f383 	clz	r3, r3
 8000e2a:	b2db      	uxtb	r3, r3
 8000e2c:	461a      	mov	r2, r3
 8000e2e:	4ba2      	ldr	r3, [pc, #648]	; (80010b8 <HAL_RCC_OscConfig+0x8fc>)
 8000e30:	4413      	add	r3, r2
 8000e32:	009b      	lsls	r3, r3, #2
 8000e34:	461a      	mov	r2, r3
 8000e36:	2301      	movs	r3, #1
 8000e38:	6013      	str	r3, [r2, #0]
      
      /* Get Start Tick */
      tickstart = HAL_GetTick();
 8000e3a:	f7ff fbcd 	bl	80005d8 <HAL_GetTick>
 8000e3e:	f8c7 0200 	str.w	r0, [r7, #512]	; 0x200
      
      /* Wait till LSI is ready */  
      while(__HAL_RCC_GET_FLAG(RCC_FLAG_LSIRDY) == RESET)
 8000e42:	e00a      	b.n	8000e5a <HAL_RCC_OscConfig+0x69e>
      {
        if((HAL_GetTick() - tickstart ) > LSI_TIMEOUT_VALUE)
 8000e44:	f7ff fbc8 	bl	80005d8 <HAL_GetTick>
 8000e48:	4602      	mov	r2, r0
 8000e4a:	f8d7 3200 	ldr.w	r3, [r7, #512]	; 0x200
 8000e4e:	1ad3      	subs	r3, r2, r3
 8000e50:	2b02      	cmp	r3, #2
 8000e52:	d902      	bls.n	8000e5a <HAL_RCC_OscConfig+0x69e>
        {
          return HAL_TIMEOUT;
 8000e54:	2303      	movs	r3, #3
 8000e56:	f000 bcfe 	b.w	8001856 <HAL_RCC_OscConfig+0x109a>
 8000e5a:	2302      	movs	r3, #2
 8000e5c:	f8c7 310c 	str.w	r3, [r7, #268]	; 0x10c
   __ASM volatile ("rbit %0, %1" : "=r" (result) : "r" (value) );
 8000e60:	f8d7 310c 	ldr.w	r3, [r7, #268]	; 0x10c
 8000e64:	fa93 f2a3 	rbit	r2, r3
 8000e68:	f507 7302 	add.w	r3, r7, #520	; 0x208
 8000e6c:	f5a3 7380 	sub.w	r3, r3, #256	; 0x100
 8000e70:	601a      	str	r2, [r3, #0]
 8000e72:	f507 7302 	add.w	r3, r7, #520	; 0x208
 8000e76:	f5a3 7382 	sub.w	r3, r3, #260	; 0x104
 8000e7a:	2202      	movs	r2, #2
 8000e7c:	601a      	str	r2, [r3, #0]
 8000e7e:	f507 7302 	add.w	r3, r7, #520	; 0x208
 8000e82:	f5a3 7382 	sub.w	r3, r3, #260	; 0x104
 8000e86:	681b      	ldr	r3, [r3, #0]
 8000e88:	fa93 f2a3 	rbit	r2, r3
 8000e8c:	f507 7302 	add.w	r3, r7, #520	; 0x208
 8000e90:	f5a3 7384 	sub.w	r3, r3, #264	; 0x108
 8000e94:	601a      	str	r2, [r3, #0]
 8000e96:	f507 7302 	add.w	r3, r7, #520	; 0x208
 8000e9a:	f5a3 7386 	sub.w	r3, r3, #268	; 0x10c
 8000e9e:	2202      	movs	r2, #2
 8000ea0:	601a      	str	r2, [r3, #0]
 8000ea2:	f507 7302 	add.w	r3, r7, #520	; 0x208
 8000ea6:	f5a3 7386 	sub.w	r3, r3, #268	; 0x10c
 8000eaa:	681b      	ldr	r3, [r3, #0]
 8000eac:	fa93 f2a3 	rbit	r2, r3
 8000eb0:	f507 7302 	add.w	r3, r7, #520	; 0x208
 8000eb4:	f5a3 7388 	sub.w	r3, r3, #272	; 0x110
 8000eb8:	601a      	str	r2, [r3, #0]
      while(__HAL_RCC_GET_FLAG(RCC_FLAG_LSIRDY) == RESET)
 8000eba:	4b7e      	ldr	r3, [pc, #504]	; (80010b4 <HAL_RCC_OscConfig+0x8f8>)
 8000ebc:	6a5a      	ldr	r2, [r3, #36]	; 0x24
 8000ebe:	f507 7302 	add.w	r3, r7, #520	; 0x208
 8000ec2:	f5a3 738a 	sub.w	r3, r3, #276	; 0x114
 8000ec6:	2102      	movs	r1, #2
 8000ec8:	6019      	str	r1, [r3, #0]
 8000eca:	f507 7302 	add.w	r3, r7, #520	; 0x208
 8000ece:	f5a3 738a 	sub.w	r3, r3, #276	; 0x114
 8000ed2:	681b      	ldr	r3, [r3, #0]
 8000ed4:	fa93 f1a3 	rbit	r1, r3
 8000ed8:	f507 7302 	add.w	r3, r7, #520	; 0x208
 8000edc:	f5a3 738c 	sub.w	r3, r3, #280	; 0x118
 8000ee0:	6019      	str	r1, [r3, #0]
  return result;
 8000ee2:	f507 7302 	add.w	r3, r7, #520	; 0x208
 8000ee6:	f5a3 738c 	sub.w	r3, r3, #280	; 0x118
 8000eea:	681b      	ldr	r3, [r3, #0]
 8000eec:	fab3 f383 	clz	r3, r3
 8000ef0:	b2db      	uxtb	r3, r3
 8000ef2:	f043 0360 	orr.w	r3, r3, #96	; 0x60
 8000ef6:	b2db      	uxtb	r3, r3
 8000ef8:	f003 031f 	and.w	r3, r3, #31
 8000efc:	2101      	movs	r1, #1
 8000efe:	fa01 f303 	lsl.w	r3, r1, r3
 8000f02:	4013      	ands	r3, r2
 8000f04:	2b00      	cmp	r3, #0
 8000f06:	d09d      	beq.n	8000e44 <HAL_RCC_OscConfig+0x688>
 8000f08:	e08d      	b.n	8001026 <HAL_RCC_OscConfig+0x86a>
 8000f0a:	f507 7302 	add.w	r3, r7, #520	; 0x208
 8000f0e:	f5a3 738e 	sub.w	r3, r3, #284	; 0x11c
 8000f12:	2201      	movs	r2, #1
 8000f14:	601a      	str	r2, [r3, #0]
   __ASM volatile ("rbit %0, %1" : "=r" (result) : "r" (value) );
 8000f16:	f507 7302 	add.w	r3, r7, #520	; 0x208
 8000f1a:	f5a3 738e 	sub.w	r3, r3, #284	; 0x11c
 8000f1e:	681b      	ldr	r3, [r3, #0]
 8000f20:	fa93 f2a3 	rbit	r2, r3
 8000f24:	f507 7302 	add.w	r3, r7, #520	; 0x208
 8000f28:	f5a3 7390 	sub.w	r3, r3, #288	; 0x120
 8000f2c:	601a      	str	r2, [r3, #0]
  return result;
 8000f2e:	f507 7302 	add.w	r3, r7, #520	; 0x208
 8000f32:	f5a3 7390 	sub.w	r3, r3, #288	; 0x120
 8000f36:	681b      	ldr	r3, [r3, #0]
      }
    }
    else
    {
      /* Disable the Internal Low Speed oscillator (LSI). */
      __HAL_RCC_LSI_DISABLE();
 8000f38:	fab3 f383 	clz	r3, r3
 8000f3c:	b2db      	uxtb	r3, r3
 8000f3e:	461a      	mov	r2, r3
 8000f40:	4b5d      	ldr	r3, [pc, #372]	; (80010b8 <HAL_RCC_OscConfig+0x8fc>)
 8000f42:	4413      	add	r3, r2
 8000f44:	009b      	lsls	r3, r3, #2
 8000f46:	461a      	mov	r2, r3
 8000f48:	2300      	movs	r3, #0
 8000f4a:	6013      	str	r3, [r2, #0]
      
      /* Get Start Tick */
      tickstart = HAL_GetTick();
 8000f4c:	f7ff fb44 	bl	80005d8 <HAL_GetTick>
 8000f50:	f8c7 0200 	str.w	r0, [r7, #512]	; 0x200
      
      /* Wait till LSI is disabled */  
      while(__HAL_RCC_GET_FLAG(RCC_FLAG_LSIRDY) != RESET)
 8000f54:	e00a      	b.n	8000f6c <HAL_RCC_OscConfig+0x7b0>
      {
        if((HAL_GetTick() - tickstart ) > LSI_TIMEOUT_VALUE)
 8000f56:	f7ff fb3f 	bl	80005d8 <HAL_GetTick>
 8000f5a:	4602      	mov	r2, r0
 8000f5c:	f8d7 3200 	ldr.w	r3, [r7, #512]	; 0x200
 8000f60:	1ad3      	subs	r3, r2, r3
 8000f62:	2b02      	cmp	r3, #2
 8000f64:	d902      	bls.n	8000f6c <HAL_RCC_OscConfig+0x7b0>
        {
          return HAL_TIMEOUT;
 8000f66:	2303      	movs	r3, #3
 8000f68:	f000 bc75 	b.w	8001856 <HAL_RCC_OscConfig+0x109a>
 8000f6c:	f507 7302 	add.w	r3, r7, #520	; 0x208
 8000f70:	f5a3 7392 	sub.w	r3, r3, #292	; 0x124
 8000f74:	2202      	movs	r2, #2
 8000f76:	601a      	str	r2, [r3, #0]
   __ASM volatile ("rbit %0, %1" : "=r" (result) : "r" (value) );
 8000f78:	f507 7302 	add.w	r3, r7, #520	; 0x208
 8000f7c:	f5a3 7392 	sub.w	r3, r3, #292	; 0x124
 8000f80:	681b      	ldr	r3, [r3, #0]
 8000f82:	fa93 f2a3 	rbit	r2, r3
 8000f86:	f507 7302 	add.w	r3, r7, #520	; 0x208
 8000f8a:	f5a3 7394 	sub.w	r3, r3, #296	; 0x128
 8000f8e:	601a      	str	r2, [r3, #0]
 8000f90:	f507 7302 	add.w	r3, r7, #520	; 0x208
 8000f94:	f5a3 7396 	sub.w	r3, r3, #300	; 0x12c
 8000f98:	2202      	movs	r2, #2
 8000f9a:	601a      	str	r2, [r3, #0]
 8000f9c:	f507 7302 	add.w	r3, r7, #520	; 0x208
 8000fa0:	f5a3 7396 	sub.w	r3, r3, #300	; 0x12c
 8000fa4:	681b      	ldr	r3, [r3, #0]
 8000fa6:	fa93 f2a3 	rbit	r2, r3
 8000faa:	f507 7302 	add.w	r3, r7, #520	; 0x208
 8000fae:	f5a3 7398 	sub.w	r3, r3, #304	; 0x130
 8000fb2:	601a      	str	r2, [r3, #0]
 8000fb4:	f507 7302 	add.w	r3, r7, #520	; 0x208
 8000fb8:	f5a3 739a 	sub.w	r3, r3, #308	; 0x134
 8000fbc:	2202      	movs	r2, #2
 8000fbe:	601a      	str	r2, [r3, #0]
 8000fc0:	f507 7302 	add.w	r3, r7, #520	; 0x208
 8000fc4:	f5a3 739a 	sub.w	r3, r3, #308	; 0x134
 8000fc8:	681b      	ldr	r3, [r3, #0]
 8000fca:	fa93 f2a3 	rbit	r2, r3
 8000fce:	f507 7302 	add.w	r3, r7, #520	; 0x208
 8000fd2:	f5a3 739c 	sub.w	r3, r3, #312	; 0x138
 8000fd6:	601a      	str	r2, [r3, #0]
      while(__HAL_RCC_GET_FLAG(RCC_FLAG_LSIRDY) != RESET)
 8000fd8:	4b36      	ldr	r3, [pc, #216]	; (80010b4 <HAL_RCC_OscConfig+0x8f8>)
 8000fda:	6a5a      	ldr	r2, [r3, #36]	; 0x24
 8000fdc:	f507 7302 	add.w	r3, r7, #520	; 0x208
 8000fe0:	f5a3 739e 	sub.w	r3, r3, #316	; 0x13c
 8000fe4:	2102      	movs	r1, #2
 8000fe6:	6019      	str	r1, [r3, #0]
 8000fe8:	f507 7302 	add.w	r3, r7, #520	; 0x208
 8000fec:	f5a3 739e 	sub.w	r3, r3, #316	; 0x13c
 8000ff0:	681b      	ldr	r3, [r3, #0]
 8000ff2:	fa93 f1a3 	rbit	r1, r3
 8000ff6:	f507 7302 	add.w	r3, r7, #520	; 0x208
 8000ffa:	f5a3 73a0 	sub.w	r3, r3, #320	; 0x140
 8000ffe:	6019      	str	r1, [r3, #0]
  return result;
 8001000:	f507 7302 	add.w	r3, r7, #520	; 0x208
 8001004:	f5a3 73a0 	sub.w	r3, r3, #320	; 0x140
 8001008:	681b      	ldr	r3, [r3, #0]
 800100a:	fab3 f383 	clz	r3, r3
 800100e:	b2db      	uxtb	r3, r3
 8001010:	f043 0360 	orr.w	r3, r3, #96	; 0x60
 8001014:	b2db      	uxtb	r3, r3
 8001016:	f003 031f 	and.w	r3, r3, #31
 800101a:	2101      	movs	r1, #1
 800101c:	fa01 f303 	lsl.w	r3, r1, r3
 8001020:	4013      	ands	r3, r2
 8001022:	2b00      	cmp	r3, #0
 8001024:	d197      	bne.n	8000f56 <HAL_RCC_OscConfig+0x79a>
        }
      }
    }
  }
  /*------------------------------ LSE Configuration -------------------------*/ 
  if(((RCC_OscInitStruct->OscillatorType) & RCC_OSCILLATORTYPE_LSE) == RCC_OSCILLATORTYPE_LSE)
 8001026:	f507 7302 	add.w	r3, r7, #520	; 0x208
 800102a:	f5a3 7301 	sub.w	r3, r3, #516	; 0x204
 800102e:	681b      	ldr	r3, [r3, #0]
 8001030:	681b      	ldr	r3, [r3, #0]
 8001032:	f003 0304 	and.w	r3, r3, #4
 8001036:	2b00      	cmp	r3, #0
 8001038:	f000 81a5 	beq.w	8001386 <HAL_RCC_OscConfig+0xbca>
  {
    FlagStatus       pwrclkchanged = RESET;
 800103c:	2300      	movs	r3, #0
 800103e:	f887 3207 	strb.w	r3, [r7, #519]	; 0x207
    /* Check the parameters */
    assert_param(IS_RCC_LSE(RCC_OscInitStruct->LSEState));

    /* Update LSE configuration in Backup Domain control register    */
    /* Requires to enable write access to Backup Domain of necessary */
    if(__HAL_RCC_PWR_IS_CLK_DISABLED())
 8001042:	4b1c      	ldr	r3, [pc, #112]	; (80010b4 <HAL_RCC_OscConfig+0x8f8>)
 8001044:	69db      	ldr	r3, [r3, #28]
 8001046:	f003 5380 	and.w	r3, r3, #268435456	; 0x10000000
 800104a:	2b00      	cmp	r3, #0
 800104c:	d116      	bne.n	800107c <HAL_RCC_OscConfig+0x8c0>
    {
      __HAL_RCC_PWR_CLK_ENABLE();
 800104e:	4b19      	ldr	r3, [pc, #100]	; (80010b4 <HAL_RCC_OscConfig+0x8f8>)
 8001050:	69db      	ldr	r3, [r3, #28]
 8001052:	4a18      	ldr	r2, [pc, #96]	; (80010b4 <HAL_RCC_OscConfig+0x8f8>)
 8001054:	f043 5380 	orr.w	r3, r3, #268435456	; 0x10000000
 8001058:	61d3      	str	r3, [r2, #28]
 800105a:	4b16      	ldr	r3, [pc, #88]	; (80010b4 <HAL_RCC_OscConfig+0x8f8>)
 800105c:	69db      	ldr	r3, [r3, #28]
 800105e:	f003 5280 	and.w	r2, r3, #268435456	; 0x10000000
 8001062:	f507 7302 	add.w	r3, r7, #520	; 0x208
 8001066:	f5a3 73fe 	sub.w	r3, r3, #508	; 0x1fc
 800106a:	601a      	str	r2, [r3, #0]
 800106c:	f507 7302 	add.w	r3, r7, #520	; 0x208
 8001070:	f5a3 73fe 	sub.w	r3, r3, #508	; 0x1fc
 8001074:	681b      	ldr	r3, [r3, #0]
      pwrclkchanged = SET;
 8001076:	2301      	movs	r3, #1
 8001078:	f887 3207 	strb.w	r3, [r7, #519]	; 0x207
    }
    
    if(HAL_IS_BIT_CLR(PWR->CR, PWR_CR_DBP))
 800107c:	4b0f      	ldr	r3, [pc, #60]	; (80010bc <HAL_RCC_OscConfig+0x900>)
 800107e:	681b      	ldr	r3, [r3, #0]
 8001080:	f403 7380 	and.w	r3, r3, #256	; 0x100
 8001084:	2b00      	cmp	r3, #0
 8001086:	d121      	bne.n	80010cc <HAL_RCC_OscConfig+0x910>
    {
      /* Enable write access to Backup domain */
      SET_BIT(PWR->CR, PWR_CR_DBP);
 8001088:	4b0c      	ldr	r3, [pc, #48]	; (80010bc <HAL_RCC_OscConfig+0x900>)
 800108a:	681b      	ldr	r3, [r3, #0]
 800108c:	4a0b      	ldr	r2, [pc, #44]	; (80010bc <HAL_RCC_OscConfig+0x900>)
 800108e:	f443 7380 	orr.w	r3, r3, #256	; 0x100
 8001092:	6013      	str	r3, [r2, #0]
      
      /* Wait for Backup domain Write protection disable */
      tickstart = HAL_GetTick();
 8001094:	f7ff faa0 	bl	80005d8 <HAL_GetTick>
 8001098:	f8c7 0200 	str.w	r0, [r7, #512]	; 0x200

      while(HAL_IS_BIT_CLR(PWR->CR, PWR_CR_DBP))
 800109c:	e010      	b.n	80010c0 <HAL_RCC_OscConfig+0x904>
      {
        if((HAL_GetTick() - tickstart) > RCC_DBP_TIMEOUT_VALUE)
 800109e:	f7ff fa9b 	bl	80005d8 <HAL_GetTick>
 80010a2:	4602      	mov	r2, r0
 80010a4:	f8d7 3200 	ldr.w	r3, [r7, #512]	; 0x200
 80010a8:	1ad3      	subs	r3, r2, r3
 80010aa:	2b64      	cmp	r3, #100	; 0x64
 80010ac:	d908      	bls.n	80010c0 <HAL_RCC_OscConfig+0x904>
        {
          return HAL_TIMEOUT;
 80010ae:	2303      	movs	r3, #3
 80010b0:	e3d1      	b.n	8001856 <HAL_RCC_OscConfig+0x109a>
 80010b2:	bf00      	nop
 80010b4:	40021000 	.word	0x40021000
 80010b8:	10908120 	.word	0x10908120
 80010bc:	40007000 	.word	0x40007000
      while(HAL_IS_BIT_CLR(PWR->CR, PWR_CR_DBP))
 80010c0:	4b8d      	ldr	r3, [pc, #564]	; (80012f8 <HAL_RCC_OscConfig+0xb3c>)
 80010c2:	681b      	ldr	r3, [r3, #0]
 80010c4:	f403 7380 	and.w	r3, r3, #256	; 0x100
 80010c8:	2b00      	cmp	r3, #0
 80010ca:	d0e8      	beq.n	800109e <HAL_RCC_OscConfig+0x8e2>
        }
      }
    }

    /* Set the new LSE configuration -----------------------------------------*/
    __HAL_RCC_LSE_CONFIG(RCC_OscInitStruct->LSEState);
 80010cc:	f507 7302 	add.w	r3, r7, #520	; 0x208
 80010d0:	f5a3 7301 	sub.w	r3, r3, #516	; 0x204
 80010d4:	681b      	ldr	r3, [r3, #0]
 80010d6:	689b      	ldr	r3, [r3, #8]
 80010d8:	2b01      	cmp	r3, #1
 80010da:	d106      	bne.n	80010ea <HAL_RCC_OscConfig+0x92e>
 80010dc:	4b87      	ldr	r3, [pc, #540]	; (80012fc <HAL_RCC_OscConfig+0xb40>)
 80010de:	6a1b      	ldr	r3, [r3, #32]
 80010e0:	4a86      	ldr	r2, [pc, #536]	; (80012fc <HAL_RCC_OscConfig+0xb40>)
 80010e2:	f043 0301 	orr.w	r3, r3, #1
 80010e6:	6213      	str	r3, [r2, #32]
 80010e8:	e035      	b.n	8001156 <HAL_RCC_OscConfig+0x99a>
 80010ea:	f507 7302 	add.w	r3, r7, #520	; 0x208
 80010ee:	f5a3 7301 	sub.w	r3, r3, #516	; 0x204
 80010f2:	681b      	ldr	r3, [r3, #0]
 80010f4:	689b      	ldr	r3, [r3, #8]
 80010f6:	2b00      	cmp	r3, #0
 80010f8:	d10c      	bne.n	8001114 <HAL_RCC_OscConfig+0x958>
 80010fa:	4b80      	ldr	r3, [pc, #512]	; (80012fc <HAL_RCC_OscConfig+0xb40>)
 80010fc:	6a1b      	ldr	r3, [r3, #32]
 80010fe:	4a7f      	ldr	r2, [pc, #508]	; (80012fc <HAL_RCC_OscConfig+0xb40>)
 8001100:	f023 0301 	bic.w	r3, r3, #1
 8001104:	6213      	str	r3, [r2, #32]
 8001106:	4b7d      	ldr	r3, [pc, #500]	; (80012fc <HAL_RCC_OscConfig+0xb40>)
 8001108:	6a1b      	ldr	r3, [r3, #32]
 800110a:	4a7c      	ldr	r2, [pc, #496]	; (80012fc <HAL_RCC_OscConfig+0xb40>)
 800110c:	f023 0304 	bic.w	r3, r3, #4
 8001110:	6213      	str	r3, [r2, #32]
 8001112:	e020      	b.n	8001156 <HAL_RCC_OscConfig+0x99a>
 8001114:	f507 7302 	add.w	r3, r7, #520	; 0x208
 8001118:	f5a3 7301 	sub.w	r3, r3, #516	; 0x204
 800111c:	681b      	ldr	r3, [r3, #0]
 800111e:	689b      	ldr	r3, [r3, #8]
 8001120:	2b05      	cmp	r3, #5
 8001122:	d10c      	bne.n	800113e <HAL_RCC_OscConfig+0x982>
 8001124:	4b75      	ldr	r3, [pc, #468]	; (80012fc <HAL_RCC_OscConfig+0xb40>)
 8001126:	6a1b      	ldr	r3, [r3, #32]
 8001128:	4a74      	ldr	r2, [pc, #464]	; (80012fc <HAL_RCC_OscConfig+0xb40>)
 800112a:	f043 0304 	orr.w	r3, r3, #4
 800112e:	6213      	str	r3, [r2, #32]
 8001130:	4b72      	ldr	r3, [pc, #456]	; (80012fc <HAL_RCC_OscConfig+0xb40>)
 8001132:	6a1b      	ldr	r3, [r3, #32]
 8001134:	4a71      	ldr	r2, [pc, #452]	; (80012fc <HAL_RCC_OscConfig+0xb40>)
 8001136:	f043 0301 	orr.w	r3, r3, #1
 800113a:	6213      	str	r3, [r2, #32]
 800113c:	e00b      	b.n	8001156 <HAL_RCC_OscConfig+0x99a>
 800113e:	4b6f      	ldr	r3, [pc, #444]	; (80012fc <HAL_RCC_OscConfig+0xb40>)
 8001140:	6a1b      	ldr	r3, [r3, #32]
 8001142:	4a6e      	ldr	r2, [pc, #440]	; (80012fc <HAL_RCC_OscConfig+0xb40>)
 8001144:	f023 0301 	bic.w	r3, r3, #1
 8001148:	6213      	str	r3, [r2, #32]
 800114a:	4b6c      	ldr	r3, [pc, #432]	; (80012fc <HAL_RCC_OscConfig+0xb40>)
 800114c:	6a1b      	ldr	r3, [r3, #32]
 800114e:	4a6b      	ldr	r2, [pc, #428]	; (80012fc <HAL_RCC_OscConfig+0xb40>)
 8001150:	f023 0304 	bic.w	r3, r3, #4
 8001154:	6213      	str	r3, [r2, #32]
    /* Check the LSE State */
    if(RCC_OscInitStruct->LSEState != RCC_LSE_OFF)
 8001156:	f507 7302 	add.w	r3, r7, #520	; 0x208
 800115a:	f5a3 7301 	sub.w	r3, r3, #516	; 0x204
 800115e:	681b      	ldr	r3, [r3, #0]
 8001160:	689b      	ldr	r3, [r3, #8]
 8001162:	2b00      	cmp	r3, #0
 8001164:	f000 8081 	beq.w	800126a <HAL_RCC_OscConfig+0xaae>
    {
      /* Get Start Tick */
      tickstart = HAL_GetTick();
 8001168:	f7ff fa36 	bl	80005d8 <HAL_GetTick>
 800116c:	f8c7 0200 	str.w	r0, [r7, #512]	; 0x200
      
      /* Wait till LSE is ready */  
      while(__HAL_RCC_GET_FLAG(RCC_FLAG_LSERDY) == RESET)
 8001170:	e00b      	b.n	800118a <HAL_RCC_OscConfig+0x9ce>
      {
        if((HAL_GetTick() - tickstart ) > RCC_LSE_TIMEOUT_VALUE)
 8001172:	f7ff fa31 	bl	80005d8 <HAL_GetTick>
 8001176:	4602      	mov	r2, r0
 8001178:	f8d7 3200 	ldr.w	r3, [r7, #512]	; 0x200
 800117c:	1ad3      	subs	r3, r2, r3
 800117e:	f241 3288 	movw	r2, #5000	; 0x1388
 8001182:	4293      	cmp	r3, r2
 8001184:	d901      	bls.n	800118a <HAL_RCC_OscConfig+0x9ce>
        {
          return HAL_TIMEOUT;
 8001186:	2303      	movs	r3, #3
 8001188:	e365      	b.n	8001856 <HAL_RCC_OscConfig+0x109a>
 800118a:	f507 7302 	add.w	r3, r7, #520	; 0x208
 800118e:	f5a3 73a2 	sub.w	r3, r3, #324	; 0x144
 8001192:	2202      	movs	r2, #2
 8001194:	601a      	str	r2, [r3, #0]
   __ASM volatile ("rbit %0, %1" : "=r" (result) : "r" (value) );
 8001196:	f507 7302 	add.w	r3, r7, #520	; 0x208
 800119a:	f5a3 73a2 	sub.w	r3, r3, #324	; 0x144
 800119e:	681b      	ldr	r3, [r3, #0]
 80011a0:	fa93 f2a3 	rbit	r2, r3
 80011a4:	f507 7302 	add.w	r3, r7, #520	; 0x208
 80011a8:	f5a3 73a4 	sub.w	r3, r3, #328	; 0x148
 80011ac:	601a      	str	r2, [r3, #0]
 80011ae:	f507 7302 	add.w	r3, r7, #520	; 0x208
 80011b2:	f5a3 73a6 	sub.w	r3, r3, #332	; 0x14c
 80011b6:	2202      	movs	r2, #2
 80011b8:	601a      	str	r2, [r3, #0]
 80011ba:	f507 7302 	add.w	r3, r7, #520	; 0x208
 80011be:	f5a3 73a6 	sub.w	r3, r3, #332	; 0x14c
 80011c2:	681b      	ldr	r3, [r3, #0]
 80011c4:	fa93 f2a3 	rbit	r2, r3
 80011c8:	f507 7302 	add.w	r3, r7, #520	; 0x208
 80011cc:	f5a3 73a8 	sub.w	r3, r3, #336	; 0x150
 80011d0:	601a      	str	r2, [r3, #0]
  return result;
 80011d2:	f507 7302 	add.w	r3, r7, #520	; 0x208
 80011d6:	f5a3 73a8 	sub.w	r3, r3, #336	; 0x150
 80011da:	681b      	ldr	r3, [r3, #0]
      while(__HAL_RCC_GET_FLAG(RCC_FLAG_LSERDY) == RESET)
 80011dc:	fab3 f383 	clz	r3, r3
 80011e0:	b2db      	uxtb	r3, r3
 80011e2:	095b      	lsrs	r3, r3, #5
 80011e4:	b2db      	uxtb	r3, r3
 80011e6:	f043 0302 	orr.w	r3, r3, #2
 80011ea:	b2db      	uxtb	r3, r3
 80011ec:	2b02      	cmp	r3, #2
 80011ee:	d102      	bne.n	80011f6 <HAL_RCC_OscConfig+0xa3a>
 80011f0:	4b42      	ldr	r3, [pc, #264]	; (80012fc <HAL_RCC_OscConfig+0xb40>)
 80011f2:	6a1b      	ldr	r3, [r3, #32]
 80011f4:	e013      	b.n	800121e <HAL_RCC_OscConfig+0xa62>
 80011f6:	f507 7302 	add.w	r3, r7, #520	; 0x208
 80011fa:	f5a3 73aa 	sub.w	r3, r3, #340	; 0x154
 80011fe:	2202      	movs	r2, #2
 8001200:	601a      	str	r2, [r3, #0]
   __ASM volatile ("rbit %0, %1" : "=r" (result) : "r" (value) );
 8001202:	f507 7302 	add.w	r3, r7, #520	; 0x208
 8001206:	f5a3 73aa 	sub.w	r3, r3, #340	; 0x154
 800120a:	681b      	ldr	r3, [r3, #0]
 800120c:	fa93 f2a3 	rbit	r2, r3
 8001210:	f507 7302 	add.w	r3, r7, #520	; 0x208
 8001214:	f5a3 73ac 	sub.w	r3, r3, #344	; 0x158
 8001218:	601a      	str	r2, [r3, #0]
 800121a:	4b38      	ldr	r3, [pc, #224]	; (80012fc <HAL_RCC_OscConfig+0xb40>)
 800121c:	6a5b      	ldr	r3, [r3, #36]	; 0x24
 800121e:	f507 7202 	add.w	r2, r7, #520	; 0x208
 8001222:	f5a2 72ae 	sub.w	r2, r2, #348	; 0x15c
 8001226:	2102      	movs	r1, #2
 8001228:	6011      	str	r1, [r2, #0]
 800122a:	f507 7202 	add.w	r2, r7, #520	; 0x208
 800122e:	f5a2 72ae 	sub.w	r2, r2, #348	; 0x15c
 8001232:	6812      	ldr	r2, [r2, #0]
 8001234:	fa92 f1a2 	rbit	r1, r2
 8001238:	f507 7202 	add.w	r2, r7, #520	; 0x208
 800123c:	f5a2 72b0 	sub.w	r2, r2, #352	; 0x160
 8001240:	6011      	str	r1, [r2, #0]
  return result;
 8001242:	f507 7202 	add.w	r2, r7, #520	; 0x208
 8001246:	f5a2 72b0 	sub.w	r2, r2, #352	; 0x160
 800124a:	6812      	ldr	r2, [r2, #0]
 800124c:	fab2 f282 	clz	r2, r2
 8001250:	b2d2      	uxtb	r2, r2
 8001252:	f042 0240 	orr.w	r2, r2, #64	; 0x40
 8001256:	b2d2      	uxtb	r2, r2
 8001258:	f002 021f 	and.w	r2, r2, #31
 800125c:	2101      	movs	r1, #1
 800125e:	fa01 f202 	lsl.w	r2, r1, r2
 8001262:	4013      	ands	r3, r2
 8001264:	2b00      	cmp	r3, #0
 8001266:	d084      	beq.n	8001172 <HAL_RCC_OscConfig+0x9b6>
 8001268:	e083      	b.n	8001372 <HAL_RCC_OscConfig+0xbb6>
      }
    }
    else
    {
      /* Get Start Tick */
      tickstart = HAL_GetTick();
 800126a:	f7ff f9b5 	bl	80005d8 <HAL_GetTick>
 800126e:	f8c7 0200 	str.w	r0, [r7, #512]	; 0x200
      
      /* Wait till LSE is disabled */  
      while(__HAL_RCC_GET_FLAG(RCC_FLAG_LSERDY) != RESET)
 8001272:	e00b      	b.n	800128c <HAL_RCC_OscConfig+0xad0>
      {
        if((HAL_GetTick() - tickstart ) > RCC_LSE_TIMEOUT_VALUE)
 8001274:	f7ff f9b0 	bl	80005d8 <HAL_GetTick>
 8001278:	4602      	mov	r2, r0
 800127a:	f8d7 3200 	ldr.w	r3, [r7, #512]	; 0x200
 800127e:	1ad3      	subs	r3, r2, r3
 8001280:	f241 3288 	movw	r2, #5000	; 0x1388
 8001284:	4293      	cmp	r3, r2
 8001286:	d901      	bls.n	800128c <HAL_RCC_OscConfig+0xad0>
        {
          return HAL_TIMEOUT;
 8001288:	2303      	movs	r3, #3
 800128a:	e2e4      	b.n	8001856 <HAL_RCC_OscConfig+0x109a>
 800128c:	f507 7302 	add.w	r3, r7, #520	; 0x208
 8001290:	f5a3 73b2 	sub.w	r3, r3, #356	; 0x164
 8001294:	2202      	movs	r2, #2
 8001296:	601a      	str	r2, [r3, #0]
   __ASM volatile ("rbit %0, %1" : "=r" (result) : "r" (value) );
 8001298:	f507 7302 	add.w	r3, r7, #520	; 0x208
 800129c:	f5a3 73b2 	sub.w	r3, r3, #356	; 0x164
 80012a0:	681b      	ldr	r3, [r3, #0]
 80012a2:	fa93 f2a3 	rbit	r2, r3
 80012a6:	f507 7302 	add.w	r3, r7, #520	; 0x208
 80012aa:	f5a3 73b4 	sub.w	r3, r3, #360	; 0x168
 80012ae:	601a      	str	r2, [r3, #0]
 80012b0:	f507 7302 	add.w	r3, r7, #520	; 0x208
 80012b4:	f5a3 73b6 	sub.w	r3, r3, #364	; 0x16c
 80012b8:	2202      	movs	r2, #2
 80012ba:	601a      	str	r2, [r3, #0]
 80012bc:	f507 7302 	add.w	r3, r7, #520	; 0x208
 80012c0:	f5a3 73b6 	sub.w	r3, r3, #364	; 0x16c
 80012c4:	681b      	ldr	r3, [r3, #0]
 80012c6:	fa93 f2a3 	rbit	r2, r3
 80012ca:	f507 7302 	add.w	r3, r7, #520	; 0x208
 80012ce:	f5a3 73b8 	sub.w	r3, r3, #368	; 0x170
 80012d2:	601a      	str	r2, [r3, #0]
  return result;
 80012d4:	f507 7302 	add.w	r3, r7, #520	; 0x208
 80012d8:	f5a3 73b8 	sub.w	r3, r3, #368	; 0x170
 80012dc:	681b      	ldr	r3, [r3, #0]
      while(__HAL_RCC_GET_FLAG(RCC_FLAG_LSERDY) != RESET)
 80012de:	fab3 f383 	clz	r3, r3
 80012e2:	b2db      	uxtb	r3, r3
 80012e4:	095b      	lsrs	r3, r3, #5
 80012e6:	b2db      	uxtb	r3, r3
 80012e8:	f043 0302 	orr.w	r3, r3, #2
 80012ec:	b2db      	uxtb	r3, r3
 80012ee:	2b02      	cmp	r3, #2
 80012f0:	d106      	bne.n	8001300 <HAL_RCC_OscConfig+0xb44>
 80012f2:	4b02      	ldr	r3, [pc, #8]	; (80012fc <HAL_RCC_OscConfig+0xb40>)
 80012f4:	6a1b      	ldr	r3, [r3, #32]
 80012f6:	e017      	b.n	8001328 <HAL_RCC_OscConfig+0xb6c>
 80012f8:	40007000 	.word	0x40007000
 80012fc:	40021000 	.word	0x40021000
 8001300:	f507 7302 	add.w	r3, r7, #520	; 0x208
 8001304:	f5a3 73ba 	sub.w	r3, r3, #372	; 0x174
 8001308:	2202      	movs	r2, #2
 800130a:	601a      	str	r2, [r3, #0]
   __ASM volatile ("rbit %0, %1" : "=r" (result) : "r" (value) );
 800130c:	f507 7302 	add.w	r3, r7, #520	; 0x208
 8001310:	f5a3 73ba 	sub.w	r3, r3, #372	; 0x174
 8001314:	681b      	ldr	r3, [r3, #0]
 8001316:	fa93 f2a3 	rbit	r2, r3
 800131a:	f507 7302 	add.w	r3, r7, #520	; 0x208
 800131e:	f5a3 73bc 	sub.w	r3, r3, #376	; 0x178
 8001322:	601a      	str	r2, [r3, #0]
 8001324:	4bb3      	ldr	r3, [pc, #716]	; (80015f4 <HAL_RCC_OscConfig+0xe38>)
 8001326:	6a5b      	ldr	r3, [r3, #36]	; 0x24
 8001328:	f507 7202 	add.w	r2, r7, #520	; 0x208
 800132c:	f5a2 72be 	sub.w	r2, r2, #380	; 0x17c
 8001330:	2102      	movs	r1, #2
 8001332:	6011      	str	r1, [r2, #0]
 8001334:	f507 7202 	add.w	r2, r7, #520	; 0x208
 8001338:	f5a2 72be 	sub.w	r2, r2, #380	; 0x17c
 800133c:	6812      	ldr	r2, [r2, #0]
 800133e:	fa92 f1a2 	rbit	r1, r2
 8001342:	f507 7202 	add.w	r2, r7, #520	; 0x208
 8001346:	f5a2 72c0 	sub.w	r2, r2, #384	; 0x180
 800134a:	6011      	str	r1, [r2, #0]
  return result;
 800134c:	f507 7202 	add.w	r2, r7, #520	; 0x208
 8001350:	f5a2 72c0 	sub.w	r2, r2, #384	; 0x180
 8001354:	6812      	ldr	r2, [r2, #0]
 8001356:	fab2 f282 	clz	r2, r2
 800135a:	b2d2      	uxtb	r2, r2
 800135c:	f042 0240 	orr.w	r2, r2, #64	; 0x40
 8001360:	b2d2      	uxtb	r2, r2
 8001362:	f002 021f 	and.w	r2, r2, #31
 8001366:	2101      	movs	r1, #1
 8001368:	fa01 f202 	lsl.w	r2, r1, r2
 800136c:	4013      	ands	r3, r2
 800136e:	2b00      	cmp	r3, #0
 8001370:	d180      	bne.n	8001274 <HAL_RCC_OscConfig+0xab8>
        }
      }
    }

    /* Require to disable power clock if necessary */
    if(pwrclkchanged == SET)
 8001372:	f897 3207 	ldrb.w	r3, [r7, #519]	; 0x207
 8001376:	2b01      	cmp	r3, #1
 8001378:	d105      	bne.n	8001386 <HAL_RCC_OscConfig+0xbca>
    {
      __HAL_RCC_PWR_CLK_DISABLE();
 800137a:	4b9e      	ldr	r3, [pc, #632]	; (80015f4 <HAL_RCC_OscConfig+0xe38>)
 800137c:	69db      	ldr	r3, [r3, #28]
 800137e:	4a9d      	ldr	r2, [pc, #628]	; (80015f4 <HAL_RCC_OscConfig+0xe38>)
 8001380:	f023 5380 	bic.w	r3, r3, #268435456	; 0x10000000
 8001384:	61d3      	str	r3, [r2, #28]
  }

  /*-------------------------------- PLL Configuration -----------------------*/
  /* Check the parameters */
  assert_param(IS_RCC_PLL(RCC_OscInitStruct->PLL.PLLState));
  if ((RCC_OscInitStruct->PLL.PLLState) != RCC_PLL_NONE)
 8001386:	f507 7302 	add.w	r3, r7, #520	; 0x208
 800138a:	f5a3 7301 	sub.w	r3, r3, #516	; 0x204
 800138e:	681b      	ldr	r3, [r3, #0]
 8001390:	699b      	ldr	r3, [r3, #24]
 8001392:	2b00      	cmp	r3, #0
 8001394:	f000 825e 	beq.w	8001854 <HAL_RCC_OscConfig+0x1098>
  {
    /* Check if the PLL is used as system clock or not */
    if(__HAL_RCC_GET_SYSCLK_SOURCE() != RCC_SYSCLKSOURCE_STATUS_PLLCLK)
 8001398:	4b96      	ldr	r3, [pc, #600]	; (80015f4 <HAL_RCC_OscConfig+0xe38>)
 800139a:	685b      	ldr	r3, [r3, #4]
 800139c:	f003 030c 	and.w	r3, r3, #12
 80013a0:	2b08      	cmp	r3, #8
 80013a2:	f000 821f 	beq.w	80017e4 <HAL_RCC_OscConfig+0x1028>
    { 
      if((RCC_OscInitStruct->PLL.PLLState) == RCC_PLL_ON)
 80013a6:	f507 7302 	add.w	r3, r7, #520	; 0x208
 80013aa:	f5a3 7301 	sub.w	r3, r3, #516	; 0x204
 80013ae:	681b      	ldr	r3, [r3, #0]
 80013b0:	699b      	ldr	r3, [r3, #24]
 80013b2:	2b02      	cmp	r3, #2
 80013b4:	f040 8170 	bne.w	8001698 <HAL_RCC_OscConfig+0xedc>
 80013b8:	f507 7302 	add.w	r3, r7, #520	; 0x208
 80013bc:	f5a3 73c2 	sub.w	r3, r3, #388	; 0x184
 80013c0:	f04f 7280 	mov.w	r2, #16777216	; 0x1000000
 80013c4:	601a      	str	r2, [r3, #0]
   __ASM volatile ("rbit %0, %1" : "=r" (result) : "r" (value) );
 80013c6:	f507 7302 	add.w	r3, r7, #520	; 0x208
 80013ca:	f5a3 73c2 	sub.w	r3, r3, #388	; 0x184
 80013ce:	681b      	ldr	r3, [r3, #0]
 80013d0:	fa93 f2a3 	rbit	r2, r3
 80013d4:	f507 7302 	add.w	r3, r7, #520	; 0x208
 80013d8:	f5a3 73c4 	sub.w	r3, r3, #392	; 0x188
 80013dc:	601a      	str	r2, [r3, #0]
  return result;
 80013de:	f507 7302 	add.w	r3, r7, #520	; 0x208
 80013e2:	f5a3 73c4 	sub.w	r3, r3, #392	; 0x188
 80013e6:	681b      	ldr	r3, [r3, #0]
#if   defined(RCC_CFGR_PLLSRC_HSI_PREDIV)
        assert_param(IS_RCC_PREDIV(RCC_OscInitStruct->PLL.PREDIV));
#endif
  
        /* Disable the main PLL. */
        __HAL_RCC_PLL_DISABLE();
 80013e8:	fab3 f383 	clz	r3, r3
 80013ec:	b2db      	uxtb	r3, r3
 80013ee:	f103 5384 	add.w	r3, r3, #276824064	; 0x10800000
 80013f2:	f503 1384 	add.w	r3, r3, #1081344	; 0x108000
 80013f6:	009b      	lsls	r3, r3, #2
 80013f8:	461a      	mov	r2, r3
 80013fa:	2300      	movs	r3, #0
 80013fc:	6013      	str	r3, [r2, #0]
        
        /* Get Start Tick */
        tickstart = HAL_GetTick();
 80013fe:	f7ff f8eb 	bl	80005d8 <HAL_GetTick>
 8001402:	f8c7 0200 	str.w	r0, [r7, #512]	; 0x200
        
        /* Wait till PLL is disabled */
        while(__HAL_RCC_GET_FLAG(RCC_FLAG_PLLRDY)  != RESET)
 8001406:	e009      	b.n	800141c <HAL_RCC_OscConfig+0xc60>
        {
          if((HAL_GetTick() - tickstart ) > PLL_TIMEOUT_VALUE)
 8001408:	f7ff f8e6 	bl	80005d8 <HAL_GetTick>
 800140c:	4602      	mov	r2, r0
 800140e:	f8d7 3200 	ldr.w	r3, [r7, #512]	; 0x200
 8001412:	1ad3      	subs	r3, r2, r3
 8001414:	2b02      	cmp	r3, #2
 8001416:	d901      	bls.n	800141c <HAL_RCC_OscConfig+0xc60>
          {
            return HAL_TIMEOUT;
 8001418:	2303      	movs	r3, #3
 800141a:	e21c      	b.n	8001856 <HAL_RCC_OscConfig+0x109a>
 800141c:	f507 7302 	add.w	r3, r7, #520	; 0x208
 8001420:	f5a3 73c6 	sub.w	r3, r3, #396	; 0x18c
 8001424:	f04f 7200 	mov.w	r2, #33554432	; 0x2000000
 8001428:	601a      	str	r2, [r3, #0]
   __ASM volatile ("rbit %0, %1" : "=r" (result) : "r" (value) );
 800142a:	f507 7302 	add.w	r3, r7, #520	; 0x208
 800142e:	f5a3 73c6 	sub.w	r3, r3, #396	; 0x18c
 8001432:	681b      	ldr	r3, [r3, #0]
 8001434:	fa93 f2a3 	rbit	r2, r3
 8001438:	f507 7302 	add.w	r3, r7, #520	; 0x208
 800143c:	f5a3 73c8 	sub.w	r3, r3, #400	; 0x190
 8001440:	601a      	str	r2, [r3, #0]
  return result;
 8001442:	f507 7302 	add.w	r3, r7, #520	; 0x208
 8001446:	f5a3 73c8 	sub.w	r3, r3, #400	; 0x190
 800144a:	681b      	ldr	r3, [r3, #0]
        while(__HAL_RCC_GET_FLAG(RCC_FLAG_PLLRDY)  != RESET)
 800144c:	fab3 f383 	clz	r3, r3
 8001450:	b2db      	uxtb	r3, r3
 8001452:	095b      	lsrs	r3, r3, #5
 8001454:	b2db      	uxtb	r3, r3
 8001456:	f043 0301 	orr.w	r3, r3, #1
 800145a:	b2db      	uxtb	r3, r3
 800145c:	2b01      	cmp	r3, #1
 800145e:	d102      	bne.n	8001466 <HAL_RCC_OscConfig+0xcaa>
 8001460:	4b64      	ldr	r3, [pc, #400]	; (80015f4 <HAL_RCC_OscConfig+0xe38>)
 8001462:	681b      	ldr	r3, [r3, #0]
 8001464:	e027      	b.n	80014b6 <HAL_RCC_OscConfig+0xcfa>
 8001466:	f507 7302 	add.w	r3, r7, #520	; 0x208
 800146a:	f5a3 73ca 	sub.w	r3, r3, #404	; 0x194
 800146e:	f04f 7200 	mov.w	r2, #33554432	; 0x2000000
 8001472:	601a      	str	r2, [r3, #0]
   __ASM volatile ("rbit %0, %1" : "=r" (result) : "r" (value) );
 8001474:	f507 7302 	add.w	r3, r7, #520	; 0x208
 8001478:	f5a3 73ca 	sub.w	r3, r3, #404	; 0x194
 800147c:	681b      	ldr	r3, [r3, #0]
 800147e:	fa93 f2a3 	rbit	r2, r3
 8001482:	f507 7302 	add.w	r3, r7, #520	; 0x208
 8001486:	f5a3 73cc 	sub.w	r3, r3, #408	; 0x198
 800148a:	601a      	str	r2, [r3, #0]
 800148c:	f507 7302 	add.w	r3, r7, #520	; 0x208
 8001490:	f5a3 73ce 	sub.w	r3, r3, #412	; 0x19c
 8001494:	f04f 7200 	mov.w	r2, #33554432	; 0x2000000
 8001498:	601a      	str	r2, [r3, #0]
 800149a:	f507 7302 	add.w	r3, r7, #520	; 0x208
 800149e:	f5a3 73ce 	sub.w	r3, r3, #412	; 0x19c
 80014a2:	681b      	ldr	r3, [r3, #0]
 80014a4:	fa93 f2a3 	rbit	r2, r3
 80014a8:	f507 7302 	add.w	r3, r7, #520	; 0x208
 80014ac:	f5a3 73d0 	sub.w	r3, r3, #416	; 0x1a0
 80014b0:	601a      	str	r2, [r3, #0]
 80014b2:	4b50      	ldr	r3, [pc, #320]	; (80015f4 <HAL_RCC_OscConfig+0xe38>)
 80014b4:	6a5b      	ldr	r3, [r3, #36]	; 0x24
 80014b6:	f507 7202 	add.w	r2, r7, #520	; 0x208
 80014ba:	f5a2 72d2 	sub.w	r2, r2, #420	; 0x1a4
 80014be:	f04f 7100 	mov.w	r1, #33554432	; 0x2000000
 80014c2:	6011      	str	r1, [r2, #0]
 80014c4:	f507 7202 	add.w	r2, r7, #520	; 0x208
 80014c8:	f5a2 72d2 	sub.w	r2, r2, #420	; 0x1a4
 80014cc:	6812      	ldr	r2, [r2, #0]
 80014ce:	fa92 f1a2 	rbit	r1, r2
 80014d2:	f507 7202 	add.w	r2, r7, #520	; 0x208
 80014d6:	f5a2 72d4 	sub.w	r2, r2, #424	; 0x1a8
 80014da:	6011      	str	r1, [r2, #0]
  return result;
 80014dc:	f507 7202 	add.w	r2, r7, #520	; 0x208
 80014e0:	f5a2 72d4 	sub.w	r2, r2, #424	; 0x1a8
 80014e4:	6812      	ldr	r2, [r2, #0]
 80014e6:	fab2 f282 	clz	r2, r2
 80014ea:	b2d2      	uxtb	r2, r2
 80014ec:	f042 0220 	orr.w	r2, r2, #32
 80014f0:	b2d2      	uxtb	r2, r2
 80014f2:	f002 021f 	and.w	r2, r2, #31
 80014f6:	2101      	movs	r1, #1
 80014f8:	fa01 f202 	lsl.w	r2, r1, r2
 80014fc:	4013      	ands	r3, r2
 80014fe:	2b00      	cmp	r3, #0
 8001500:	d182      	bne.n	8001408 <HAL_RCC_OscConfig+0xc4c>
          }
        }

#if defined(RCC_CFGR_PLLSRC_HSI_PREDIV)
        /* Configure the main PLL clock source, predivider and multiplication factor. */
        __HAL_RCC_PLL_CONFIG(RCC_OscInitStruct->PLL.PLLSource,
 8001502:	4b3c      	ldr	r3, [pc, #240]	; (80015f4 <HAL_RCC_OscConfig+0xe38>)
 8001504:	6adb      	ldr	r3, [r3, #44]	; 0x2c
 8001506:	f023 020f 	bic.w	r2, r3, #15
 800150a:	f507 7302 	add.w	r3, r7, #520	; 0x208
 800150e:	f5a3 7301 	sub.w	r3, r3, #516	; 0x204
 8001512:	681b      	ldr	r3, [r3, #0]
 8001514:	6a5b      	ldr	r3, [r3, #36]	; 0x24
 8001516:	4937      	ldr	r1, [pc, #220]	; (80015f4 <HAL_RCC_OscConfig+0xe38>)
 8001518:	4313      	orrs	r3, r2
 800151a:	62cb      	str	r3, [r1, #44]	; 0x2c
 800151c:	4b35      	ldr	r3, [pc, #212]	; (80015f4 <HAL_RCC_OscConfig+0xe38>)
 800151e:	685b      	ldr	r3, [r3, #4]
 8001520:	f423 1276 	bic.w	r2, r3, #4030464	; 0x3d8000
 8001524:	f507 7302 	add.w	r3, r7, #520	; 0x208
 8001528:	f5a3 7301 	sub.w	r3, r3, #516	; 0x204
 800152c:	681b      	ldr	r3, [r3, #0]
 800152e:	6a19      	ldr	r1, [r3, #32]
 8001530:	f507 7302 	add.w	r3, r7, #520	; 0x208
 8001534:	f5a3 7301 	sub.w	r3, r3, #516	; 0x204
 8001538:	681b      	ldr	r3, [r3, #0]
 800153a:	69db      	ldr	r3, [r3, #28]
 800153c:	430b      	orrs	r3, r1
 800153e:	492d      	ldr	r1, [pc, #180]	; (80015f4 <HAL_RCC_OscConfig+0xe38>)
 8001540:	4313      	orrs	r3, r2
 8001542:	604b      	str	r3, [r1, #4]
 8001544:	f507 7302 	add.w	r3, r7, #520	; 0x208
 8001548:	f5a3 73d6 	sub.w	r3, r3, #428	; 0x1ac
 800154c:	f04f 7280 	mov.w	r2, #16777216	; 0x1000000
 8001550:	601a      	str	r2, [r3, #0]
   __ASM volatile ("rbit %0, %1" : "=r" (result) : "r" (value) );
 8001552:	f507 7302 	add.w	r3, r7, #520	; 0x208
 8001556:	f5a3 73d6 	sub.w	r3, r3, #428	; 0x1ac
 800155a:	681b      	ldr	r3, [r3, #0]
 800155c:	fa93 f2a3 	rbit	r2, r3
 8001560:	f507 7302 	add.w	r3, r7, #520	; 0x208
 8001564:	f5a3 73d8 	sub.w	r3, r3, #432	; 0x1b0
 8001568:	601a      	str	r2, [r3, #0]
  return result;
 800156a:	f507 7302 	add.w	r3, r7, #520	; 0x208
 800156e:	f5a3 73d8 	sub.w	r3, r3, #432	; 0x1b0
 8001572:	681b      	ldr	r3, [r3, #0]
      /* Configure the main PLL clock source and multiplication factor. */
      __HAL_RCC_PLL_CONFIG(RCC_OscInitStruct->PLL.PLLSource,
                           RCC_OscInitStruct->PLL.PLLMUL);
#endif /* RCC_CFGR_PLLSRC_HSI_PREDIV */
        /* Enable the main PLL. */
        __HAL_RCC_PLL_ENABLE();
 8001574:	fab3 f383 	clz	r3, r3
 8001578:	b2db      	uxtb	r3, r3
 800157a:	f103 5384 	add.w	r3, r3, #276824064	; 0x10800000
 800157e:	f503 1384 	add.w	r3, r3, #1081344	; 0x108000
 8001582:	009b      	lsls	r3, r3, #2
 8001584:	461a      	mov	r2, r3
 8001586:	2301      	movs	r3, #1
 8001588:	6013      	str	r3, [r2, #0]
        
        /* Get Start Tick */
        tickstart = HAL_GetTick();
 800158a:	f7ff f825 	bl	80005d8 <HAL_GetTick>
 800158e:	f8c7 0200 	str.w	r0, [r7, #512]	; 0x200
        
        /* Wait till PLL is ready */
        while(__HAL_RCC_GET_FLAG(RCC_FLAG_PLLRDY)  == RESET)
 8001592:	e009      	b.n	80015a8 <HAL_RCC_OscConfig+0xdec>
        {
          if((HAL_GetTick() - tickstart ) > PLL_TIMEOUT_VALUE)
 8001594:	f7ff f820 	bl	80005d8 <HAL_GetTick>
 8001598:	4602      	mov	r2, r0
 800159a:	f8d7 3200 	ldr.w	r3, [r7, #512]	; 0x200
 800159e:	1ad3      	subs	r3, r2, r3
 80015a0:	2b02      	cmp	r3, #2
 80015a2:	d901      	bls.n	80015a8 <HAL_RCC_OscConfig+0xdec>
          {
            return HAL_TIMEOUT;
 80015a4:	2303      	movs	r3, #3
 80015a6:	e156      	b.n	8001856 <HAL_RCC_OscConfig+0x109a>
 80015a8:	f507 7302 	add.w	r3, r7, #520	; 0x208
 80015ac:	f5a3 73da 	sub.w	r3, r3, #436	; 0x1b4
 80015b0:	f04f 7200 	mov.w	r2, #33554432	; 0x2000000
 80015b4:	601a      	str	r2, [r3, #0]
   __ASM volatile ("rbit %0, %1" : "=r" (result) : "r" (value) );
 80015b6:	f507 7302 	add.w	r3, r7, #520	; 0x208
 80015ba:	f5a3 73da 	sub.w	r3, r3, #436	; 0x1b4
 80015be:	681b      	ldr	r3, [r3, #0]
 80015c0:	fa93 f2a3 	rbit	r2, r3
 80015c4:	f507 7302 	add.w	r3, r7, #520	; 0x208
 80015c8:	f5a3 73dc 	sub.w	r3, r3, #440	; 0x1b8
 80015cc:	601a      	str	r2, [r3, #0]
  return result;
 80015ce:	f507 7302 	add.w	r3, r7, #520	; 0x208
 80015d2:	f5a3 73dc 	sub.w	r3, r3, #440	; 0x1b8
 80015d6:	681b      	ldr	r3, [r3, #0]
        while(__HAL_RCC_GET_FLAG(RCC_FLAG_PLLRDY)  == RESET)
 80015d8:	fab3 f383 	clz	r3, r3
 80015dc:	b2db      	uxtb	r3, r3
 80015de:	095b      	lsrs	r3, r3, #5
 80015e0:	b2db      	uxtb	r3, r3
 80015e2:	f043 0301 	orr.w	r3, r3, #1
 80015e6:	b2db      	uxtb	r3, r3
 80015e8:	2b01      	cmp	r3, #1
 80015ea:	d105      	bne.n	80015f8 <HAL_RCC_OscConfig+0xe3c>
 80015ec:	4b01      	ldr	r3, [pc, #4]	; (80015f4 <HAL_RCC_OscConfig+0xe38>)
 80015ee:	681b      	ldr	r3, [r3, #0]
 80015f0:	e02a      	b.n	8001648 <HAL_RCC_OscConfig+0xe8c>
 80015f2:	bf00      	nop
 80015f4:	40021000 	.word	0x40021000
 80015f8:	f507 7302 	add.w	r3, r7, #520	; 0x208
 80015fc:	f5a3 73de 	sub.w	r3, r3, #444	; 0x1bc
 8001600:	f04f 7200 	mov.w	r2, #33554432	; 0x2000000
 8001604:	601a      	str	r2, [r3, #0]
   __ASM volatile ("rbit %0, %1" : "=r" (result) : "r" (value) );
 8001606:	f507 7302 	add.w	r3, r7, #520	; 0x208
 800160a:	f5a3 73de 	sub.w	r3, r3, #444	; 0x1bc
 800160e:	681b      	ldr	r3, [r3, #0]
 8001610:	fa93 f2a3 	rbit	r2, r3
 8001614:	f507 7302 	add.w	r3, r7, #520	; 0x208
 8001618:	f5a3 73e0 	sub.w	r3, r3, #448	; 0x1c0
 800161c:	601a      	str	r2, [r3, #0]
 800161e:	f507 7302 	add.w	r3, r7, #520	; 0x208
 8001622:	f5a3 73e2 	sub.w	r3, r3, #452	; 0x1c4
 8001626:	f04f 7200 	mov.w	r2, #33554432	; 0x2000000
 800162a:	601a      	str	r2, [r3, #0]
 800162c:	f507 7302 	add.w	r3, r7, #520	; 0x208
 8001630:	f5a3 73e2 	sub.w	r3, r3, #452	; 0x1c4
 8001634:	681b      	ldr	r3, [r3, #0]
 8001636:	fa93 f2a3 	rbit	r2, r3
 800163a:	f507 7302 	add.w	r3, r7, #520	; 0x208
 800163e:	f5a3 73e4 	sub.w	r3, r3, #456	; 0x1c8
 8001642:	601a      	str	r2, [r3, #0]
 8001644:	4b86      	ldr	r3, [pc, #536]	; (8001860 <HAL_RCC_OscConfig+0x10a4>)
 8001646:	6a5b      	ldr	r3, [r3, #36]	; 0x24
 8001648:	f507 7202 	add.w	r2, r7, #520	; 0x208
 800164c:	f5a2 72e6 	sub.w	r2, r2, #460	; 0x1cc
 8001650:	f04f 7100 	mov.w	r1, #33554432	; 0x2000000
 8001654:	6011      	str	r1, [r2, #0]
 8001656:	f507 7202 	add.w	r2, r7, #520	; 0x208
 800165a:	f5a2 72e6 	sub.w	r2, r2, #460	; 0x1cc
 800165e:	6812      	ldr	r2, [r2, #0]
 8001660:	fa92 f1a2 	rbit	r1, r2
 8001664:	f507 7202 	add.w	r2, r7, #520	; 0x208
 8001668:	f5a2 72e8 	sub.w	r2, r2, #464	; 0x1d0
 800166c:	6011      	str	r1, [r2, #0]
  return result;
 800166e:	f507 7202 	add.w	r2, r7, #520	; 0x208
 8001672:	f5a2 72e8 	sub.w	r2, r2, #464	; 0x1d0
 8001676:	6812      	ldr	r2, [r2, #0]
 8001678:	fab2 f282 	clz	r2, r2
 800167c:	b2d2      	uxtb	r2, r2
 800167e:	f042 0220 	orr.w	r2, r2, #32
 8001682:	b2d2      	uxtb	r2, r2
 8001684:	f002 021f 	and.w	r2, r2, #31
 8001688:	2101      	movs	r1, #1
 800168a:	fa01 f202 	lsl.w	r2, r1, r2
 800168e:	4013      	ands	r3, r2
 8001690:	2b00      	cmp	r3, #0
 8001692:	f43f af7f 	beq.w	8001594 <HAL_RCC_OscConfig+0xdd8>
 8001696:	e0dd      	b.n	8001854 <HAL_RCC_OscConfig+0x1098>
 8001698:	f507 7302 	add.w	r3, r7, #520	; 0x208
 800169c:	f5a3 73ea 	sub.w	r3, r3, #468	; 0x1d4
 80016a0:	f04f 7280 	mov.w	r2, #16777216	; 0x1000000
 80016a4:	601a      	str	r2, [r3, #0]
   __ASM volatile ("rbit %0, %1" : "=r" (result) : "r" (value) );
 80016a6:	f507 7302 	add.w	r3, r7, #520	; 0x208
 80016aa:	f5a3 73ea 	sub.w	r3, r3, #468	; 0x1d4
 80016ae:	681b      	ldr	r3, [r3, #0]
 80016b0:	fa93 f2a3 	rbit	r2, r3
 80016b4:	f507 7302 	add.w	r3, r7, #520	; 0x208
 80016b8:	f5a3 73ec 	sub.w	r3, r3, #472	; 0x1d8
 80016bc:	601a      	str	r2, [r3, #0]
  return result;
 80016be:	f507 7302 	add.w	r3, r7, #520	; 0x208
 80016c2:	f5a3 73ec 	sub.w	r3, r3, #472	; 0x1d8
 80016c6:	681b      	ldr	r3, [r3, #0]
        }
      }
      else
      {
        /* Disable the main PLL. */
        __HAL_RCC_PLL_DISABLE();
 80016c8:	fab3 f383 	clz	r3, r3
 80016cc:	b2db      	uxtb	r3, r3
 80016ce:	f103 5384 	add.w	r3, r3, #276824064	; 0x10800000
 80016d2:	f503 1384 	add.w	r3, r3, #1081344	; 0x108000
 80016d6:	009b      	lsls	r3, r3, #2
 80016d8:	461a      	mov	r2, r3
 80016da:	2300      	movs	r3, #0
 80016dc:	6013      	str	r3, [r2, #0]
 
        /* Get Start Tick */
        tickstart = HAL_GetTick();
 80016de:	f7fe ff7b 	bl	80005d8 <HAL_GetTick>
 80016e2:	f8c7 0200 	str.w	r0, [r7, #512]	; 0x200
        
        /* Wait till PLL is disabled */  
        while(__HAL_RCC_GET_FLAG(RCC_FLAG_PLLRDY)  != RESET)
 80016e6:	e009      	b.n	80016fc <HAL_RCC_OscConfig+0xf40>
        {
          if((HAL_GetTick() - tickstart ) > PLL_TIMEOUT_VALUE)
 80016e8:	f7fe ff76 	bl	80005d8 <HAL_GetTick>
 80016ec:	4602      	mov	r2, r0
 80016ee:	f8d7 3200 	ldr.w	r3, [r7, #512]	; 0x200
 80016f2:	1ad3      	subs	r3, r2, r3
 80016f4:	2b02      	cmp	r3, #2
 80016f6:	d901      	bls.n	80016fc <HAL_RCC_OscConfig+0xf40>
          {
            return HAL_TIMEOUT;
 80016f8:	2303      	movs	r3, #3
 80016fa:	e0ac      	b.n	8001856 <HAL_RCC_OscConfig+0x109a>
 80016fc:	f507 7302 	add.w	r3, r7, #520	; 0x208
 8001700:	f5a3 73ee 	sub.w	r3, r3, #476	; 0x1dc
 8001704:	f04f 7200 	mov.w	r2, #33554432	; 0x2000000
 8001708:	601a      	str	r2, [r3, #0]
   __ASM volatile ("rbit %0, %1" : "=r" (result) : "r" (value) );
 800170a:	f507 7302 	add.w	r3, r7, #520	; 0x208
 800170e:	f5a3 73ee 	sub.w	r3, r3, #476	; 0x1dc
 8001712:	681b      	ldr	r3, [r3, #0]
 8001714:	fa93 f2a3 	rbit	r2, r3
 8001718:	f507 7302 	add.w	r3, r7, #520	; 0x208
 800171c:	f5a3 73f0 	sub.w	r3, r3, #480	; 0x1e0
 8001720:	601a      	str	r2, [r3, #0]
  return result;
 8001722:	f507 7302 	add.w	r3, r7, #520	; 0x208
 8001726:	f5a3 73f0 	sub.w	r3, r3, #480	; 0x1e0
 800172a:	681b      	ldr	r3, [r3, #0]
        while(__HAL_RCC_GET_FLAG(RCC_FLAG_PLLRDY)  != RESET)
 800172c:	fab3 f383 	clz	r3, r3
 8001730:	b2db      	uxtb	r3, r3
 8001732:	095b      	lsrs	r3, r3, #5
 8001734:	b2db      	uxtb	r3, r3
 8001736:	f043 0301 	orr.w	r3, r3, #1
 800173a:	b2db      	uxtb	r3, r3
 800173c:	2b01      	cmp	r3, #1
 800173e:	d102      	bne.n	8001746 <HAL_RCC_OscConfig+0xf8a>
 8001740:	4b47      	ldr	r3, [pc, #284]	; (8001860 <HAL_RCC_OscConfig+0x10a4>)
 8001742:	681b      	ldr	r3, [r3, #0]
 8001744:	e027      	b.n	8001796 <HAL_RCC_OscConfig+0xfda>
 8001746:	f507 7302 	add.w	r3, r7, #520	; 0x208
 800174a:	f5a3 73f2 	sub.w	r3, r3, #484	; 0x1e4
 800174e:	f04f 7200 	mov.w	r2, #33554432	; 0x2000000
 8001752:	601a      	str	r2, [r3, #0]
   __ASM volatile ("rbit %0, %1" : "=r" (result) : "r" (value) );
 8001754:	f507 7302 	add.w	r3, r7, #520	; 0x208
 8001758:	f5a3 73f2 	sub.w	r3, r3, #484	; 0x1e4
 800175c:	681b      	ldr	r3, [r3, #0]
 800175e:	fa93 f2a3 	rbit	r2, r3
 8001762:	f507 7302 	add.w	r3, r7, #520	; 0x208
 8001766:	f5a3 73f4 	sub.w	r3, r3, #488	; 0x1e8
 800176a:	601a      	str	r2, [r3, #0]
 800176c:	f507 7302 	add.w	r3, r7, #520	; 0x208
 8001770:	f5a3 73f6 	sub.w	r3, r3, #492	; 0x1ec
 8001774:	f04f 7200 	mov.w	r2, #33554432	; 0x2000000
 8001778:	601a      	str	r2, [r3, #0]
 800177a:	f507 7302 	add.w	r3, r7, #520	; 0x208
 800177e:	f5a3 73f6 	sub.w	r3, r3, #492	; 0x1ec
 8001782:	681b      	ldr	r3, [r3, #0]
 8001784:	fa93 f2a3 	rbit	r2, r3
 8001788:	f507 7302 	add.w	r3, r7, #520	; 0x208
 800178c:	f5a3 73f8 	sub.w	r3, r3, #496	; 0x1f0
 8001790:	601a      	str	r2, [r3, #0]
 8001792:	4b33      	ldr	r3, [pc, #204]	; (8001860 <HAL_RCC_OscConfig+0x10a4>)
 8001794:	6a5b      	ldr	r3, [r3, #36]	; 0x24
 8001796:	f507 7202 	add.w	r2, r7, #520	; 0x208
 800179a:	f5a2 72fa 	sub.w	r2, r2, #500	; 0x1f4
 800179e:	f04f 7100 	mov.w	r1, #33554432	; 0x2000000
 80017a2:	6011      	str	r1, [r2, #0]
 80017a4:	f507 7202 	add.w	r2, r7, #520	; 0x208
 80017a8:	f5a2 72fa 	sub.w	r2, r2, #500	; 0x1f4
 80017ac:	6812      	ldr	r2, [r2, #0]
 80017ae:	fa92 f1a2 	rbit	r1, r2
 80017b2:	f507 7202 	add.w	r2, r7, #520	; 0x208
 80017b6:	f5a2 72fc 	sub.w	r2, r2, #504	; 0x1f8
 80017ba:	6011      	str	r1, [r2, #0]
  return result;
 80017bc:	f507 7202 	add.w	r2, r7, #520	; 0x208
 80017c0:	f5a2 72fc 	sub.w	r2, r2, #504	; 0x1f8
 80017c4:	6812      	ldr	r2, [r2, #0]
 80017c6:	fab2 f282 	clz	r2, r2
 80017ca:	b2d2      	uxtb	r2, r2
 80017cc:	f042 0220 	orr.w	r2, r2, #32
 80017d0:	b2d2      	uxtb	r2, r2
 80017d2:	f002 021f 	and.w	r2, r2, #31
 80017d6:	2101      	movs	r1, #1
 80017d8:	fa01 f202 	lsl.w	r2, r1, r2
 80017dc:	4013      	ands	r3, r2
 80017de:	2b00      	cmp	r3, #0
 80017e0:	d182      	bne.n	80016e8 <HAL_RCC_OscConfig+0xf2c>
 80017e2:	e037      	b.n	8001854 <HAL_RCC_OscConfig+0x1098>
      }
    }
    else
    {
      /* Check if there is a request to disable the PLL used as System clock source */
      if((RCC_OscInitStruct->PLL.PLLState) == RCC_PLL_OFF)
 80017e4:	f507 7302 	add.w	r3, r7, #520	; 0x208
 80017e8:	f5a3 7301 	sub.w	r3, r3, #516	; 0x204
 80017ec:	681b      	ldr	r3, [r3, #0]
 80017ee:	699b      	ldr	r3, [r3, #24]
 80017f0:	2b01      	cmp	r3, #1
 80017f2:	d101      	bne.n	80017f8 <HAL_RCC_OscConfig+0x103c>
      {
        return HAL_ERROR;
 80017f4:	2301      	movs	r3, #1
 80017f6:	e02e      	b.n	8001856 <HAL_RCC_OscConfig+0x109a>
      }
      else
      {
        /* Do not return HAL_ERROR if request repeats the current configuration */
        pll_config = RCC->CFGR;
 80017f8:	4b19      	ldr	r3, [pc, #100]	; (8001860 <HAL_RCC_OscConfig+0x10a4>)
 80017fa:	685b      	ldr	r3, [r3, #4]
 80017fc:	f8c7 31fc 	str.w	r3, [r7, #508]	; 0x1fc
#if defined(RCC_CFGR_PLLSRC_HSI_PREDIV)
        pll_config2 = RCC->CFGR2;
 8001800:	4b17      	ldr	r3, [pc, #92]	; (8001860 <HAL_RCC_OscConfig+0x10a4>)
 8001802:	6adb      	ldr	r3, [r3, #44]	; 0x2c
 8001804:	f8c7 31f8 	str.w	r3, [r7, #504]	; 0x1f8
        if((READ_BIT(pll_config, RCC_CFGR_PLLSRC)   != RCC_OscInitStruct->PLL.PLLSource) ||      
 8001808:	f8d7 31fc 	ldr.w	r3, [r7, #508]	; 0x1fc
 800180c:	f403 32c0 	and.w	r2, r3, #98304	; 0x18000
 8001810:	f507 7302 	add.w	r3, r7, #520	; 0x208
 8001814:	f5a3 7301 	sub.w	r3, r3, #516	; 0x204
 8001818:	681b      	ldr	r3, [r3, #0]
 800181a:	69db      	ldr	r3, [r3, #28]
 800181c:	429a      	cmp	r2, r3
 800181e:	d117      	bne.n	8001850 <HAL_RCC_OscConfig+0x1094>
           (READ_BIT(pll_config, RCC_CFGR_PLLMUL)   != RCC_OscInitStruct->PLL.PLLMUL)    ||      
 8001820:	f8d7 31fc 	ldr.w	r3, [r7, #508]	; 0x1fc
 8001824:	f403 1270 	and.w	r2, r3, #3932160	; 0x3c0000
 8001828:	f507 7302 	add.w	r3, r7, #520	; 0x208
 800182c:	f5a3 7301 	sub.w	r3, r3, #516	; 0x204
 8001830:	681b      	ldr	r3, [r3, #0]
 8001832:	6a1b      	ldr	r3, [r3, #32]
        if((READ_BIT(pll_config, RCC_CFGR_PLLSRC)   != RCC_OscInitStruct->PLL.PLLSource) ||      
 8001834:	429a      	cmp	r2, r3
 8001836:	d10b      	bne.n	8001850 <HAL_RCC_OscConfig+0x1094>
           (READ_BIT(pll_config2, RCC_CFGR2_PREDIV)  != RCC_OscInitStruct->PLL.PREDIV))     
 8001838:	f8d7 31f8 	ldr.w	r3, [r7, #504]	; 0x1f8
 800183c:	f003 020f 	and.w	r2, r3, #15
 8001840:	f507 7302 	add.w	r3, r7, #520	; 0x208
 8001844:	f5a3 7301 	sub.w	r3, r3, #516	; 0x204
 8001848:	681b      	ldr	r3, [r3, #0]
 800184a:	6a5b      	ldr	r3, [r3, #36]	; 0x24
           (READ_BIT(pll_config, RCC_CFGR_PLLMUL)   != RCC_OscInitStruct->PLL.PLLMUL)    ||      
 800184c:	429a      	cmp	r2, r3
 800184e:	d001      	beq.n	8001854 <HAL_RCC_OscConfig+0x1098>
#else
        if((READ_BIT(pll_config, RCC_CFGR_PLLSRC)   != RCC_OscInitStruct->PLL.PLLSource) ||      
           (READ_BIT(pll_config, RCC_CFGR_PLLMUL)   != RCC_OscInitStruct->PLL.PLLMUL))
#endif
        {
          return HAL_ERROR;
 8001850:	2301      	movs	r3, #1
 8001852:	e000      	b.n	8001856 <HAL_RCC_OscConfig+0x109a>
        }
      }
    }
  }

  return HAL_OK;
 8001854:	2300      	movs	r3, #0
}
 8001856:	4618      	mov	r0, r3
 8001858:	f507 7702 	add.w	r7, r7, #520	; 0x208
 800185c:	46bd      	mov	sp, r7
 800185e:	bd80      	pop	{r7, pc}
 8001860:	40021000 	.word	0x40021000

08001864 <HAL_RCC_ClockConfig>:
  *         You can use @ref HAL_RCC_GetClockConfig() function to know which clock is
  *         currently used as system clock source.
  * @retval HAL status
  */
HAL_StatusTypeDef HAL_RCC_ClockConfig(RCC_ClkInitTypeDef  *RCC_ClkInitStruct, uint32_t FLatency)
{
 8001864:	b580      	push	{r7, lr}
 8001866:	b09e      	sub	sp, #120	; 0x78
 8001868:	af00      	add	r7, sp, #0
 800186a:	6078      	str	r0, [r7, #4]
 800186c:	6039      	str	r1, [r7, #0]
  uint32_t tickstart = 0U;
 800186e:	2300      	movs	r3, #0
 8001870:	677b      	str	r3, [r7, #116]	; 0x74

  /* Check Null pointer */
  if(RCC_ClkInitStruct == NULL)
 8001872:	687b      	ldr	r3, [r7, #4]
 8001874:	2b00      	cmp	r3, #0
 8001876:	d101      	bne.n	800187c <HAL_RCC_ClockConfig+0x18>
  {
    return HAL_ERROR;
 8001878:	2301      	movs	r3, #1
 800187a:	e162      	b.n	8001b42 <HAL_RCC_ClockConfig+0x2de>
  /* To correctly read data from FLASH memory, the number of wait states (LATENCY) 
  must be correctly programmed according to the frequency of the CPU clock 
    (HCLK) of the device. */

  /* Increasing the number of wait states because of higher CPU frequency */
  if(FLatency > __HAL_FLASH_GET_LATENCY())
 800187c:	4b90      	ldr	r3, [pc, #576]	; (8001ac0 <HAL_RCC_ClockConfig+0x25c>)
 800187e:	681b      	ldr	r3, [r3, #0]
 8001880:	f003 0307 	and.w	r3, r3, #7
 8001884:	683a      	ldr	r2, [r7, #0]
 8001886:	429a      	cmp	r2, r3
 8001888:	d910      	bls.n	80018ac <HAL_RCC_ClockConfig+0x48>
  {    
    /* Program the new number of wait states to the LATENCY bits in the FLASH_ACR register */
    __HAL_FLASH_SET_LATENCY(FLatency);
 800188a:	4b8d      	ldr	r3, [pc, #564]	; (8001ac0 <HAL_RCC_ClockConfig+0x25c>)
 800188c:	681b      	ldr	r3, [r3, #0]
 800188e:	f023 0207 	bic.w	r2, r3, #7
 8001892:	498b      	ldr	r1, [pc, #556]	; (8001ac0 <HAL_RCC_ClockConfig+0x25c>)
 8001894:	683b      	ldr	r3, [r7, #0]
 8001896:	4313      	orrs	r3, r2
 8001898:	600b      	str	r3, [r1, #0]
    
    /* Check that the new number of wait states is taken into account to access the Flash
    memory by reading the FLASH_ACR register */
    if(__HAL_FLASH_GET_LATENCY() != FLatency)
 800189a:	4b89      	ldr	r3, [pc, #548]	; (8001ac0 <HAL_RCC_ClockConfig+0x25c>)
 800189c:	681b      	ldr	r3, [r3, #0]
 800189e:	f003 0307 	and.w	r3, r3, #7
 80018a2:	683a      	ldr	r2, [r7, #0]
 80018a4:	429a      	cmp	r2, r3
 80018a6:	d001      	beq.n	80018ac <HAL_RCC_ClockConfig+0x48>
    {
      return HAL_ERROR;
 80018a8:	2301      	movs	r3, #1
 80018aa:	e14a      	b.n	8001b42 <HAL_RCC_ClockConfig+0x2de>
    }
  }

  /*-------------------------- HCLK Configuration --------------------------*/
  if(((RCC_ClkInitStruct->ClockType) & RCC_CLOCKTYPE_HCLK) == RCC_CLOCKTYPE_HCLK)
 80018ac:	687b      	ldr	r3, [r7, #4]
 80018ae:	681b      	ldr	r3, [r3, #0]
 80018b0:	f003 0302 	and.w	r3, r3, #2
 80018b4:	2b00      	cmp	r3, #0
 80018b6:	d008      	beq.n	80018ca <HAL_RCC_ClockConfig+0x66>
  {
    assert_param(IS_RCC_HCLK(RCC_ClkInitStruct->AHBCLKDivider));
    MODIFY_REG(RCC->CFGR, RCC_CFGR_HPRE, RCC_ClkInitStruct->AHBCLKDivider);
 80018b8:	4b82      	ldr	r3, [pc, #520]	; (8001ac4 <HAL_RCC_ClockConfig+0x260>)
 80018ba:	685b      	ldr	r3, [r3, #4]
 80018bc:	f023 02f0 	bic.w	r2, r3, #240	; 0xf0
 80018c0:	687b      	ldr	r3, [r7, #4]
 80018c2:	689b      	ldr	r3, [r3, #8]
 80018c4:	497f      	ldr	r1, [pc, #508]	; (8001ac4 <HAL_RCC_ClockConfig+0x260>)
 80018c6:	4313      	orrs	r3, r2
 80018c8:	604b      	str	r3, [r1, #4]
  }

  /*------------------------- SYSCLK Configuration ---------------------------*/ 
  if(((RCC_ClkInitStruct->ClockType) & RCC_CLOCKTYPE_SYSCLK) == RCC_CLOCKTYPE_SYSCLK)
 80018ca:	687b      	ldr	r3, [r7, #4]
 80018cc:	681b      	ldr	r3, [r3, #0]
 80018ce:	f003 0301 	and.w	r3, r3, #1
 80018d2:	2b00      	cmp	r3, #0
 80018d4:	f000 80dc 	beq.w	8001a90 <HAL_RCC_ClockConfig+0x22c>
  {    
    assert_param(IS_RCC_SYSCLKSOURCE(RCC_ClkInitStruct->SYSCLKSource));
    
    /* HSE is selected as System Clock Source */
    if(RCC_ClkInitStruct->SYSCLKSource == RCC_SYSCLKSOURCE_HSE)
 80018d8:	687b      	ldr	r3, [r7, #4]
 80018da:	685b      	ldr	r3, [r3, #4]
 80018dc:	2b01      	cmp	r3, #1
 80018de:	d13c      	bne.n	800195a <HAL_RCC_ClockConfig+0xf6>
 80018e0:	f44f 3300 	mov.w	r3, #131072	; 0x20000
 80018e4:	673b      	str	r3, [r7, #112]	; 0x70
   __ASM volatile ("rbit %0, %1" : "=r" (result) : "r" (value) );
 80018e6:	6f3b      	ldr	r3, [r7, #112]	; 0x70
 80018e8:	fa93 f3a3 	rbit	r3, r3
 80018ec:	66fb      	str	r3, [r7, #108]	; 0x6c
  return result;
 80018ee:	6efb      	ldr	r3, [r7, #108]	; 0x6c
    {
      /* Check the HSE ready flag */  
      if(__HAL_RCC_GET_FLAG(RCC_FLAG_HSERDY) == RESET)
 80018f0:	fab3 f383 	clz	r3, r3
 80018f4:	b2db      	uxtb	r3, r3
 80018f6:	095b      	lsrs	r3, r3, #5
 80018f8:	b2db      	uxtb	r3, r3
 80018fa:	f043 0301 	orr.w	r3, r3, #1
 80018fe:	b2db      	uxtb	r3, r3
 8001900:	2b01      	cmp	r3, #1
 8001902:	d102      	bne.n	800190a <HAL_RCC_ClockConfig+0xa6>
 8001904:	4b6f      	ldr	r3, [pc, #444]	; (8001ac4 <HAL_RCC_ClockConfig+0x260>)
 8001906:	681b      	ldr	r3, [r3, #0]
 8001908:	e00f      	b.n	800192a <HAL_RCC_ClockConfig+0xc6>
 800190a:	f44f 3300 	mov.w	r3, #131072	; 0x20000
 800190e:	66bb      	str	r3, [r7, #104]	; 0x68
   __ASM volatile ("rbit %0, %1" : "=r" (result) : "r" (value) );
 8001910:	6ebb      	ldr	r3, [r7, #104]	; 0x68
 8001912:	fa93 f3a3 	rbit	r3, r3
 8001916:	667b      	str	r3, [r7, #100]	; 0x64
 8001918:	f44f 3300 	mov.w	r3, #131072	; 0x20000
 800191c:	663b      	str	r3, [r7, #96]	; 0x60
 800191e:	6e3b      	ldr	r3, [r7, #96]	; 0x60
 8001920:	fa93 f3a3 	rbit	r3, r3
 8001924:	65fb      	str	r3, [r7, #92]	; 0x5c
 8001926:	4b67      	ldr	r3, [pc, #412]	; (8001ac4 <HAL_RCC_ClockConfig+0x260>)
 8001928:	6a5b      	ldr	r3, [r3, #36]	; 0x24
 800192a:	f44f 3200 	mov.w	r2, #131072	; 0x20000
 800192e:	65ba      	str	r2, [r7, #88]	; 0x58
 8001930:	6dba      	ldr	r2, [r7, #88]	; 0x58
 8001932:	fa92 f2a2 	rbit	r2, r2
 8001936:	657a      	str	r2, [r7, #84]	; 0x54
  return result;
 8001938:	6d7a      	ldr	r2, [r7, #84]	; 0x54
 800193a:	fab2 f282 	clz	r2, r2
 800193e:	b2d2      	uxtb	r2, r2
 8001940:	f042 0220 	orr.w	r2, r2, #32
 8001944:	b2d2      	uxtb	r2, r2
 8001946:	f002 021f 	and.w	r2, r2, #31
 800194a:	2101      	movs	r1, #1
 800194c:	fa01 f202 	lsl.w	r2, r1, r2
 8001950:	4013      	ands	r3, r2
 8001952:	2b00      	cmp	r3, #0
 8001954:	d17b      	bne.n	8001a4e <HAL_RCC_ClockConfig+0x1ea>
      {
        return HAL_ERROR;
 8001956:	2301      	movs	r3, #1
 8001958:	e0f3      	b.n	8001b42 <HAL_RCC_ClockConfig+0x2de>
      }
    }
    /* PLL is selected as System Clock Source */
    else if(RCC_ClkInitStruct->SYSCLKSource == RCC_SYSCLKSOURCE_PLLCLK)
 800195a:	687b      	ldr	r3, [r7, #4]
 800195c:	685b      	ldr	r3, [r3, #4]
 800195e:	2b02      	cmp	r3, #2
 8001960:	d13c      	bne.n	80019dc <HAL_RCC_ClockConfig+0x178>
 8001962:	f04f 7300 	mov.w	r3, #33554432	; 0x2000000
 8001966:	653b      	str	r3, [r7, #80]	; 0x50
   __ASM volatile ("rbit %0, %1" : "=r" (result) : "r" (value) );
 8001968:	6d3b      	ldr	r3, [r7, #80]	; 0x50
 800196a:	fa93 f3a3 	rbit	r3, r3
 800196e:	64fb      	str	r3, [r7, #76]	; 0x4c
  return result;
 8001970:	6cfb      	ldr	r3, [r7, #76]	; 0x4c
    {
      /* Check the PLL ready flag */  
      if(__HAL_RCC_GET_FLAG(RCC_FLAG_PLLRDY) == RESET)
 8001972:	fab3 f383 	clz	r3, r3
 8001976:	b2db      	uxtb	r3, r3
 8001978:	095b      	lsrs	r3, r3, #5
 800197a:	b2db      	uxtb	r3, r3
 800197c:	f043 0301 	orr.w	r3, r3, #1
 8001980:	b2db      	uxtb	r3, r3
 8001982:	2b01      	cmp	r3, #1
 8001984:	d102      	bne.n	800198c <HAL_RCC_ClockConfig+0x128>
 8001986:	4b4f      	ldr	r3, [pc, #316]	; (8001ac4 <HAL_RCC_ClockConfig+0x260>)
 8001988:	681b      	ldr	r3, [r3, #0]
 800198a:	e00f      	b.n	80019ac <HAL_RCC_ClockConfig+0x148>
 800198c:	f04f 7300 	mov.w	r3, #33554432	; 0x2000000
 8001990:	64bb      	str	r3, [r7, #72]	; 0x48
   __ASM volatile ("rbit %0, %1" : "=r" (result) : "r" (value) );
 8001992:	6cbb      	ldr	r3, [r7, #72]	; 0x48
 8001994:	fa93 f3a3 	rbit	r3, r3
 8001998:	647b      	str	r3, [r7, #68]	; 0x44
 800199a:	f04f 7300 	mov.w	r3, #33554432	; 0x2000000
 800199e:	643b      	str	r3, [r7, #64]	; 0x40
 80019a0:	6c3b      	ldr	r3, [r7, #64]	; 0x40
 80019a2:	fa93 f3a3 	rbit	r3, r3
 80019a6:	63fb      	str	r3, [r7, #60]	; 0x3c
 80019a8:	4b46      	ldr	r3, [pc, #280]	; (8001ac4 <HAL_RCC_ClockConfig+0x260>)
 80019aa:	6a5b      	ldr	r3, [r3, #36]	; 0x24
 80019ac:	f04f 7200 	mov.w	r2, #33554432	; 0x2000000
 80019b0:	63ba      	str	r2, [r7, #56]	; 0x38
 80019b2:	6bba      	ldr	r2, [r7, #56]	; 0x38
 80019b4:	fa92 f2a2 	rbit	r2, r2
 80019b8:	637a      	str	r2, [r7, #52]	; 0x34
  return result;
 80019ba:	6b7a      	ldr	r2, [r7, #52]	; 0x34
 80019bc:	fab2 f282 	clz	r2, r2
 80019c0:	b2d2      	uxtb	r2, r2
 80019c2:	f042 0220 	orr.w	r2, r2, #32
 80019c6:	b2d2      	uxtb	r2, r2
 80019c8:	f002 021f 	and.w	r2, r2, #31
 80019cc:	2101      	movs	r1, #1
 80019ce:	fa01 f202 	lsl.w	r2, r1, r2
 80019d2:	4013      	ands	r3, r2
 80019d4:	2b00      	cmp	r3, #0
 80019d6:	d13a      	bne.n	8001a4e <HAL_RCC_ClockConfig+0x1ea>
      {
        return HAL_ERROR;
 80019d8:	2301      	movs	r3, #1
 80019da:	e0b2      	b.n	8001b42 <HAL_RCC_ClockConfig+0x2de>
 80019dc:	2302      	movs	r3, #2
 80019de:	633b      	str	r3, [r7, #48]	; 0x30
   __ASM volatile ("rbit %0, %1" : "=r" (result) : "r" (value) );
 80019e0:	6b3b      	ldr	r3, [r7, #48]	; 0x30
 80019e2:	fa93 f3a3 	rbit	r3, r3
 80019e6:	62fb      	str	r3, [r7, #44]	; 0x2c
  return result;
 80019e8:	6afb      	ldr	r3, [r7, #44]	; 0x2c
    }
    /* HSI is selected as System Clock Source */
    else
    {
      /* Check the HSI ready flag */  
      if(__HAL_RCC_GET_FLAG(RCC_FLAG_HSIRDY) == RESET)
 80019ea:	fab3 f383 	clz	r3, r3
 80019ee:	b2db      	uxtb	r3, r3
 80019f0:	095b      	lsrs	r3, r3, #5
 80019f2:	b2db      	uxtb	r3, r3
 80019f4:	f043 0301 	orr.w	r3, r3, #1
 80019f8:	b2db      	uxtb	r3, r3
 80019fa:	2b01      	cmp	r3, #1
 80019fc:	d102      	bne.n	8001a04 <HAL_RCC_ClockConfig+0x1a0>
 80019fe:	4b31      	ldr	r3, [pc, #196]	; (8001ac4 <HAL_RCC_ClockConfig+0x260>)
 8001a00:	681b      	ldr	r3, [r3, #0]
 8001a02:	e00d      	b.n	8001a20 <HAL_RCC_ClockConfig+0x1bc>
 8001a04:	2302      	movs	r3, #2
 8001a06:	62bb      	str	r3, [r7, #40]	; 0x28
   __ASM volatile ("rbit %0, %1" : "=r" (result) : "r" (value) );
 8001a08:	6abb      	ldr	r3, [r7, #40]	; 0x28
 8001a0a:	fa93 f3a3 	rbit	r3, r3
 8001a0e:	627b      	str	r3, [r7, #36]	; 0x24
 8001a10:	2302      	movs	r3, #2
 8001a12:	623b      	str	r3, [r7, #32]
 8001a14:	6a3b      	ldr	r3, [r7, #32]
 8001a16:	fa93 f3a3 	rbit	r3, r3
 8001a1a:	61fb      	str	r3, [r7, #28]
 8001a1c:	4b29      	ldr	r3, [pc, #164]	; (8001ac4 <HAL_RCC_ClockConfig+0x260>)
 8001a1e:	6a5b      	ldr	r3, [r3, #36]	; 0x24
 8001a20:	2202      	movs	r2, #2
 8001a22:	61ba      	str	r2, [r7, #24]
 8001a24:	69ba      	ldr	r2, [r7, #24]
 8001a26:	fa92 f2a2 	rbit	r2, r2
 8001a2a:	617a      	str	r2, [r7, #20]
  return result;
 8001a2c:	697a      	ldr	r2, [r7, #20]
 8001a2e:	fab2 f282 	clz	r2, r2
 8001a32:	b2d2      	uxtb	r2, r2
 8001a34:	f042 0220 	orr.w	r2, r2, #32
 8001a38:	b2d2      	uxtb	r2, r2
 8001a3a:	f002 021f 	and.w	r2, r2, #31
 8001a3e:	2101      	movs	r1, #1
 8001a40:	fa01 f202 	lsl.w	r2, r1, r2
 8001a44:	4013      	ands	r3, r2
 8001a46:	2b00      	cmp	r3, #0
 8001a48:	d101      	bne.n	8001a4e <HAL_RCC_ClockConfig+0x1ea>
      {
        return HAL_ERROR;
 8001a4a:	2301      	movs	r3, #1
 8001a4c:	e079      	b.n	8001b42 <HAL_RCC_ClockConfig+0x2de>
      }
    }

    __HAL_RCC_SYSCLK_CONFIG(RCC_ClkInitStruct->SYSCLKSource);
 8001a4e:	4b1d      	ldr	r3, [pc, #116]	; (8001ac4 <HAL_RCC_ClockConfig+0x260>)
 8001a50:	685b      	ldr	r3, [r3, #4]
 8001a52:	f023 0203 	bic.w	r2, r3, #3
 8001a56:	687b      	ldr	r3, [r7, #4]
 8001a58:	685b      	ldr	r3, [r3, #4]
 8001a5a:	491a      	ldr	r1, [pc, #104]	; (8001ac4 <HAL_RCC_ClockConfig+0x260>)
 8001a5c:	4313      	orrs	r3, r2
 8001a5e:	604b      	str	r3, [r1, #4]

    /* Get Start Tick */
    tickstart = HAL_GetTick();
 8001a60:	f7fe fdba 	bl	80005d8 <HAL_GetTick>
 8001a64:	6778      	str	r0, [r7, #116]	; 0x74
    
    while (__HAL_RCC_GET_SYSCLK_SOURCE() != (RCC_ClkInitStruct->SYSCLKSource << RCC_CFGR_SWS_Pos))
 8001a66:	e00a      	b.n	8001a7e <HAL_RCC_ClockConfig+0x21a>
    {
      if ((HAL_GetTick() - tickstart) > CLOCKSWITCH_TIMEOUT_VALUE)
 8001a68:	f7fe fdb6 	bl	80005d8 <HAL_GetTick>
 8001a6c:	4602      	mov	r2, r0
 8001a6e:	6f7b      	ldr	r3, [r7, #116]	; 0x74
 8001a70:	1ad3      	subs	r3, r2, r3
 8001a72:	f241 3288 	movw	r2, #5000	; 0x1388
 8001a76:	4293      	cmp	r3, r2
 8001a78:	d901      	bls.n	8001a7e <HAL_RCC_ClockConfig+0x21a>
      {
        return HAL_TIMEOUT;
 8001a7a:	2303      	movs	r3, #3
 8001a7c:	e061      	b.n	8001b42 <HAL_RCC_ClockConfig+0x2de>
    while (__HAL_RCC_GET_SYSCLK_SOURCE() != (RCC_ClkInitStruct->SYSCLKSource << RCC_CFGR_SWS_Pos))
 8001a7e:	4b11      	ldr	r3, [pc, #68]	; (8001ac4 <HAL_RCC_ClockConfig+0x260>)
 8001a80:	685b      	ldr	r3, [r3, #4]
 8001a82:	f003 020c 	and.w	r2, r3, #12
 8001a86:	687b      	ldr	r3, [r7, #4]
 8001a88:	685b      	ldr	r3, [r3, #4]
 8001a8a:	009b      	lsls	r3, r3, #2
 8001a8c:	429a      	cmp	r2, r3
 8001a8e:	d1eb      	bne.n	8001a68 <HAL_RCC_ClockConfig+0x204>
      }
    }
  }
  /* Decreasing the number of wait states because of lower CPU frequency */
  if(FLatency < __HAL_FLASH_GET_LATENCY())
 8001a90:	4b0b      	ldr	r3, [pc, #44]	; (8001ac0 <HAL_RCC_ClockConfig+0x25c>)
 8001a92:	681b      	ldr	r3, [r3, #0]
 8001a94:	f003 0307 	and.w	r3, r3, #7
 8001a98:	683a      	ldr	r2, [r7, #0]
 8001a9a:	429a      	cmp	r2, r3
 8001a9c:	d214      	bcs.n	8001ac8 <HAL_RCC_ClockConfig+0x264>
  {    
    /* Program the new number of wait states to the LATENCY bits in the FLASH_ACR register */
    __HAL_FLASH_SET_LATENCY(FLatency);
 8001a9e:	4b08      	ldr	r3, [pc, #32]	; (8001ac0 <HAL_RCC_ClockConfig+0x25c>)
 8001aa0:	681b      	ldr	r3, [r3, #0]
 8001aa2:	f023 0207 	bic.w	r2, r3, #7
 8001aa6:	4906      	ldr	r1, [pc, #24]	; (8001ac0 <HAL_RCC_ClockConfig+0x25c>)
 8001aa8:	683b      	ldr	r3, [r7, #0]
 8001aaa:	4313      	orrs	r3, r2
 8001aac:	600b      	str	r3, [r1, #0]
    
    /* Check that the new number of wait states is taken into account to access the Flash
    memory by reading the FLASH_ACR register */
    if(__HAL_FLASH_GET_LATENCY() != FLatency)
 8001aae:	4b04      	ldr	r3, [pc, #16]	; (8001ac0 <HAL_RCC_ClockConfig+0x25c>)
 8001ab0:	681b      	ldr	r3, [r3, #0]
 8001ab2:	f003 0307 	and.w	r3, r3, #7
 8001ab6:	683a      	ldr	r2, [r7, #0]
 8001ab8:	429a      	cmp	r2, r3
 8001aba:	d005      	beq.n	8001ac8 <HAL_RCC_ClockConfig+0x264>
    {
      return HAL_ERROR;
 8001abc:	2301      	movs	r3, #1
 8001abe:	e040      	b.n	8001b42 <HAL_RCC_ClockConfig+0x2de>
 8001ac0:	40022000 	.word	0x40022000
 8001ac4:	40021000 	.word	0x40021000
    }
  }    

  /*-------------------------- PCLK1 Configuration ---------------------------*/ 
  if(((RCC_ClkInitStruct->ClockType) & RCC_CLOCKTYPE_PCLK1) == RCC_CLOCKTYPE_PCLK1)
 8001ac8:	687b      	ldr	r3, [r7, #4]
 8001aca:	681b      	ldr	r3, [r3, #0]
 8001acc:	f003 0304 	and.w	r3, r3, #4
 8001ad0:	2b00      	cmp	r3, #0
 8001ad2:	d008      	beq.n	8001ae6 <HAL_RCC_ClockConfig+0x282>
  {
    assert_param(IS_RCC_PCLK(RCC_ClkInitStruct->APB1CLKDivider));
    MODIFY_REG(RCC->CFGR, RCC_CFGR_PPRE1, RCC_ClkInitStruct->APB1CLKDivider);
 8001ad4:	4b1d      	ldr	r3, [pc, #116]	; (8001b4c <HAL_RCC_ClockConfig+0x2e8>)
 8001ad6:	685b      	ldr	r3, [r3, #4]
 8001ad8:	f423 62e0 	bic.w	r2, r3, #1792	; 0x700
 8001adc:	687b      	ldr	r3, [r7, #4]
 8001ade:	68db      	ldr	r3, [r3, #12]
 8001ae0:	491a      	ldr	r1, [pc, #104]	; (8001b4c <HAL_RCC_ClockConfig+0x2e8>)
 8001ae2:	4313      	orrs	r3, r2
 8001ae4:	604b      	str	r3, [r1, #4]
  }
  
  /*-------------------------- PCLK2 Configuration ---------------------------*/ 
  if(((RCC_ClkInitStruct->ClockType) & RCC_CLOCKTYPE_PCLK2) == RCC_CLOCKTYPE_PCLK2)
 8001ae6:	687b      	ldr	r3, [r7, #4]
 8001ae8:	681b      	ldr	r3, [r3, #0]
 8001aea:	f003 0308 	and.w	r3, r3, #8
 8001aee:	2b00      	cmp	r3, #0
 8001af0:	d009      	beq.n	8001b06 <HAL_RCC_ClockConfig+0x2a2>
  {
    assert_param(IS_RCC_PCLK(RCC_ClkInitStruct->APB2CLKDivider));
    MODIFY_REG(RCC->CFGR, RCC_CFGR_PPRE2, ((RCC_ClkInitStruct->APB2CLKDivider) << 3U));
 8001af2:	4b16      	ldr	r3, [pc, #88]	; (8001b4c <HAL_RCC_ClockConfig+0x2e8>)
 8001af4:	685b      	ldr	r3, [r3, #4]
 8001af6:	f423 5260 	bic.w	r2, r3, #14336	; 0x3800
 8001afa:	687b      	ldr	r3, [r7, #4]
 8001afc:	691b      	ldr	r3, [r3, #16]
 8001afe:	00db      	lsls	r3, r3, #3
 8001b00:	4912      	ldr	r1, [pc, #72]	; (8001b4c <HAL_RCC_ClockConfig+0x2e8>)
 8001b02:	4313      	orrs	r3, r2
 8001b04:	604b      	str	r3, [r1, #4]
  }
 
  /* Update the SystemCoreClock global variable */
  SystemCoreClock = HAL_RCC_GetSysClockFreq() >> AHBPrescTable[(RCC->CFGR & RCC_CFGR_HPRE)>> RCC_CFGR_HPRE_BITNUMBER];
 8001b06:	f000 f829 	bl	8001b5c <HAL_RCC_GetSysClockFreq>
 8001b0a:	4601      	mov	r1, r0
 8001b0c:	4b0f      	ldr	r3, [pc, #60]	; (8001b4c <HAL_RCC_ClockConfig+0x2e8>)
 8001b0e:	685b      	ldr	r3, [r3, #4]
 8001b10:	f003 03f0 	and.w	r3, r3, #240	; 0xf0
 8001b14:	22f0      	movs	r2, #240	; 0xf0
 8001b16:	613a      	str	r2, [r7, #16]
   __ASM volatile ("rbit %0, %1" : "=r" (result) : "r" (value) );
 8001b18:	693a      	ldr	r2, [r7, #16]
 8001b1a:	fa92 f2a2 	rbit	r2, r2
 8001b1e:	60fa      	str	r2, [r7, #12]
  return result;
 8001b20:	68fa      	ldr	r2, [r7, #12]
 8001b22:	fab2 f282 	clz	r2, r2
 8001b26:	b2d2      	uxtb	r2, r2
 8001b28:	40d3      	lsrs	r3, r2
 8001b2a:	4a09      	ldr	r2, [pc, #36]	; (8001b50 <HAL_RCC_ClockConfig+0x2ec>)
 8001b2c:	5cd3      	ldrb	r3, [r2, r3]
 8001b2e:	fa21 f303 	lsr.w	r3, r1, r3
 8001b32:	4a08      	ldr	r2, [pc, #32]	; (8001b54 <HAL_RCC_ClockConfig+0x2f0>)
 8001b34:	6013      	str	r3, [r2, #0]

  /* Configure the source of time base considering new system clocks settings*/
  HAL_InitTick (uwTickPrio);
 8001b36:	4b08      	ldr	r3, [pc, #32]	; (8001b58 <HAL_RCC_ClockConfig+0x2f4>)
 8001b38:	681b      	ldr	r3, [r3, #0]
 8001b3a:	4618      	mov	r0, r3
 8001b3c:	f7fe fd08 	bl	8000550 <HAL_InitTick>
  
  return HAL_OK;
 8001b40:	2300      	movs	r3, #0
}
 8001b42:	4618      	mov	r0, r3
 8001b44:	3778      	adds	r7, #120	; 0x78
 8001b46:	46bd      	mov	sp, r7
 8001b48:	bd80      	pop	{r7, pc}
 8001b4a:	bf00      	nop
 8001b4c:	40021000 	.word	0x40021000
 8001b50:	08001ca0 	.word	0x08001ca0
 8001b54:	20000000 	.word	0x20000000
 8001b58:	20000004 	.word	0x20000004

08001b5c <HAL_RCC_GetSysClockFreq>:
  *         right SYSCLK value. Otherwise, any configuration based on this function will be incorrect.
  *         
  * @retval SYSCLK frequency
  */
uint32_t HAL_RCC_GetSysClockFreq(void)
{
 8001b5c:	b480      	push	{r7}
 8001b5e:	b08b      	sub	sp, #44	; 0x2c
 8001b60:	af00      	add	r7, sp, #0
  uint32_t tmpreg = 0U, prediv = 0U, pllclk = 0U, pllmul = 0U;
 8001b62:	2300      	movs	r3, #0
 8001b64:	61fb      	str	r3, [r7, #28]
 8001b66:	2300      	movs	r3, #0
 8001b68:	61bb      	str	r3, [r7, #24]
 8001b6a:	2300      	movs	r3, #0
 8001b6c:	627b      	str	r3, [r7, #36]	; 0x24
 8001b6e:	2300      	movs	r3, #0
 8001b70:	617b      	str	r3, [r7, #20]
  uint32_t sysclockfreq = 0U;
 8001b72:	2300      	movs	r3, #0
 8001b74:	623b      	str	r3, [r7, #32]
  
  tmpreg = RCC->CFGR;
 8001b76:	4b2a      	ldr	r3, [pc, #168]	; (8001c20 <HAL_RCC_GetSysClockFreq+0xc4>)
 8001b78:	685b      	ldr	r3, [r3, #4]
 8001b7a:	61fb      	str	r3, [r7, #28]
  
  /* Get SYSCLK source -------------------------------------------------------*/
  switch (tmpreg & RCC_CFGR_SWS)
 8001b7c:	69fb      	ldr	r3, [r7, #28]
 8001b7e:	f003 030c 	and.w	r3, r3, #12
 8001b82:	2b04      	cmp	r3, #4
 8001b84:	d002      	beq.n	8001b8c <HAL_RCC_GetSysClockFreq+0x30>
 8001b86:	2b08      	cmp	r3, #8
 8001b88:	d003      	beq.n	8001b92 <HAL_RCC_GetSysClockFreq+0x36>
 8001b8a:	e03f      	b.n	8001c0c <HAL_RCC_GetSysClockFreq+0xb0>
  {
    case RCC_SYSCLKSOURCE_STATUS_HSE:  /* HSE used as system clock */
    {
      sysclockfreq = HSE_VALUE;
 8001b8c:	4b25      	ldr	r3, [pc, #148]	; (8001c24 <HAL_RCC_GetSysClockFreq+0xc8>)
 8001b8e:	623b      	str	r3, [r7, #32]
      break;
 8001b90:	e03f      	b.n	8001c12 <HAL_RCC_GetSysClockFreq+0xb6>
    }
    case RCC_SYSCLKSOURCE_STATUS_PLLCLK:  /* PLL used as system clock */
    {
      pllmul = aPLLMULFactorTable[(uint32_t)(tmpreg & RCC_CFGR_PLLMUL) >> POSITION_VAL(RCC_CFGR_PLLMUL)];
 8001b92:	69fb      	ldr	r3, [r7, #28]
 8001b94:	f403 1370 	and.w	r3, r3, #3932160	; 0x3c0000
 8001b98:	f44f 1270 	mov.w	r2, #3932160	; 0x3c0000
 8001b9c:	60ba      	str	r2, [r7, #8]
   __ASM volatile ("rbit %0, %1" : "=r" (result) : "r" (value) );
 8001b9e:	68ba      	ldr	r2, [r7, #8]
 8001ba0:	fa92 f2a2 	rbit	r2, r2
 8001ba4:	607a      	str	r2, [r7, #4]
  return result;
 8001ba6:	687a      	ldr	r2, [r7, #4]
 8001ba8:	fab2 f282 	clz	r2, r2
 8001bac:	b2d2      	uxtb	r2, r2
 8001bae:	40d3      	lsrs	r3, r2
 8001bb0:	4a1d      	ldr	r2, [pc, #116]	; (8001c28 <HAL_RCC_GetSysClockFreq+0xcc>)
 8001bb2:	5cd3      	ldrb	r3, [r2, r3]
 8001bb4:	617b      	str	r3, [r7, #20]
      prediv = aPredivFactorTable[(uint32_t)(RCC->CFGR2 & RCC_CFGR2_PREDIV) >> POSITION_VAL(RCC_CFGR2_PREDIV)];
 8001bb6:	4b1a      	ldr	r3, [pc, #104]	; (8001c20 <HAL_RCC_GetSysClockFreq+0xc4>)
 8001bb8:	6adb      	ldr	r3, [r3, #44]	; 0x2c
 8001bba:	f003 030f 	and.w	r3, r3, #15
 8001bbe:	220f      	movs	r2, #15
 8001bc0:	613a      	str	r2, [r7, #16]
   __ASM volatile ("rbit %0, %1" : "=r" (result) : "r" (value) );
 8001bc2:	693a      	ldr	r2, [r7, #16]
 8001bc4:	fa92 f2a2 	rbit	r2, r2
 8001bc8:	60fa      	str	r2, [r7, #12]
  return result;
 8001bca:	68fa      	ldr	r2, [r7, #12]
 8001bcc:	fab2 f282 	clz	r2, r2
 8001bd0:	b2d2      	uxtb	r2, r2
 8001bd2:	40d3      	lsrs	r3, r2
 8001bd4:	4a15      	ldr	r2, [pc, #84]	; (8001c2c <HAL_RCC_GetSysClockFreq+0xd0>)
 8001bd6:	5cd3      	ldrb	r3, [r2, r3]
 8001bd8:	61bb      	str	r3, [r7, #24]
      {
        /* HSI used as PLL clock source : PLLCLK = HSI/2 * PLLMUL */
        pllclk = (uint32_t)((uint64_t) (HSI_VALUE >> 1U) * ((uint64_t) pllmul));
      }
#else
      if ((tmpreg & RCC_CFGR_PLLSRC_HSE_PREDIV) == RCC_CFGR_PLLSRC_HSE_PREDIV)
 8001bda:	69fb      	ldr	r3, [r7, #28]
 8001bdc:	f403 3380 	and.w	r3, r3, #65536	; 0x10000
 8001be0:	2b00      	cmp	r3, #0
 8001be2:	d008      	beq.n	8001bf6 <HAL_RCC_GetSysClockFreq+0x9a>
      {
        /* HSE used as PLL clock source : PLLCLK = HSE/PREDIV * PLLMUL */
        pllclk = (uint32_t)((uint64_t) HSE_VALUE / (uint64_t) (prediv)) * ((uint64_t) pllmul);
 8001be4:	4a0f      	ldr	r2, [pc, #60]	; (8001c24 <HAL_RCC_GetSysClockFreq+0xc8>)
 8001be6:	69bb      	ldr	r3, [r7, #24]
 8001be8:	fbb2 f2f3 	udiv	r2, r2, r3
 8001bec:	697b      	ldr	r3, [r7, #20]
 8001bee:	fb02 f303 	mul.w	r3, r2, r3
 8001bf2:	627b      	str	r3, [r7, #36]	; 0x24
 8001bf4:	e007      	b.n	8001c06 <HAL_RCC_GetSysClockFreq+0xaa>
      }
      else
      {
        /* HSI used as PLL clock source : PLLCLK = HSI/PREDIV * PLLMUL */
        pllclk = (uint32_t)((uint64_t) HSI_VALUE / (uint64_t) (prediv)) * ((uint64_t) pllmul);
 8001bf6:	4a0b      	ldr	r2, [pc, #44]	; (8001c24 <HAL_RCC_GetSysClockFreq+0xc8>)
 8001bf8:	69bb      	ldr	r3, [r7, #24]
 8001bfa:	fbb2 f2f3 	udiv	r2, r2, r3
 8001bfe:	697b      	ldr	r3, [r7, #20]
 8001c00:	fb02 f303 	mul.w	r3, r2, r3
 8001c04:	627b      	str	r3, [r7, #36]	; 0x24
      }
#endif /* RCC_CFGR_PLLSRC_HSI_DIV2 */
      sysclockfreq = pllclk;
 8001c06:	6a7b      	ldr	r3, [r7, #36]	; 0x24
 8001c08:	623b      	str	r3, [r7, #32]
      break;
 8001c0a:	e002      	b.n	8001c12 <HAL_RCC_GetSysClockFreq+0xb6>
    }
    case RCC_SYSCLKSOURCE_STATUS_HSI:  /* HSI used as system clock source */
    default: /* HSI used as system clock */
    {
      sysclockfreq = HSI_VALUE;
 8001c0c:	4b05      	ldr	r3, [pc, #20]	; (8001c24 <HAL_RCC_GetSysClockFreq+0xc8>)
 8001c0e:	623b      	str	r3, [r7, #32]
      break;
 8001c10:	bf00      	nop
    }
  }
  return sysclockfreq;
 8001c12:	6a3b      	ldr	r3, [r7, #32]
}
 8001c14:	4618      	mov	r0, r3
 8001c16:	372c      	adds	r7, #44	; 0x2c
 8001c18:	46bd      	mov	sp, r7
 8001c1a:	f85d 7b04 	ldr.w	r7, [sp], #4
 8001c1e:	4770      	bx	lr
 8001c20:	40021000 	.word	0x40021000
 8001c24:	007a1200 	.word	0x007a1200
 8001c28:	08001cb0 	.word	0x08001cb0
 8001c2c:	08001cc0 	.word	0x08001cc0

08001c30 <memset>:
 8001c30:	4402      	add	r2, r0
 8001c32:	4603      	mov	r3, r0
 8001c34:	4293      	cmp	r3, r2
 8001c36:	d100      	bne.n	8001c3a <memset+0xa>
 8001c38:	4770      	bx	lr
 8001c3a:	f803 1b01 	strb.w	r1, [r3], #1
 8001c3e:	e7f9      	b.n	8001c34 <memset+0x4>

08001c40 <__libc_init_array>:
 8001c40:	b570      	push	{r4, r5, r6, lr}
 8001c42:	4d0d      	ldr	r5, [pc, #52]	; (8001c78 <__libc_init_array+0x38>)
 8001c44:	4c0d      	ldr	r4, [pc, #52]	; (8001c7c <__libc_init_array+0x3c>)
 8001c46:	1b64      	subs	r4, r4, r5
 8001c48:	10a4      	asrs	r4, r4, #2
 8001c4a:	2600      	movs	r6, #0
 8001c4c:	42a6      	cmp	r6, r4
 8001c4e:	d109      	bne.n	8001c64 <__libc_init_array+0x24>
 8001c50:	4d0b      	ldr	r5, [pc, #44]	; (8001c80 <__libc_init_array+0x40>)
 8001c52:	4c0c      	ldr	r4, [pc, #48]	; (8001c84 <__libc_init_array+0x44>)
 8001c54:	f000 f818 	bl	8001c88 <_init>
 8001c58:	1b64      	subs	r4, r4, r5
 8001c5a:	10a4      	asrs	r4, r4, #2
 8001c5c:	2600      	movs	r6, #0
 8001c5e:	42a6      	cmp	r6, r4
 8001c60:	d105      	bne.n	8001c6e <__libc_init_array+0x2e>
 8001c62:	bd70      	pop	{r4, r5, r6, pc}
 8001c64:	f855 3b04 	ldr.w	r3, [r5], #4
 8001c68:	4798      	blx	r3
 8001c6a:	3601      	adds	r6, #1
 8001c6c:	e7ee      	b.n	8001c4c <__libc_init_array+0xc>
 8001c6e:	f855 3b04 	ldr.w	r3, [r5], #4
 8001c72:	4798      	blx	r3
 8001c74:	3601      	adds	r6, #1
 8001c76:	e7f2      	b.n	8001c5e <__libc_init_array+0x1e>
 8001c78:	08001cd0 	.word	0x08001cd0
 8001c7c:	08001cd0 	.word	0x08001cd0
 8001c80:	08001cd0 	.word	0x08001cd0
 8001c84:	08001cd4 	.word	0x08001cd4

08001c88 <_init>:
 8001c88:	b5f8      	push	{r3, r4, r5, r6, r7, lr}
 8001c8a:	bf00      	nop
 8001c8c:	bcf8      	pop	{r3, r4, r5, r6, r7}
 8001c8e:	bc08      	pop	{r3}
 8001c90:	469e      	mov	lr, r3
 8001c92:	4770      	bx	lr

08001c94 <_fini>:
 8001c94:	b5f8      	push	{r3, r4, r5, r6, r7, lr}
 8001c96:	bf00      	nop
 8001c98:	bcf8      	pop	{r3, r4, r5, r6, r7}
 8001c9a:	bc08      	pop	{r3}
 8001c9c:	469e      	mov	lr, r3
 8001c9e:	4770      	bx	lr
