
timers_output_c.elf:     file format elf32-littlearm

Sections:
Idx Name          Size      VMA       LMA       File off  Algn
  0 .isr_vector   00000194  08000000  08000000  00010000  2**0
                  CONTENTS, ALLOC, LOAD, READONLY, DATA
  1 .text         00001fe0  08000194  08000194  00010194  2**2
                  CONTENTS, ALLOC, LOAD, READONLY, CODE
  2 .rodata       00000030  08002174  08002174  00012174  2**2
                  CONTENTS, ALLOC, LOAD, READONLY, DATA
  3 .ARM.extab    00000000  080021a4  080021a4  00020010  2**0
                  CONTENTS
  4 .ARM          00000000  080021a4  080021a4  00020010  2**0
                  CONTENTS
  5 .preinit_array 00000000  080021a4  080021a4  00020010  2**0
                  CONTENTS, ALLOC, LOAD, DATA
  6 .init_array   00000004  080021a4  080021a4  000121a4  2**2
                  CONTENTS, ALLOC, LOAD, DATA
  7 .fini_array   00000004  080021a8  080021a8  000121a8  2**2
                  CONTENTS, ALLOC, LOAD, DATA
  8 .data         00000010  20000000  080021ac  00020000  2**2
                  CONTENTS, ALLOC, LOAD, DATA
  9 .ccmram       00000000  10000000  10000000  00020010  2**0
                  CONTENTS
 10 .bss          00000028  20000010  20000010  00020010  2**2
                  ALLOC
 11 ._user_heap_stack 00000600  20000038  20000038  00020010  2**0
                  ALLOC
 12 .ARM.attributes 00000030  00000000  00000000  00020010  2**0
                  CONTENTS, READONLY
 13 .comment      00000043  00000000  00000000  00020040  2**0
                  CONTENTS, READONLY
 14 .debug_info   000043f6  00000000  00000000  00020083  2**0
                  CONTENTS, READONLY, DEBUGGING, OCTETS
 15 .debug_abbrev 00000f39  00000000  00000000  00024479  2**0
                  CONTENTS, READONLY, DEBUGGING, OCTETS
 16 .debug_aranges 00000418  00000000  00000000  000253b8  2**3
                  CONTENTS, READONLY, DEBUGGING, OCTETS
 17 .debug_rnglists 000002f2  00000000  00000000  000257d0  2**0
                  CONTENTS, READONLY, DEBUGGING, OCTETS
 18 .debug_macro  0001e264  00000000  00000000  00025ac2  2**0
                  CONTENTS, READONLY, DEBUGGING, OCTETS
 19 .debug_line   00005519  00000000  00000000  00043d26  2**0
                  CONTENTS, READONLY, DEBUGGING, OCTETS
 20 .debug_str    000b6e7b  00000000  00000000  0004923f  2**0
                  CONTENTS, READONLY, DEBUGGING, OCTETS
 21 .debug_frame  00000e88  00000000  00000000  001000bc  2**2
                  CONTENTS, READONLY, DEBUGGING, OCTETS
 22 .debug_line_str 00000059  00000000  00000000  00100f44  2**0
                  CONTENTS, READONLY, DEBUGGING, OCTETS

Disassembly of section .text:

08000194 <__do_global_dtors_aux>:
 8000194:	b510      	push	{r4, lr}
 8000196:	4c05      	ldr	r4, [pc, #20]	; (80001ac <__do_global_dtors_aux+0x18>)
 8000198:	7823      	ldrb	r3, [r4, #0]
 800019a:	b933      	cbnz	r3, 80001aa <__do_global_dtors_aux+0x16>
 800019c:	4b04      	ldr	r3, [pc, #16]	; (80001b0 <__do_global_dtors_aux+0x1c>)
 800019e:	b113      	cbz	r3, 80001a6 <__do_global_dtors_aux+0x12>
 80001a0:	4804      	ldr	r0, [pc, #16]	; (80001b4 <__do_global_dtors_aux+0x20>)
 80001a2:	f3af 8000 	nop.w
 80001a6:	2301      	movs	r3, #1
 80001a8:	7023      	strb	r3, [r4, #0]
 80001aa:	bd10      	pop	{r4, pc}
 80001ac:	20000010 	.word	0x20000010
 80001b0:	00000000 	.word	0x00000000
 80001b4:	0800215c 	.word	0x0800215c

080001b8 <frame_dummy>:
 80001b8:	b508      	push	{r3, lr}
 80001ba:	4b03      	ldr	r3, [pc, #12]	; (80001c8 <frame_dummy+0x10>)
 80001bc:	b11b      	cbz	r3, 80001c6 <frame_dummy+0xe>
 80001be:	4903      	ldr	r1, [pc, #12]	; (80001cc <frame_dummy+0x14>)
 80001c0:	4803      	ldr	r0, [pc, #12]	; (80001d0 <frame_dummy+0x18>)
 80001c2:	f3af 8000 	nop.w
 80001c6:	bd08      	pop	{r3, pc}
 80001c8:	00000000 	.word	0x00000000
 80001cc:	20000014 	.word	0x20000014
 80001d0:	0800215c 	.word	0x0800215c

080001d4 <__NVIC_EnableIRQ>:
  \details Enables a device specific interrupt in the NVIC interrupt controller.
  \param [in]      IRQn  Device specific interrupt number.
  \note    IRQn must not be negative.
 */
__STATIC_INLINE void __NVIC_EnableIRQ(IRQn_Type IRQn)
{
 80001d4:	b480      	push	{r7}
 80001d6:	b083      	sub	sp, #12
 80001d8:	af00      	add	r7, sp, #0
 80001da:	4603      	mov	r3, r0
 80001dc:	71fb      	strb	r3, [r7, #7]
  if ((int32_t)(IRQn) >= 0)
 80001de:	f997 3007 	ldrsb.w	r3, [r7, #7]
 80001e2:	2b00      	cmp	r3, #0
 80001e4:	db0b      	blt.n	80001fe <__NVIC_EnableIRQ+0x2a>
  {
    NVIC->ISER[(((uint32_t)IRQn) >> 5UL)] = (uint32_t)(1UL << (((uint32_t)IRQn) & 0x1FUL));
 80001e6:	79fb      	ldrb	r3, [r7, #7]
 80001e8:	f003 021f 	and.w	r2, r3, #31
 80001ec:	4907      	ldr	r1, [pc, #28]	; (800020c <__NVIC_EnableIRQ+0x38>)
 80001ee:	f997 3007 	ldrsb.w	r3, [r7, #7]
 80001f2:	095b      	lsrs	r3, r3, #5
 80001f4:	2001      	movs	r0, #1
 80001f6:	fa00 f202 	lsl.w	r2, r0, r2
 80001fa:	f841 2023 	str.w	r2, [r1, r3, lsl #2]
  }
}
 80001fe:	bf00      	nop
 8000200:	370c      	adds	r7, #12
 8000202:	46bd      	mov	sp, r7
 8000204:	f85d 7b04 	ldr.w	r7, [sp], #4
 8000208:	4770      	bx	lr
 800020a:	bf00      	nop
 800020c:	e000e100 	.word	0xe000e100

08000210 <__NVIC_SetPriority>:
  \param [in]      IRQn  Interrupt number.
  \param [in]  priority  Priority to set.
  \note    The priority cannot be set for every processor exception.
 */
__STATIC_INLINE void __NVIC_SetPriority(IRQn_Type IRQn, uint32_t priority)
{
 8000210:	b480      	push	{r7}
 8000212:	b083      	sub	sp, #12
 8000214:	af00      	add	r7, sp, #0
 8000216:	4603      	mov	r3, r0
 8000218:	6039      	str	r1, [r7, #0]
 800021a:	71fb      	strb	r3, [r7, #7]
  if ((int32_t)(IRQn) >= 0)
 800021c:	f997 3007 	ldrsb.w	r3, [r7, #7]
 8000220:	2b00      	cmp	r3, #0
 8000222:	db0a      	blt.n	800023a <__NVIC_SetPriority+0x2a>
  {
    NVIC->IP[((uint32_t)IRQn)]               = (uint8_t)((priority << (8U - __NVIC_PRIO_BITS)) & (uint32_t)0xFFUL);
 8000224:	683b      	ldr	r3, [r7, #0]
 8000226:	b2da      	uxtb	r2, r3
 8000228:	490c      	ldr	r1, [pc, #48]	; (800025c <__NVIC_SetPriority+0x4c>)
 800022a:	f997 3007 	ldrsb.w	r3, [r7, #7]
 800022e:	0112      	lsls	r2, r2, #4
 8000230:	b2d2      	uxtb	r2, r2
 8000232:	440b      	add	r3, r1
 8000234:	f883 2300 	strb.w	r2, [r3, #768]	; 0x300
  }
  else
  {
    SCB->SHP[(((uint32_t)IRQn) & 0xFUL)-4UL] = (uint8_t)((priority << (8U - __NVIC_PRIO_BITS)) & (uint32_t)0xFFUL);
  }
}
 8000238:	e00a      	b.n	8000250 <__NVIC_SetPriority+0x40>
    SCB->SHP[(((uint32_t)IRQn) & 0xFUL)-4UL] = (uint8_t)((priority << (8U - __NVIC_PRIO_BITS)) & (uint32_t)0xFFUL);
 800023a:	683b      	ldr	r3, [r7, #0]
 800023c:	b2da      	uxtb	r2, r3
 800023e:	4908      	ldr	r1, [pc, #32]	; (8000260 <__NVIC_SetPriority+0x50>)
 8000240:	79fb      	ldrb	r3, [r7, #7]
 8000242:	f003 030f 	and.w	r3, r3, #15
 8000246:	3b04      	subs	r3, #4
 8000248:	0112      	lsls	r2, r2, #4
 800024a:	b2d2      	uxtb	r2, r2
 800024c:	440b      	add	r3, r1
 800024e:	761a      	strb	r2, [r3, #24]
}
 8000250:	bf00      	nop
 8000252:	370c      	adds	r7, #12
 8000254:	46bd      	mov	sp, r7
 8000256:	f85d 7b04 	ldr.w	r7, [sp], #4
 800025a:	4770      	bx	lr
 800025c:	e000e100 	.word	0xe000e100
 8000260:	e000ed00 	.word	0xe000ed00

08000264 <main>:

/**
 * @brief  The application entry point.
 * @retval int
 */
int main(void) {
 8000264:	b580      	push	{r7, lr}
 8000266:	af00      	add	r7, sp, #0
	/* USER CODE END 1 */

	/* MCU Configuration--------------------------------------------------------*/

	/* Reset of all peripherals, Initializes the Flash interface and the Systick. */
	HAL_Init();
 8000268:	f000 fa3c 	bl	80006e4 <HAL_Init>

	/* USER CODE BEGIN Init */
	Timer2_Init();
 800026c:	f000 f878 	bl	8000360 <Timer2_Init>
	Channel3_Init();
 8000270:	f000 f8aa 	bl	80003c8 <Channel3_Init>
	Servo_PWM_Config();
 8000274:	f000 f8ee 	bl	8000454 <Servo_PWM_Config>
	/* USER CODE END Init */

	/* Configure the system clock */
	SystemClock_Config();
 8000278:	f000 f803 	bl	8000282 <SystemClock_Config>
	/* USER CODE BEGIN SysInit */

	/* USER CODE END SysInit */

	/* Initialize all configured peripherals */
	MX_GPIO_Init();
 800027c:	f000 f844 	bl	8000308 <MX_GPIO_Init>

	/* USER CODE END 2 */

	/* Infinite loop */
	/* USER CODE BEGIN WHILE */
	while (1) {
 8000280:	e7fe      	b.n	8000280 <main+0x1c>

08000282 <SystemClock_Config>:

/**
 * @brief System Clock Configuration
 * @retval None
 */
void SystemClock_Config(void) {
 8000282:	b580      	push	{r7, lr}
 8000284:	b090      	sub	sp, #64	; 0x40
 8000286:	af00      	add	r7, sp, #0
	RCC_OscInitTypeDef RCC_OscInitStruct = { 0 };
 8000288:	f107 0318 	add.w	r3, r7, #24
 800028c:	2228      	movs	r2, #40	; 0x28
 800028e:	2100      	movs	r1, #0
 8000290:	4618      	mov	r0, r3
 8000292:	f001 ff37 	bl	8002104 <memset>
	RCC_ClkInitTypeDef RCC_ClkInitStruct = { 0 };
 8000296:	1d3b      	adds	r3, r7, #4
 8000298:	2200      	movs	r2, #0
 800029a:	601a      	str	r2, [r3, #0]
 800029c:	605a      	str	r2, [r3, #4]
 800029e:	609a      	str	r2, [r3, #8]
 80002a0:	60da      	str	r2, [r3, #12]
 80002a2:	611a      	str	r2, [r3, #16]

	/** Initializes the RCC Oscillators according to the specified parameters
	 * in the RCC_OscInitTypeDef structure.
	 */
	RCC_OscInitStruct.OscillatorType = RCC_OSCILLATORTYPE_HSI;
 80002a4:	2302      	movs	r3, #2
 80002a6:	61bb      	str	r3, [r7, #24]
	RCC_OscInitStruct.HSIState = RCC_HSI_ON;
 80002a8:	2301      	movs	r3, #1
 80002aa:	627b      	str	r3, [r7, #36]	; 0x24
	RCC_OscInitStruct.HSICalibrationValue = RCC_HSICALIBRATION_DEFAULT;
 80002ac:	2310      	movs	r3, #16
 80002ae:	62bb      	str	r3, [r7, #40]	; 0x28
	RCC_OscInitStruct.PLL.PLLState = RCC_PLL_ON;
 80002b0:	2302      	movs	r3, #2
 80002b2:	633b      	str	r3, [r7, #48]	; 0x30
	RCC_OscInitStruct.PLL.PLLSource = RCC_PLLSOURCE_HSI;
 80002b4:	f44f 4300 	mov.w	r3, #32768	; 0x8000
 80002b8:	637b      	str	r3, [r7, #52]	; 0x34
	RCC_OscInitStruct.PLL.PLLMUL = RCC_PLL_MUL2;
 80002ba:	2300      	movs	r3, #0
 80002bc:	63bb      	str	r3, [r7, #56]	; 0x38
	RCC_OscInitStruct.PLL.PREDIV = RCC_PREDIV_DIV1;
 80002be:	2300      	movs	r3, #0
 80002c0:	63fb      	str	r3, [r7, #60]	; 0x3c
	if (HAL_RCC_OscConfig(&RCC_OscInitStruct) != HAL_OK) {
 80002c2:	f107 0318 	add.w	r3, r7, #24
 80002c6:	4618      	mov	r0, r3
 80002c8:	f000 fce2 	bl	8000c90 <HAL_RCC_OscConfig>
 80002cc:	4603      	mov	r3, r0
 80002ce:	2b00      	cmp	r3, #0
 80002d0:	d001      	beq.n	80002d6 <SystemClock_Config+0x54>
		Error_Handler();
 80002d2:	f000 f977 	bl	80005c4 <Error_Handler>
	}

	/** Initializes the CPU, AHB and APB buses clocks
	 */
	RCC_ClkInitStruct.ClockType = RCC_CLOCKTYPE_HCLK | RCC_CLOCKTYPE_SYSCLK
 80002d6:	230f      	movs	r3, #15
 80002d8:	607b      	str	r3, [r7, #4]
			| RCC_CLOCKTYPE_PCLK1 | RCC_CLOCKTYPE_PCLK2;
	RCC_ClkInitStruct.SYSCLKSource = RCC_SYSCLKSOURCE_PLLCLK;
 80002da:	2302      	movs	r3, #2
 80002dc:	60bb      	str	r3, [r7, #8]
	RCC_ClkInitStruct.AHBCLKDivider = RCC_SYSCLK_DIV1;
 80002de:	2300      	movs	r3, #0
 80002e0:	60fb      	str	r3, [r7, #12]
	RCC_ClkInitStruct.APB1CLKDivider = RCC_HCLK_DIV1;
 80002e2:	2300      	movs	r3, #0
 80002e4:	613b      	str	r3, [r7, #16]
	RCC_ClkInitStruct.APB2CLKDivider = RCC_HCLK_DIV1;
 80002e6:	2300      	movs	r3, #0
 80002e8:	617b      	str	r3, [r7, #20]

	if (HAL_RCC_ClockConfig(&RCC_ClkInitStruct, FLASH_LATENCY_0) != HAL_OK) {
 80002ea:	1d3b      	adds	r3, r7, #4
 80002ec:	2100      	movs	r1, #0
 80002ee:	4618      	mov	r0, r3
 80002f0:	f001 fd22 	bl	8001d38 <HAL_RCC_ClockConfig>
 80002f4:	4603      	mov	r3, r0
 80002f6:	2b00      	cmp	r3, #0
 80002f8:	d001      	beq.n	80002fe <SystemClock_Config+0x7c>
		Error_Handler();
 80002fa:	f000 f963 	bl	80005c4 <Error_Handler>
	}
}
 80002fe:	bf00      	nop
 8000300:	3740      	adds	r7, #64	; 0x40
 8000302:	46bd      	mov	sp, r7
 8000304:	bd80      	pop	{r7, pc}
	...

08000308 <MX_GPIO_Init>:
/**
 * @brief GPIO Initialization Function
 * @param None
 * @retval None
 */
static void MX_GPIO_Init(void) {
 8000308:	b580      	push	{r7, lr}
 800030a:	b086      	sub	sp, #24
 800030c:	af00      	add	r7, sp, #0
	GPIO_InitTypeDef GPIO_InitStruct = { 0 };
 800030e:	1d3b      	adds	r3, r7, #4
 8000310:	2200      	movs	r2, #0
 8000312:	601a      	str	r2, [r3, #0]
 8000314:	605a      	str	r2, [r3, #4]
 8000316:	609a      	str	r2, [r3, #8]
 8000318:	60da      	str	r2, [r3, #12]
 800031a:	611a      	str	r2, [r3, #16]
	/* USER CODE BEGIN MX_GPIO_Init_1 */
	/* USER CODE END MX_GPIO_Init_1 */

	/* GPIO Ports Clock Enable */
	__HAL_RCC_GPIOA_CLK_ENABLE();
 800031c:	4b0f      	ldr	r3, [pc, #60]	; (800035c <MX_GPIO_Init+0x54>)
 800031e:	695b      	ldr	r3, [r3, #20]
 8000320:	4a0e      	ldr	r2, [pc, #56]	; (800035c <MX_GPIO_Init+0x54>)
 8000322:	f443 3300 	orr.w	r3, r3, #131072	; 0x20000
 8000326:	6153      	str	r3, [r2, #20]
 8000328:	4b0c      	ldr	r3, [pc, #48]	; (800035c <MX_GPIO_Init+0x54>)
 800032a:	695b      	ldr	r3, [r3, #20]
 800032c:	f403 3300 	and.w	r3, r3, #131072	; 0x20000
 8000330:	603b      	str	r3, [r7, #0]
 8000332:	683b      	ldr	r3, [r7, #0]

	/*Configure GPIO pins : PA2 PA3 */
	GPIO_InitStruct.Pin = GPIO_PIN_2 | GPIO_PIN_3;
 8000334:	230c      	movs	r3, #12
 8000336:	607b      	str	r3, [r7, #4]
	GPIO_InitStruct.Mode = GPIO_MODE_AF_PP;
 8000338:	2302      	movs	r3, #2
 800033a:	60bb      	str	r3, [r7, #8]
	GPIO_InitStruct.Pull = GPIO_NOPULL;
 800033c:	2300      	movs	r3, #0
 800033e:	60fb      	str	r3, [r7, #12]
	GPIO_InitStruct.Speed = GPIO_SPEED_FREQ_HIGH;
 8000340:	2303      	movs	r3, #3
 8000342:	613b      	str	r3, [r7, #16]
	GPIO_InitStruct.Alternate = GPIO_AF7_USART2;
 8000344:	2307      	movs	r3, #7
 8000346:	617b      	str	r3, [r7, #20]
	HAL_GPIO_Init(GPIOA, &GPIO_InitStruct);
 8000348:	1d3b      	adds	r3, r7, #4
 800034a:	4619      	mov	r1, r3
 800034c:	f04f 4090 	mov.w	r0, #1207959552	; 0x48000000
 8000350:	f000 fb14 	bl	800097c <HAL_GPIO_Init>

	/* USER CODE BEGIN MX_GPIO_Init_2 */
	/* USER CODE END MX_GPIO_Init_2 */
}
 8000354:	bf00      	nop
 8000356:	3718      	adds	r7, #24
 8000358:	46bd      	mov	sp, r7
 800035a:	bd80      	pop	{r7, pc}
 800035c:	40021000 	.word	0x40021000

08000360 <Timer2_Init>:

/* USER CODE BEGIN 4 */
void Timer2_Init(void) {
 8000360:	b580      	push	{r7, lr}
 8000362:	af00      	add	r7, sp, #0
	//Activate Timer 2 in APB register.
	RCC->APB1ENR |= RCC_APB1ENR_TIM2EN;
 8000364:	4b17      	ldr	r3, [pc, #92]	; (80003c4 <Timer2_Init+0x64>)
 8000366:	69db      	ldr	r3, [r3, #28]
 8000368:	4a16      	ldr	r2, [pc, #88]	; (80003c4 <Timer2_Init+0x64>)
 800036a:	f043 0301 	orr.w	r3, r3, #1
 800036e:	61d3      	str	r3, [r2, #28]

	//disable the timer.
	TIM2->CR1 &= ~TIM_CR1_CEN;
 8000370:	f04f 4380 	mov.w	r3, #1073741824	; 0x40000000
 8000374:	681b      	ldr	r3, [r3, #0]
 8000376:	f04f 4280 	mov.w	r2, #1073741824	; 0x40000000
 800037a:	f023 0301 	bic.w	r3, r3, #1
 800037e:	6013      	str	r3, [r2, #0]

	//prescale the system using 16MHz frequency.
	TIM2->PSC = 16 - 1;
 8000380:	f04f 4380 	mov.w	r3, #1073741824	; 0x40000000
 8000384:	220f      	movs	r2, #15
 8000386:	629a      	str	r2, [r3, #40]	; 0x28
	//set the PWM period in 20 ms.
	TIM2->ARR = 20000 - 1;
 8000388:	f04f 4380 	mov.w	r3, #1073741824	; 0x40000000
 800038c:	f644 621f 	movw	r2, #19999	; 0x4e1f
 8000390:	62da      	str	r2, [r3, #44]	; 0x2c

	//configure NVIC for TIM2 interrupt.
	NVIC_EnableIRQ(TIM2_IRQn);
 8000392:	201c      	movs	r0, #28
 8000394:	f7ff ff1e 	bl	80001d4 <__NVIC_EnableIRQ>
	NVIC_SetPriority(TIM2_IRQn, 0);
 8000398:	2100      	movs	r1, #0
 800039a:	201c      	movs	r0, #28
 800039c:	f7ff ff38 	bl	8000210 <__NVIC_SetPriority>

	//reset counter of Timer 2 to 0.
	TIM2->CNT &= ~TIM_CNT_CNT;
 80003a0:	f04f 4380 	mov.w	r3, #1073741824	; 0x40000000
 80003a4:	6a5b      	ldr	r3, [r3, #36]	; 0x24
 80003a6:	f04f 4380 	mov.w	r3, #1073741824	; 0x40000000
 80003aa:	2200      	movs	r2, #0
 80003ac:	625a      	str	r2, [r3, #36]	; 0x24

	//enable the timer.
	TIM2->CR1 |= TIM_CR1_CEN;
 80003ae:	f04f 4380 	mov.w	r3, #1073741824	; 0x40000000
 80003b2:	681b      	ldr	r3, [r3, #0]
 80003b4:	f04f 4280 	mov.w	r2, #1073741824	; 0x40000000
 80003b8:	f043 0301 	orr.w	r3, r3, #1
 80003bc:	6013      	str	r3, [r2, #0]
}
 80003be:	bf00      	nop
 80003c0:	bd80      	pop	{r7, pc}
 80003c2:	bf00      	nop
 80003c4:	40021000 	.word	0x40021000

080003c8 <Channel3_Init>:

void Channel3_Init(void) {
 80003c8:	b480      	push	{r7}
 80003ca:	af00      	add	r7, sp, #0
	//set enable the compare register of channel 3 in timer 2.
	TIM2->CCER |= TIM_CCER_CC3E;
 80003cc:	f04f 4380 	mov.w	r3, #1073741824	; 0x40000000
 80003d0:	6a1b      	ldr	r3, [r3, #32]
 80003d2:	f04f 4280 	mov.w	r2, #1073741824	; 0x40000000
 80003d6:	f443 7380 	orr.w	r3, r3, #256	; 0x100
 80003da:	6213      	str	r3, [r2, #32]

	//clean bits the channel 3 in timer 2 register.
	TIM2->CCMR2 &= ~TIM_CCMR2_CC3S;
 80003dc:	f04f 4380 	mov.w	r3, #1073741824	; 0x40000000
 80003e0:	69db      	ldr	r3, [r3, #28]
 80003e2:	f04f 4280 	mov.w	r2, #1073741824	; 0x40000000
 80003e6:	f023 0303 	bic.w	r3, r3, #3
 80003ea:	61d3      	str	r3, [r2, #28]
	TIM2->CCMR2 &= ~TIM_CCMR2_OC3M;
 80003ec:	f04f 4380 	mov.w	r3, #1073741824	; 0x40000000
 80003f0:	69db      	ldr	r3, [r3, #28]
 80003f2:	f04f 4280 	mov.w	r2, #1073741824	; 0x40000000
 80003f6:	f423 3380 	bic.w	r3, r3, #65536	; 0x10000
 80003fa:	f023 0370 	bic.w	r3, r3, #112	; 0x70
 80003fe:	61d3      	str	r3, [r2, #28]
	TIM2->CCMR2 &= ~TIM_CCMR2_OC3PE;
 8000400:	f04f 4380 	mov.w	r3, #1073741824	; 0x40000000
 8000404:	69db      	ldr	r3, [r3, #28]
 8000406:	f04f 4280 	mov.w	r2, #1073741824	; 0x40000000
 800040a:	f023 0308 	bic.w	r3, r3, #8
 800040e:	61d3      	str	r3, [r2, #28]

	//set interrupt enable register in channel 3.
	TIM2->DIER |= TIM_DIER_CC3IE;
 8000410:	f04f 4380 	mov.w	r3, #1073741824	; 0x40000000
 8000414:	68db      	ldr	r3, [r3, #12]
 8000416:	f04f 4280 	mov.w	r2, #1073741824	; 0x40000000
 800041a:	f043 0308 	orr.w	r3, r3, #8
 800041e:	60d3      	str	r3, [r2, #12]

	//set the PWM in channel 3 of timer 2 as the output compare mode.
	TIM2->CCMR2 |= (TIM_CCMR2_OC3M_1 | TIM_CCMR2_OC3M_2);
 8000420:	f04f 4380 	mov.w	r3, #1073741824	; 0x40000000
 8000424:	69db      	ldr	r3, [r3, #28]
 8000426:	f04f 4280 	mov.w	r2, #1073741824	; 0x40000000
 800042a:	f043 0360 	orr.w	r3, r3, #96	; 0x60
 800042e:	61d3      	str	r3, [r2, #28]
	//enable the preload.
	TIM2->CCMR2 |= TIM_CCMR2_OC3PE;
 8000430:	f04f 4380 	mov.w	r3, #1073741824	; 0x40000000
 8000434:	69db      	ldr	r3, [r3, #28]
 8000436:	f04f 4280 	mov.w	r2, #1073741824	; 0x40000000
 800043a:	f043 0308 	orr.w	r3, r3, #8
 800043e:	61d3      	str	r3, [r2, #28]

	//set output state to 0 in setup.
	servo_state = 0;
 8000440:	4b03      	ldr	r3, [pc, #12]	; (8000450 <Channel3_Init+0x88>)
 8000442:	2200      	movs	r2, #0
 8000444:	701a      	strb	r2, [r3, #0]
}
 8000446:	bf00      	nop
 8000448:	46bd      	mov	sp, r7
 800044a:	f85d 7b04 	ldr.w	r7, [sp], #4
 800044e:	4770      	bx	lr
 8000450:	2000002c 	.word	0x2000002c

08000454 <Servo_PWM_Config>:

void Servo_PWM_Config() {
 8000454:	b480      	push	{r7}
 8000456:	af00      	add	r7, sp, #0
	//enable GPIOA in RCC register.
	RCC->AHBENR |= RCC_AHBENR_GPIOAEN;
 8000458:	4b25      	ldr	r3, [pc, #148]	; (80004f0 <Servo_PWM_Config+0x9c>)
 800045a:	695b      	ldr	r3, [r3, #20]
 800045c:	4a24      	ldr	r2, [pc, #144]	; (80004f0 <Servo_PWM_Config+0x9c>)
 800045e:	f443 3300 	orr.w	r3, r3, #131072	; 0x20000
 8000462:	6153      	str	r3, [r2, #20]

	//resets the Servo's pin MODE. (PA9)
	GPIOA->MODER &= ~GPIO_MODER_MODER9;
 8000464:	f04f 4390 	mov.w	r3, #1207959552	; 0x48000000
 8000468:	681b      	ldr	r3, [r3, #0]
 800046a:	f04f 4290 	mov.w	r2, #1207959552	; 0x48000000
 800046e:	f423 2340 	bic.w	r3, r3, #786432	; 0xc0000
 8000472:	6013      	str	r3, [r2, #0]
	//resets the Servo's pin OTYPE to 0 as push-pull.
	GPIOA->OTYPER &= ~GPIO_OTYPER_OT_9;
 8000474:	f04f 4390 	mov.w	r3, #1207959552	; 0x48000000
 8000478:	685b      	ldr	r3, [r3, #4]
 800047a:	f04f 4290 	mov.w	r2, #1207959552	; 0x48000000
 800047e:	f423 7300 	bic.w	r3, r3, #512	; 0x200
 8000482:	6053      	str	r3, [r2, #4]
	//resets the Servo's pin SPEED.
	GPIOA->OSPEEDR &= ~GPIO_OSPEEDER_OSPEEDR9;
 8000484:	f04f 4390 	mov.w	r3, #1207959552	; 0x48000000
 8000488:	689b      	ldr	r3, [r3, #8]
 800048a:	f04f 4290 	mov.w	r2, #1207959552	; 0x48000000
 800048e:	f423 2340 	bic.w	r3, r3, #786432	; 0xc0000
 8000492:	6093      	str	r3, [r2, #8]

	//sets the Servo's pin MODE to 0b10 as an alternated output.
	GPIOA->MODER |= GPIO_MODER_MODER9_1;
 8000494:	f04f 4390 	mov.w	r3, #1207959552	; 0x48000000
 8000498:	681b      	ldr	r3, [r3, #0]
 800049a:	f04f 4290 	mov.w	r2, #1207959552	; 0x48000000
 800049e:	f443 2300 	orr.w	r3, r3, #524288	; 0x80000
 80004a2:	6013      	str	r3, [r2, #0]
	//sets the Servo's pin SPEED to medium.
	GPIOA->OSPEEDR |= GPIO_OSPEEDER_OSPEEDR9_0;
 80004a4:	f04f 4390 	mov.w	r3, #1207959552	; 0x48000000
 80004a8:	689b      	ldr	r3, [r3, #8]
 80004aa:	f04f 4290 	mov.w	r2, #1207959552	; 0x48000000
 80004ae:	f443 2380 	orr.w	r3, r3, #262144	; 0x40000
 80004b2:	6093      	str	r3, [r2, #8]
	//resets the Servo's PUPD register.
	GPIOA->PUPDR &= ~GPIO_PUPDR_PUPDR9;
 80004b4:	f04f 4390 	mov.w	r3, #1207959552	; 0x48000000
 80004b8:	68db      	ldr	r3, [r3, #12]
 80004ba:	f04f 4290 	mov.w	r2, #1207959552	; 0x48000000
 80004be:	f423 2340 	bic.w	r3, r3, #786432	; 0xc0000
 80004c2:	60d3      	str	r3, [r2, #12]

	//resets the high alternate function for pin PA9.
	GPIOA->AFR[1] &= ~GPIO_AFRH_AFRH1;
 80004c4:	f04f 4390 	mov.w	r3, #1207959552	; 0x48000000
 80004c8:	6a5b      	ldr	r3, [r3, #36]	; 0x24
 80004ca:	f04f 4290 	mov.w	r2, #1207959552	; 0x48000000
 80004ce:	f023 03f0 	bic.w	r3, r3, #240	; 0xf0
 80004d2:	6253      	str	r3, [r2, #36]	; 0x24
	//activate alternate function 10 to use timer 2 and channel 3 for PA9 in AFRH9.
	GPIOA->AFR[1] |= (0b1010 << GPIO_AFRH_AFRH1_Pos);
 80004d4:	f04f 4390 	mov.w	r3, #1207959552	; 0x48000000
 80004d8:	6a5b      	ldr	r3, [r3, #36]	; 0x24
 80004da:	f04f 4290 	mov.w	r2, #1207959552	; 0x48000000
 80004de:	f043 03a0 	orr.w	r3, r3, #160	; 0xa0
 80004e2:	6253      	str	r3, [r2, #36]	; 0x24
}
 80004e4:	bf00      	nop
 80004e6:	46bd      	mov	sp, r7
 80004e8:	f85d 7b04 	ldr.w	r7, [sp], #4
 80004ec:	4770      	bx	lr
 80004ee:	bf00      	nop
 80004f0:	40021000 	.word	0x40021000

080004f4 <TIM2_IRQHandler>:

void TIM2_IRQHandler(void) {
 80004f4:	b580      	push	{r7, lr}
 80004f6:	af00      	add	r7, sp, #0
	//read interrupt flag.
	if (TIM2->SR & TIM_SR_CC3IF) {
 80004f8:	f04f 4380 	mov.w	r3, #1073741824	; 0x40000000
 80004fc:	691b      	ldr	r3, [r3, #16]
 80004fe:	f003 0308 	and.w	r3, r3, #8
 8000502:	2b00      	cmp	r3, #0
 8000504:	d03c      	beq.n	8000580 <TIM2_IRQHandler+0x8c>
		//reset the flag.
		TIM2->SR &= ~TIM_SR_CC3IF;
 8000506:	f04f 4380 	mov.w	r3, #1073741824	; 0x40000000
 800050a:	691b      	ldr	r3, [r3, #16]
 800050c:	f04f 4280 	mov.w	r2, #1073741824	; 0x40000000
 8000510:	f023 0308 	bic.w	r3, r3, #8
 8000514:	6113      	str	r3, [r2, #16]

		//using static value for timer tick.
		static uint32_t tick = 0;
		tick++;
 8000516:	4b1b      	ldr	r3, [pc, #108]	; (8000584 <TIM2_IRQHandler+0x90>)
 8000518:	681b      	ldr	r3, [r3, #0]
 800051a:	3301      	adds	r3, #1
 800051c:	4a19      	ldr	r2, [pc, #100]	; (8000584 <TIM2_IRQHandler+0x90>)
 800051e:	6013      	str	r3, [r2, #0]
		//20 ms * 50 = 1000 ms (change state every 1 sec).
		if (tick >= 50) {
 8000520:	4b18      	ldr	r3, [pc, #96]	; (8000584 <TIM2_IRQHandler+0x90>)
 8000522:	681b      	ldr	r3, [r3, #0]
 8000524:	2b31      	cmp	r3, #49	; 0x31
 8000526:	d92b      	bls.n	8000580 <TIM2_IRQHandler+0x8c>
			switch (servo_state) {
 8000528:	4b17      	ldr	r3, [pc, #92]	; (8000588 <TIM2_IRQHandler+0x94>)
 800052a:	781b      	ldrb	r3, [r3, #0]
 800052c:	b2db      	uxtb	r3, r3
 800052e:	2b02      	cmp	r3, #2
 8000530:	d015      	beq.n	800055e <TIM2_IRQHandler+0x6a>
 8000532:	2b02      	cmp	r3, #2
 8000534:	dc1a      	bgt.n	800056c <TIM2_IRQHandler+0x78>
 8000536:	2b00      	cmp	r3, #0
 8000538:	d002      	beq.n	8000540 <TIM2_IRQHandler+0x4c>
 800053a:	2b01      	cmp	r3, #1
 800053c:	d008      	beq.n	8000550 <TIM2_IRQHandler+0x5c>
			case 2:
				servo_angle = RIGHT_ANGLE;
				servo_state = 0;
				break;
			default:
				break;
 800053e:	e015      	b.n	800056c <TIM2_IRQHandler+0x78>
				servo_angle = LEFT_ANGLE;
 8000540:	4b12      	ldr	r3, [pc, #72]	; (800058c <TIM2_IRQHandler+0x98>)
 8000542:	f64f 72a6 	movw	r2, #65446	; 0xffa6
 8000546:	801a      	strh	r2, [r3, #0]
				servo_state = 1;
 8000548:	4b0f      	ldr	r3, [pc, #60]	; (8000588 <TIM2_IRQHandler+0x94>)
 800054a:	2201      	movs	r2, #1
 800054c:	701a      	strb	r2, [r3, #0]
				break;
 800054e:	e00e      	b.n	800056e <TIM2_IRQHandler+0x7a>
				servo_angle = MID_ANGLE;
 8000550:	4b0e      	ldr	r3, [pc, #56]	; (800058c <TIM2_IRQHandler+0x98>)
 8000552:	2200      	movs	r2, #0
 8000554:	801a      	strh	r2, [r3, #0]
				servo_state = 2;
 8000556:	4b0c      	ldr	r3, [pc, #48]	; (8000588 <TIM2_IRQHandler+0x94>)
 8000558:	2202      	movs	r2, #2
 800055a:	701a      	strb	r2, [r3, #0]
				break;
 800055c:	e007      	b.n	800056e <TIM2_IRQHandler+0x7a>
				servo_angle = RIGHT_ANGLE;
 800055e:	4b0b      	ldr	r3, [pc, #44]	; (800058c <TIM2_IRQHandler+0x98>)
 8000560:	225a      	movs	r2, #90	; 0x5a
 8000562:	801a      	strh	r2, [r3, #0]
				servo_state = 0;
 8000564:	4b08      	ldr	r3, [pc, #32]	; (8000588 <TIM2_IRQHandler+0x94>)
 8000566:	2200      	movs	r2, #0
 8000568:	701a      	strb	r2, [r3, #0]
				break;
 800056a:	e000      	b.n	800056e <TIM2_IRQHandler+0x7a>
				break;
 800056c:	bf00      	nop
			}
			tick = 0;
 800056e:	4b05      	ldr	r3, [pc, #20]	; (8000584 <TIM2_IRQHandler+0x90>)
 8000570:	2200      	movs	r2, #0
 8000572:	601a      	str	r2, [r3, #0]
			//use brightness value.
			Set_Rotation_Level(servo_angle);
 8000574:	4b05      	ldr	r3, [pc, #20]	; (800058c <TIM2_IRQHandler+0x98>)
 8000576:	881b      	ldrh	r3, [r3, #0]
 8000578:	b21b      	sxth	r3, r3
 800057a:	4618      	mov	r0, r3
 800057c:	f000 f808 	bl	8000590 <Set_Rotation_Level>
		}
	}
}
 8000580:	bf00      	nop
 8000582:	bd80      	pop	{r7, pc}
 8000584:	20000030 	.word	0x20000030
 8000588:	2000002c 	.word	0x2000002c
 800058c:	20000000 	.word	0x20000000

08000590 <Set_Rotation_Level>:

void Set_Rotation_Level(int16_t angle) {
 8000590:	b480      	push	{r7}
 8000592:	b085      	sub	sp, #20
 8000594:	af00      	add	r7, sp, #0
 8000596:	4603      	mov	r3, r0
 8000598:	80fb      	strh	r3, [r7, #6]
	int16_t pwm_width = 1500 + (angle * 10);
 800059a:	88fb      	ldrh	r3, [r7, #6]
 800059c:	461a      	mov	r2, r3
 800059e:	0092      	lsls	r2, r2, #2
 80005a0:	4413      	add	r3, r2
 80005a2:	005b      	lsls	r3, r3, #1
 80005a4:	b29b      	uxth	r3, r3
 80005a6:	f203 53dc 	addw	r3, r3, #1500	; 0x5dc
 80005aa:	b29b      	uxth	r3, r3
 80005ac:	81fb      	strh	r3, [r7, #14]
	TIM2->CCR3 = pwm_width;
 80005ae:	f04f 4280 	mov.w	r2, #1073741824	; 0x40000000
 80005b2:	f9b7 300e 	ldrsh.w	r3, [r7, #14]
 80005b6:	63d3      	str	r3, [r2, #60]	; 0x3c
}
 80005b8:	bf00      	nop
 80005ba:	3714      	adds	r7, #20
 80005bc:	46bd      	mov	sp, r7
 80005be:	f85d 7b04 	ldr.w	r7, [sp], #4
 80005c2:	4770      	bx	lr

080005c4 <Error_Handler>:

/**
 * @brief  This function is executed in case of error occurrence.
 * @retval None
 */
void Error_Handler(void) {
 80005c4:	b480      	push	{r7}
 80005c6:	af00      	add	r7, sp, #0
  \details Disables IRQ interrupts by setting the I-bit in the CPSR.
           Can only be executed in Privileged modes.
 */
__STATIC_FORCEINLINE void __disable_irq(void)
{
  __ASM volatile ("cpsid i" : : : "memory");
 80005c8:	b672      	cpsid	i
}
 80005ca:	bf00      	nop
	/* USER CODE BEGIN Error_Handler_Debug */
	/* User can add his own implementation to report the HAL error return state */
	__disable_irq();
	while (1) {
 80005cc:	e7fe      	b.n	80005cc <Error_Handler+0x8>
	...

080005d0 <HAL_MspInit>:
/* USER CODE END 0 */
/**
  * Initializes the Global MSP.
  */
void HAL_MspInit(void)
{
 80005d0:	b480      	push	{r7}
 80005d2:	b083      	sub	sp, #12
 80005d4:	af00      	add	r7, sp, #0
  /* USER CODE BEGIN MspInit 0 */

  /* USER CODE END MspInit 0 */

  __HAL_RCC_SYSCFG_CLK_ENABLE();
 80005d6:	4b0f      	ldr	r3, [pc, #60]	; (8000614 <HAL_MspInit+0x44>)
 80005d8:	699b      	ldr	r3, [r3, #24]
 80005da:	4a0e      	ldr	r2, [pc, #56]	; (8000614 <HAL_MspInit+0x44>)
 80005dc:	f043 0301 	orr.w	r3, r3, #1
 80005e0:	6193      	str	r3, [r2, #24]
 80005e2:	4b0c      	ldr	r3, [pc, #48]	; (8000614 <HAL_MspInit+0x44>)
 80005e4:	699b      	ldr	r3, [r3, #24]
 80005e6:	f003 0301 	and.w	r3, r3, #1
 80005ea:	607b      	str	r3, [r7, #4]
 80005ec:	687b      	ldr	r3, [r7, #4]
  __HAL_RCC_PWR_CLK_ENABLE();
 80005ee:	4b09      	ldr	r3, [pc, #36]	; (8000614 <HAL_MspInit+0x44>)
 80005f0:	69db      	ldr	r3, [r3, #28]
 80005f2:	4a08      	ldr	r2, [pc, #32]	; (8000614 <HAL_MspInit+0x44>)
 80005f4:	f043 5380 	orr.w	r3, r3, #268435456	; 0x10000000
 80005f8:	61d3      	str	r3, [r2, #28]
 80005fa:	4b06      	ldr	r3, [pc, #24]	; (8000614 <HAL_MspInit+0x44>)
 80005fc:	69db      	ldr	r3, [r3, #28]
 80005fe:	f003 5380 	and.w	r3, r3, #268435456	; 0x10000000
 8000602:	603b      	str	r3, [r7, #0]
 8000604:	683b      	ldr	r3, [r7, #0]
  /* System interrupt init*/

  /* USER CODE BEGIN MspInit 1 */

  /* USER CODE END MspInit 1 */
}
 8000606:	bf00      	nop
 8000608:	370c      	adds	r7, #12
 800060a:	46bd      	mov	sp, r7
 800060c:	f85d 7b04 	ldr.w	r7, [sp], #4
 8000610:	4770      	bx	lr
 8000612:	bf00      	nop
 8000614:	40021000 	.word	0x40021000

08000618 <NMI_Handler>:
/******************************************************************************/
/**
  * @brief This function handles Non maskable interrupt.
  */
void NMI_Handler(void)
{
 8000618:	b480      	push	{r7}
 800061a:	af00      	add	r7, sp, #0
  /* USER CODE BEGIN NonMaskableInt_IRQn 0 */

  /* USER CODE END NonMaskableInt_IRQn 0 */
  /* USER CODE BEGIN NonMaskableInt_IRQn 1 */
  while (1)
 800061c:	e7fe      	b.n	800061c <NMI_Handler+0x4>

0800061e <HardFault_Handler>:

/**
  * @brief This function handles Hard fault interrupt.
  */
void HardFault_Handler(void)
{
 800061e:	b480      	push	{r7}
 8000620:	af00      	add	r7, sp, #0
  /* USER CODE BEGIN HardFault_IRQn 0 */

  /* USER CODE END HardFault_IRQn 0 */
  while (1)
 8000622:	e7fe      	b.n	8000622 <HardFault_Handler+0x4>

08000624 <MemManage_Handler>:

/**
  * @brief This function handles Memory management fault.
  */
void MemManage_Handler(void)
{
 8000624:	b480      	push	{r7}
 8000626:	af00      	add	r7, sp, #0
  /* USER CODE BEGIN MemoryManagement_IRQn 0 */

  /* USER CODE END MemoryManagement_IRQn 0 */
  while (1)
 8000628:	e7fe      	b.n	8000628 <MemManage_Handler+0x4>

0800062a <BusFault_Handler>:

/**
  * @brief This function handles Pre-fetch fault, memory access fault.
  */
void BusFault_Handler(void)
{
 800062a:	b480      	push	{r7}
 800062c:	af00      	add	r7, sp, #0
  /* USER CODE BEGIN BusFault_IRQn 0 */

  /* USER CODE END BusFault_IRQn 0 */
  while (1)
 800062e:	e7fe      	b.n	800062e <BusFault_Handler+0x4>

08000630 <UsageFault_Handler>:

/**
  * @brief This function handles Undefined instruction or illegal state.
  */
void UsageFault_Handler(void)
{
 8000630:	b480      	push	{r7}
 8000632:	af00      	add	r7, sp, #0
  /* USER CODE BEGIN UsageFault_IRQn 0 */

  /* USER CODE END UsageFault_IRQn 0 */
  while (1)
 8000634:	e7fe      	b.n	8000634 <UsageFault_Handler+0x4>

08000636 <SVC_Handler>:

/**
  * @brief This function handles System service call via SWI instruction.
  */
void SVC_Handler(void)
{
 8000636:	b480      	push	{r7}
 8000638:	af00      	add	r7, sp, #0

  /* USER CODE END SVCall_IRQn 0 */
  /* USER CODE BEGIN SVCall_IRQn 1 */

  /* USER CODE END SVCall_IRQn 1 */
}
 800063a:	bf00      	nop
 800063c:	46bd      	mov	sp, r7
 800063e:	f85d 7b04 	ldr.w	r7, [sp], #4
 8000642:	4770      	bx	lr

08000644 <DebugMon_Handler>:

/**
  * @brief This function handles Debug monitor.
  */
void DebugMon_Handler(void)
{
 8000644:	b480      	push	{r7}
 8000646:	af00      	add	r7, sp, #0

  /* USER CODE END DebugMonitor_IRQn 0 */
  /* USER CODE BEGIN DebugMonitor_IRQn 1 */

  /* USER CODE END DebugMonitor_IRQn 1 */
}
 8000648:	bf00      	nop
 800064a:	46bd      	mov	sp, r7
 800064c:	f85d 7b04 	ldr.w	r7, [sp], #4
 8000650:	4770      	bx	lr

08000652 <PendSV_Handler>:

/**
  * @brief This function handles Pendable request for system service.
  */
void PendSV_Handler(void)
{
 8000652:	b480      	push	{r7}
 8000654:	af00      	add	r7, sp, #0

  /* USER CODE END PendSV_IRQn 0 */
  /* USER CODE BEGIN PendSV_IRQn 1 */

  /* USER CODE END PendSV_IRQn 1 */
}
 8000656:	bf00      	nop
 8000658:	46bd      	mov	sp, r7
 800065a:	f85d 7b04 	ldr.w	r7, [sp], #4
 800065e:	4770      	bx	lr

08000660 <SysTick_Handler>:

/**
  * @brief This function handles System tick timer.
  */
void SysTick_Handler(void)
{
 8000660:	b580      	push	{r7, lr}
 8000662:	af00      	add	r7, sp, #0
  /* USER CODE BEGIN SysTick_IRQn 0 */

  /* USER CODE END SysTick_IRQn 0 */
  HAL_IncTick();
 8000664:	f000 f884 	bl	8000770 <HAL_IncTick>
  /* USER CODE BEGIN SysTick_IRQn 1 */

  /* USER CODE END SysTick_IRQn 1 */
}
 8000668:	bf00      	nop
 800066a:	bd80      	pop	{r7, pc}

0800066c <SystemInit>:
  * @brief  Setup the microcontroller system
  * @param  None
  * @retval None
  */
void SystemInit(void)
{
 800066c:	b480      	push	{r7}
 800066e:	af00      	add	r7, sp, #0
/* FPU settings --------------------------------------------------------------*/
#if (__FPU_PRESENT == 1) && (__FPU_USED == 1)
  SCB->CPACR |= ((3UL << 10*2)|(3UL << 11*2));  /* set CP10 and CP11 Full Access */
 8000670:	4b06      	ldr	r3, [pc, #24]	; (800068c <SystemInit+0x20>)
 8000672:	f8d3 3088 	ldr.w	r3, [r3, #136]	; 0x88
 8000676:	4a05      	ldr	r2, [pc, #20]	; (800068c <SystemInit+0x20>)
 8000678:	f443 0370 	orr.w	r3, r3, #15728640	; 0xf00000
 800067c:	f8c2 3088 	str.w	r3, [r2, #136]	; 0x88

  /* Configure the Vector Table location -------------------------------------*/
#if defined(USER_VECT_TAB_ADDRESS)
  SCB->VTOR = VECT_TAB_BASE_ADDRESS | VECT_TAB_OFFSET; /* Vector Table Relocation in Internal SRAM */
#endif /* USER_VECT_TAB_ADDRESS */
}
 8000680:	bf00      	nop
 8000682:	46bd      	mov	sp, r7
 8000684:	f85d 7b04 	ldr.w	r7, [sp], #4
 8000688:	4770      	bx	lr
 800068a:	bf00      	nop
 800068c:	e000ed00 	.word	0xe000ed00

08000690 <Reset_Handler>:

    .section	.text.Reset_Handler
	.weak	Reset_Handler
	.type	Reset_Handler, %function
Reset_Handler:
  ldr   sp, =_estack    /* Atollic update: set stack pointer */
 8000690:	f8df d034 	ldr.w	sp, [pc, #52]	; 80006c8 <LoopForever+0x2>
  
/* Call the clock system initialization function.*/
    bl  SystemInit
 8000694:	f7ff ffea 	bl	800066c <SystemInit>

/* Copy the data segment initializers from flash to SRAM */
  ldr r0, =_sdata
 8000698:	480c      	ldr	r0, [pc, #48]	; (80006cc <LoopForever+0x6>)
  ldr r1, =_edata
 800069a:	490d      	ldr	r1, [pc, #52]	; (80006d0 <LoopForever+0xa>)
  ldr r2, =_sidata
 800069c:	4a0d      	ldr	r2, [pc, #52]	; (80006d4 <LoopForever+0xe>)
  movs r3, #0
 800069e:	2300      	movs	r3, #0
  b LoopCopyDataInit
 80006a0:	e002      	b.n	80006a8 <LoopCopyDataInit>

080006a2 <CopyDataInit>:

CopyDataInit:
  ldr r4, [r2, r3]
 80006a2:	58d4      	ldr	r4, [r2, r3]
  str r4, [r0, r3]
 80006a4:	50c4      	str	r4, [r0, r3]
  adds r3, r3, #4
 80006a6:	3304      	adds	r3, #4

080006a8 <LoopCopyDataInit>:

LoopCopyDataInit:
  adds r4, r0, r3
 80006a8:	18c4      	adds	r4, r0, r3
  cmp r4, r1
 80006aa:	428c      	cmp	r4, r1
  bcc CopyDataInit
 80006ac:	d3f9      	bcc.n	80006a2 <CopyDataInit>
  
/* Zero fill the bss segment. */
  ldr r2, =_sbss
 80006ae:	4a0a      	ldr	r2, [pc, #40]	; (80006d8 <LoopForever+0x12>)
  ldr r4, =_ebss
 80006b0:	4c0a      	ldr	r4, [pc, #40]	; (80006dc <LoopForever+0x16>)
  movs r3, #0
 80006b2:	2300      	movs	r3, #0
  b LoopFillZerobss
 80006b4:	e001      	b.n	80006ba <LoopFillZerobss>

080006b6 <FillZerobss>:

FillZerobss:
  str  r3, [r2]
 80006b6:	6013      	str	r3, [r2, #0]
  adds r2, r2, #4
 80006b8:	3204      	adds	r2, #4

080006ba <LoopFillZerobss>:

LoopFillZerobss:
  cmp r2, r4
 80006ba:	42a2      	cmp	r2, r4
  bcc FillZerobss
 80006bc:	d3fb      	bcc.n	80006b6 <FillZerobss>

/* Call static constructors */
    bl __libc_init_array
 80006be:	f001 fd29 	bl	8002114 <__libc_init_array>
/* Call the application's entry point.*/
	bl	main
 80006c2:	f7ff fdcf 	bl	8000264 <main>

080006c6 <LoopForever>:

LoopForever:
    b LoopForever
 80006c6:	e7fe      	b.n	80006c6 <LoopForever>
  ldr   sp, =_estack    /* Atollic update: set stack pointer */
 80006c8:	20010000 	.word	0x20010000
  ldr r0, =_sdata
 80006cc:	20000000 	.word	0x20000000
  ldr r1, =_edata
 80006d0:	20000010 	.word	0x20000010
  ldr r2, =_sidata
 80006d4:	080021ac 	.word	0x080021ac
  ldr r2, =_sbss
 80006d8:	20000010 	.word	0x20000010
  ldr r4, =_ebss
 80006dc:	20000038 	.word	0x20000038

080006e0 <ADC1_2_IRQHandler>:
 * @retval : None
*/
    .section	.text.Default_Handler,"ax",%progbits
Default_Handler:
Infinite_Loop:
	b	Infinite_Loop
 80006e0:	e7fe      	b.n	80006e0 <ADC1_2_IRQHandler>
	...

080006e4 <HAL_Init>:
  *         In the default implementation,Systick is used as source of time base.
  *       The tick variable is incremented each 1ms in its ISR.
  * @retval HAL status
  */
HAL_StatusTypeDef HAL_Init(void)
{
 80006e4:	b580      	push	{r7, lr}
 80006e6:	af00      	add	r7, sp, #0
  /* Configure Flash prefetch */
#if (PREFETCH_ENABLE != 0U)
  __HAL_FLASH_PREFETCH_BUFFER_ENABLE();
 80006e8:	4b08      	ldr	r3, [pc, #32]	; (800070c <HAL_Init+0x28>)
 80006ea:	681b      	ldr	r3, [r3, #0]
 80006ec:	4a07      	ldr	r2, [pc, #28]	; (800070c <HAL_Init+0x28>)
 80006ee:	f043 0310 	orr.w	r3, r3, #16
 80006f2:	6013      	str	r3, [r2, #0]
#endif /* PREFETCH_ENABLE */

  /* Set Interrupt Group Priority */
  HAL_NVIC_SetPriorityGrouping(NVIC_PRIORITYGROUP_4);
 80006f4:	2003      	movs	r0, #3
 80006f6:	f000 f90d 	bl	8000914 <HAL_NVIC_SetPriorityGrouping>

  /* Enable systick and configure 1ms tick (default clock after Reset is HSI) */
  HAL_InitTick(TICK_INT_PRIORITY);
 80006fa:	200f      	movs	r0, #15
 80006fc:	f000 f808 	bl	8000710 <HAL_InitTick>

  /* Init the low level hardware */
  HAL_MspInit();
 8000700:	f7ff ff66 	bl	80005d0 <HAL_MspInit>

  /* Return function status */
  return HAL_OK;
 8000704:	2300      	movs	r3, #0
}
 8000706:	4618      	mov	r0, r3
 8000708:	bd80      	pop	{r7, pc}
 800070a:	bf00      	nop
 800070c:	40022000 	.word	0x40022000

08000710 <HAL_InitTick>:
  *         implementation  in user file.
  * @param TickPriority Tick interrupt priority.
  * @retval HAL status
  */
__weak HAL_StatusTypeDef HAL_InitTick(uint32_t TickPriority)
{
 8000710:	b580      	push	{r7, lr}
 8000712:	b082      	sub	sp, #8
 8000714:	af00      	add	r7, sp, #0
 8000716:	6078      	str	r0, [r7, #4]
  /* Configure the SysTick to have interrupt in 1ms time basis*/
  if (HAL_SYSTICK_Config(SystemCoreClock / (1000U / uwTickFreq)) > 0U)
 8000718:	4b12      	ldr	r3, [pc, #72]	; (8000764 <HAL_InitTick+0x54>)
 800071a:	681a      	ldr	r2, [r3, #0]
 800071c:	4b12      	ldr	r3, [pc, #72]	; (8000768 <HAL_InitTick+0x58>)
 800071e:	781b      	ldrb	r3, [r3, #0]
 8000720:	4619      	mov	r1, r3
 8000722:	f44f 737a 	mov.w	r3, #1000	; 0x3e8
 8000726:	fbb3 f3f1 	udiv	r3, r3, r1
 800072a:	fbb2 f3f3 	udiv	r3, r2, r3
 800072e:	4618      	mov	r0, r3
 8000730:	f000 f917 	bl	8000962 <HAL_SYSTICK_Config>
 8000734:	4603      	mov	r3, r0
 8000736:	2b00      	cmp	r3, #0
 8000738:	d001      	beq.n	800073e <HAL_InitTick+0x2e>
  {
    return HAL_ERROR;
 800073a:	2301      	movs	r3, #1
 800073c:	e00e      	b.n	800075c <HAL_InitTick+0x4c>
  }

  /* Configure the SysTick IRQ priority */
  if (TickPriority < (1UL << __NVIC_PRIO_BITS))
 800073e:	687b      	ldr	r3, [r7, #4]
 8000740:	2b0f      	cmp	r3, #15
 8000742:	d80a      	bhi.n	800075a <HAL_InitTick+0x4a>
  {
    HAL_NVIC_SetPriority(SysTick_IRQn, TickPriority, 0U);
 8000744:	2200      	movs	r2, #0
 8000746:	6879      	ldr	r1, [r7, #4]
 8000748:	f04f 30ff 	mov.w	r0, #4294967295
 800074c:	f000 f8ed 	bl	800092a <HAL_NVIC_SetPriority>
    uwTickPrio = TickPriority;
 8000750:	4a06      	ldr	r2, [pc, #24]	; (800076c <HAL_InitTick+0x5c>)
 8000752:	687b      	ldr	r3, [r7, #4]
 8000754:	6013      	str	r3, [r2, #0]
  else
  {
    return HAL_ERROR;
  }
   /* Return function status */
  return HAL_OK;
 8000756:	2300      	movs	r3, #0
 8000758:	e000      	b.n	800075c <HAL_InitTick+0x4c>
    return HAL_ERROR;
 800075a:	2301      	movs	r3, #1
}
 800075c:	4618      	mov	r0, r3
 800075e:	3708      	adds	r7, #8
 8000760:	46bd      	mov	sp, r7
 8000762:	bd80      	pop	{r7, pc}
 8000764:	20000004 	.word	0x20000004
 8000768:	2000000c 	.word	0x2000000c
 800076c:	20000008 	.word	0x20000008

08000770 <HAL_IncTick>:
  * @note This function is declared as __weak to be overwritten in case of other 
  *         implementations  in user file.
  * @retval None
  */
__weak void HAL_IncTick(void)
{
 8000770:	b480      	push	{r7}
 8000772:	af00      	add	r7, sp, #0
  uwTick += uwTickFreq;
 8000774:	4b06      	ldr	r3, [pc, #24]	; (8000790 <HAL_IncTick+0x20>)
 8000776:	781b      	ldrb	r3, [r3, #0]
 8000778:	461a      	mov	r2, r3
 800077a:	4b06      	ldr	r3, [pc, #24]	; (8000794 <HAL_IncTick+0x24>)
 800077c:	681b      	ldr	r3, [r3, #0]
 800077e:	4413      	add	r3, r2
 8000780:	4a04      	ldr	r2, [pc, #16]	; (8000794 <HAL_IncTick+0x24>)
 8000782:	6013      	str	r3, [r2, #0]
}
 8000784:	bf00      	nop
 8000786:	46bd      	mov	sp, r7
 8000788:	f85d 7b04 	ldr.w	r7, [sp], #4
 800078c:	4770      	bx	lr
 800078e:	bf00      	nop
 8000790:	2000000c 	.word	0x2000000c
 8000794:	20000034 	.word	0x20000034

08000798 <HAL_GetTick>:
  * @note   The function is declared as __Weak  to be overwritten  in case of other 
  *         implementations  in user file.
  * @retval tick value
  */
__weak uint32_t HAL_GetTick(void)
{
 8000798:	b480      	push	{r7}
 800079a:	af00      	add	r7, sp, #0
  return uwTick;  
 800079c:	4b03      	ldr	r3, [pc, #12]	; (80007ac <HAL_GetTick+0x14>)
 800079e:	681b      	ldr	r3, [r3, #0]
}
 80007a0:	4618      	mov	r0, r3
 80007a2:	46bd      	mov	sp, r7
 80007a4:	f85d 7b04 	ldr.w	r7, [sp], #4
 80007a8:	4770      	bx	lr
 80007aa:	bf00      	nop
 80007ac:	20000034 	.word	0x20000034

080007b0 <__NVIC_SetPriorityGrouping>:
{
 80007b0:	b480      	push	{r7}
 80007b2:	b085      	sub	sp, #20
 80007b4:	af00      	add	r7, sp, #0
 80007b6:	6078      	str	r0, [r7, #4]
  uint32_t PriorityGroupTmp = (PriorityGroup & (uint32_t)0x07UL);             /* only values 0..7 are used          */
 80007b8:	687b      	ldr	r3, [r7, #4]
 80007ba:	f003 0307 	and.w	r3, r3, #7
 80007be:	60fb      	str	r3, [r7, #12]
  reg_value  =  SCB->AIRCR;                                                   /* read old register configuration    */
 80007c0:	4b0c      	ldr	r3, [pc, #48]	; (80007f4 <__NVIC_SetPriorityGrouping+0x44>)
 80007c2:	68db      	ldr	r3, [r3, #12]
 80007c4:	60bb      	str	r3, [r7, #8]
  reg_value &= ~((uint32_t)(SCB_AIRCR_VECTKEY_Msk | SCB_AIRCR_PRIGROUP_Msk)); /* clear bits to change               */
 80007c6:	68ba      	ldr	r2, [r7, #8]
 80007c8:	f64f 03ff 	movw	r3, #63743	; 0xf8ff
 80007cc:	4013      	ands	r3, r2
 80007ce:	60bb      	str	r3, [r7, #8]
                (PriorityGroupTmp << SCB_AIRCR_PRIGROUP_Pos)  );              /* Insert write key and priority group */
 80007d0:	68fb      	ldr	r3, [r7, #12]
 80007d2:	021a      	lsls	r2, r3, #8
                ((uint32_t)0x5FAUL << SCB_AIRCR_VECTKEY_Pos) |
 80007d4:	68bb      	ldr	r3, [r7, #8]
 80007d6:	4313      	orrs	r3, r2
  reg_value  =  (reg_value                                   |
 80007d8:	f043 63bf 	orr.w	r3, r3, #100139008	; 0x5f80000
 80007dc:	f443 3300 	orr.w	r3, r3, #131072	; 0x20000
 80007e0:	60bb      	str	r3, [r7, #8]
  SCB->AIRCR =  reg_value;
 80007e2:	4a04      	ldr	r2, [pc, #16]	; (80007f4 <__NVIC_SetPriorityGrouping+0x44>)
 80007e4:	68bb      	ldr	r3, [r7, #8]
 80007e6:	60d3      	str	r3, [r2, #12]
}
 80007e8:	bf00      	nop
 80007ea:	3714      	adds	r7, #20
 80007ec:	46bd      	mov	sp, r7
 80007ee:	f85d 7b04 	ldr.w	r7, [sp], #4
 80007f2:	4770      	bx	lr
 80007f4:	e000ed00 	.word	0xe000ed00

080007f8 <__NVIC_GetPriorityGrouping>:
{
 80007f8:	b480      	push	{r7}
 80007fa:	af00      	add	r7, sp, #0
  return ((uint32_t)((SCB->AIRCR & SCB_AIRCR_PRIGROUP_Msk) >> SCB_AIRCR_PRIGROUP_Pos));
 80007fc:	4b04      	ldr	r3, [pc, #16]	; (8000810 <__NVIC_GetPriorityGrouping+0x18>)
 80007fe:	68db      	ldr	r3, [r3, #12]
 8000800:	0a1b      	lsrs	r3, r3, #8
 8000802:	f003 0307 	and.w	r3, r3, #7
}
 8000806:	4618      	mov	r0, r3
 8000808:	46bd      	mov	sp, r7
 800080a:	f85d 7b04 	ldr.w	r7, [sp], #4
 800080e:	4770      	bx	lr
 8000810:	e000ed00 	.word	0xe000ed00

08000814 <__NVIC_SetPriority>:
{
 8000814:	b480      	push	{r7}
 8000816:	b083      	sub	sp, #12
 8000818:	af00      	add	r7, sp, #0
 800081a:	4603      	mov	r3, r0
 800081c:	6039      	str	r1, [r7, #0]
 800081e:	71fb      	strb	r3, [r7, #7]
  if ((int32_t)(IRQn) >= 0)
 8000820:	f997 3007 	ldrsb.w	r3, [r7, #7]
 8000824:	2b00      	cmp	r3, #0
 8000826:	db0a      	blt.n	800083e <__NVIC_SetPriority+0x2a>
    NVIC->IP[((uint32_t)IRQn)]               = (uint8_t)((priority << (8U - __NVIC_PRIO_BITS)) & (uint32_t)0xFFUL);
 8000828:	683b      	ldr	r3, [r7, #0]
 800082a:	b2da      	uxtb	r2, r3
 800082c:	490c      	ldr	r1, [pc, #48]	; (8000860 <__NVIC_SetPriority+0x4c>)
 800082e:	f997 3007 	ldrsb.w	r3, [r7, #7]
 8000832:	0112      	lsls	r2, r2, #4
 8000834:	b2d2      	uxtb	r2, r2
 8000836:	440b      	add	r3, r1
 8000838:	f883 2300 	strb.w	r2, [r3, #768]	; 0x300
}
 800083c:	e00a      	b.n	8000854 <__NVIC_SetPriority+0x40>
    SCB->SHP[(((uint32_t)IRQn) & 0xFUL)-4UL] = (uint8_t)((priority << (8U - __NVIC_PRIO_BITS)) & (uint32_t)0xFFUL);
 800083e:	683b      	ldr	r3, [r7, #0]
 8000840:	b2da      	uxtb	r2, r3
 8000842:	4908      	ldr	r1, [pc, #32]	; (8000864 <__NVIC_SetPriority+0x50>)
 8000844:	79fb      	ldrb	r3, [r7, #7]
 8000846:	f003 030f 	and.w	r3, r3, #15
 800084a:	3b04      	subs	r3, #4
 800084c:	0112      	lsls	r2, r2, #4
 800084e:	b2d2      	uxtb	r2, r2
 8000850:	440b      	add	r3, r1
 8000852:	761a      	strb	r2, [r3, #24]
}
 8000854:	bf00      	nop
 8000856:	370c      	adds	r7, #12
 8000858:	46bd      	mov	sp, r7
 800085a:	f85d 7b04 	ldr.w	r7, [sp], #4
 800085e:	4770      	bx	lr
 8000860:	e000e100 	.word	0xe000e100
 8000864:	e000ed00 	.word	0xe000ed00

08000868 <NVIC_EncodePriority>:
  \param [in]   PreemptPriority  Preemptive priority value (starting from 0).
  \param [in]       SubPriority  Subpriority value (starting from 0).
  \return                        Encoded priority. Value can be used in the function \ref NVIC_SetPriority().
 */
__STATIC_INLINE uint32_t NVIC_EncodePriority (uint32_t PriorityGroup, uint32_t PreemptPriority, uint32_t SubPriority)
{
 8000868:	b480      	push	{r7}
 800086a:	b089      	sub	sp, #36	; 0x24
 800086c:	af00      	add	r7, sp, #0
 800086e:	60f8      	str	r0, [r7, #12]
 8000870:	60b9      	str	r1, [r7, #8]
 8000872:	607a      	str	r2, [r7, #4]
  uint32_t PriorityGroupTmp = (PriorityGroup & (uint32_t)0x07UL);   /* only values 0..7 are used          */
 8000874:	68fb      	ldr	r3, [r7, #12]
 8000876:	f003 0307 	and.w	r3, r3, #7
 800087a:	61fb      	str	r3, [r7, #28]
  uint32_t PreemptPriorityBits;
  uint32_t SubPriorityBits;

  PreemptPriorityBits = ((7UL - PriorityGroupTmp) > (uint32_t)(__NVIC_PRIO_BITS)) ? (uint32_t)(__NVIC_PRIO_BITS) : (uint32_t)(7UL - PriorityGroupTmp);
 800087c:	69fb      	ldr	r3, [r7, #28]
 800087e:	f1c3 0307 	rsb	r3, r3, #7
 8000882:	2b04      	cmp	r3, #4
 8000884:	bf28      	it	cs
 8000886:	2304      	movcs	r3, #4
 8000888:	61bb      	str	r3, [r7, #24]
  SubPriorityBits     = ((PriorityGroupTmp + (uint32_t)(__NVIC_PRIO_BITS)) < (uint32_t)7UL) ? (uint32_t)0UL : (uint32_t)((PriorityGroupTmp - 7UL) + (uint32_t)(__NVIC_PRIO_BITS));
 800088a:	69fb      	ldr	r3, [r7, #28]
 800088c:	3304      	adds	r3, #4
 800088e:	2b06      	cmp	r3, #6
 8000890:	d902      	bls.n	8000898 <NVIC_EncodePriority+0x30>
 8000892:	69fb      	ldr	r3, [r7, #28]
 8000894:	3b03      	subs	r3, #3
 8000896:	e000      	b.n	800089a <NVIC_EncodePriority+0x32>
 8000898:	2300      	movs	r3, #0
 800089a:	617b      	str	r3, [r7, #20]

  return (
           ((PreemptPriority & (uint32_t)((1UL << (PreemptPriorityBits)) - 1UL)) << SubPriorityBits) |
 800089c:	f04f 32ff 	mov.w	r2, #4294967295
 80008a0:	69bb      	ldr	r3, [r7, #24]
 80008a2:	fa02 f303 	lsl.w	r3, r2, r3
 80008a6:	43da      	mvns	r2, r3
 80008a8:	68bb      	ldr	r3, [r7, #8]
 80008aa:	401a      	ands	r2, r3
 80008ac:	697b      	ldr	r3, [r7, #20]
 80008ae:	409a      	lsls	r2, r3
           ((SubPriority     & (uint32_t)((1UL << (SubPriorityBits    )) - 1UL)))
 80008b0:	f04f 31ff 	mov.w	r1, #4294967295
 80008b4:	697b      	ldr	r3, [r7, #20]
 80008b6:	fa01 f303 	lsl.w	r3, r1, r3
 80008ba:	43d9      	mvns	r1, r3
 80008bc:	687b      	ldr	r3, [r7, #4]
 80008be:	400b      	ands	r3, r1
           ((PreemptPriority & (uint32_t)((1UL << (PreemptPriorityBits)) - 1UL)) << SubPriorityBits) |
 80008c0:	4313      	orrs	r3, r2
         );
}
 80008c2:	4618      	mov	r0, r3
 80008c4:	3724      	adds	r7, #36	; 0x24
 80008c6:	46bd      	mov	sp, r7
 80008c8:	f85d 7b04 	ldr.w	r7, [sp], #4
 80008cc:	4770      	bx	lr
	...

080008d0 <SysTick_Config>:
  \note    When the variable <b>__Vendor_SysTickConfig</b> is set to 1, then the
           function <b>SysTick_Config</b> is not included. In this case, the file <b><i>device</i>.h</b>
           must contain a vendor-specific implementation of this function.
 */
__STATIC_INLINE uint32_t SysTick_Config(uint32_t ticks)
{
 80008d0:	b580      	push	{r7, lr}
 80008d2:	b082      	sub	sp, #8
 80008d4:	af00      	add	r7, sp, #0
 80008d6:	6078      	str	r0, [r7, #4]
  if ((ticks - 1UL) > SysTick_LOAD_RELOAD_Msk)
 80008d8:	687b      	ldr	r3, [r7, #4]
 80008da:	3b01      	subs	r3, #1
 80008dc:	f1b3 7f80 	cmp.w	r3, #16777216	; 0x1000000
 80008e0:	d301      	bcc.n	80008e6 <SysTick_Config+0x16>
  {
    return (1UL);                                                   /* Reload value impossible */
 80008e2:	2301      	movs	r3, #1
 80008e4:	e00f      	b.n	8000906 <SysTick_Config+0x36>
  }

  SysTick->LOAD  = (uint32_t)(ticks - 1UL);                         /* set reload register */
 80008e6:	4a0a      	ldr	r2, [pc, #40]	; (8000910 <SysTick_Config+0x40>)
 80008e8:	687b      	ldr	r3, [r7, #4]
 80008ea:	3b01      	subs	r3, #1
 80008ec:	6053      	str	r3, [r2, #4]
  NVIC_SetPriority (SysTick_IRQn, (1UL << __NVIC_PRIO_BITS) - 1UL); /* set Priority for Systick Interrupt */
 80008ee:	210f      	movs	r1, #15
 80008f0:	f04f 30ff 	mov.w	r0, #4294967295
 80008f4:	f7ff ff8e 	bl	8000814 <__NVIC_SetPriority>
  SysTick->VAL   = 0UL;                                             /* Load the SysTick Counter Value */
 80008f8:	4b05      	ldr	r3, [pc, #20]	; (8000910 <SysTick_Config+0x40>)
 80008fa:	2200      	movs	r2, #0
 80008fc:	609a      	str	r2, [r3, #8]
  SysTick->CTRL  = SysTick_CTRL_CLKSOURCE_Msk |
 80008fe:	4b04      	ldr	r3, [pc, #16]	; (8000910 <SysTick_Config+0x40>)
 8000900:	2207      	movs	r2, #7
 8000902:	601a      	str	r2, [r3, #0]
                   SysTick_CTRL_TICKINT_Msk   |
                   SysTick_CTRL_ENABLE_Msk;                         /* Enable SysTick IRQ and SysTick Timer */
  return (0UL);                                                     /* Function successful */
 8000904:	2300      	movs	r3, #0
}
 8000906:	4618      	mov	r0, r3
 8000908:	3708      	adds	r7, #8
 800090a:	46bd      	mov	sp, r7
 800090c:	bd80      	pop	{r7, pc}
 800090e:	bf00      	nop
 8000910:	e000e010 	.word	0xe000e010

08000914 <HAL_NVIC_SetPriorityGrouping>:
  * @note   When the NVIC_PriorityGroup_0 is selected, IRQ pre-emption is no more possible.
  *         The pending IRQ priority will be managed only by the subpriority.
  * @retval None
  */
void HAL_NVIC_SetPriorityGrouping(uint32_t PriorityGroup)
{
 8000914:	b580      	push	{r7, lr}
 8000916:	b082      	sub	sp, #8
 8000918:	af00      	add	r7, sp, #0
 800091a:	6078      	str	r0, [r7, #4]
  /* Check the parameters */
  assert_param(IS_NVIC_PRIORITY_GROUP(PriorityGroup));

  /* Set the PRIGROUP[10:8] bits according to the PriorityGroup parameter value */
  NVIC_SetPriorityGrouping(PriorityGroup);
 800091c:	6878      	ldr	r0, [r7, #4]
 800091e:	f7ff ff47 	bl	80007b0 <__NVIC_SetPriorityGrouping>
}
 8000922:	bf00      	nop
 8000924:	3708      	adds	r7, #8
 8000926:	46bd      	mov	sp, r7
 8000928:	bd80      	pop	{r7, pc}

0800092a <HAL_NVIC_SetPriority>:
  *         This parameter can be a value between 0 and 15 as described in the table CORTEX_NVIC_Priority_Table
  *         A lower priority value indicates a higher priority.
  * @retval None
  */
void HAL_NVIC_SetPriority(IRQn_Type IRQn, uint32_t PreemptPriority, uint32_t SubPriority)
{
 800092a:	b580      	push	{r7, lr}
 800092c:	b086      	sub	sp, #24
 800092e:	af00      	add	r7, sp, #0
 8000930:	4603      	mov	r3, r0
 8000932:	60b9      	str	r1, [r7, #8]
 8000934:	607a      	str	r2, [r7, #4]
 8000936:	73fb      	strb	r3, [r7, #15]
  uint32_t prioritygroup = 0x00U;
 8000938:	2300      	movs	r3, #0
 800093a:	617b      	str	r3, [r7, #20]
  
  /* Check the parameters */
  assert_param(IS_NVIC_SUB_PRIORITY(SubPriority));
  assert_param(IS_NVIC_PREEMPTION_PRIORITY(PreemptPriority));
  
  prioritygroup = NVIC_GetPriorityGrouping();
 800093c:	f7ff ff5c 	bl	80007f8 <__NVIC_GetPriorityGrouping>
 8000940:	6178      	str	r0, [r7, #20]
  
  NVIC_SetPriority(IRQn, NVIC_EncodePriority(prioritygroup, PreemptPriority, SubPriority));
 8000942:	687a      	ldr	r2, [r7, #4]
 8000944:	68b9      	ldr	r1, [r7, #8]
 8000946:	6978      	ldr	r0, [r7, #20]
 8000948:	f7ff ff8e 	bl	8000868 <NVIC_EncodePriority>
 800094c:	4602      	mov	r2, r0
 800094e:	f997 300f 	ldrsb.w	r3, [r7, #15]
 8000952:	4611      	mov	r1, r2
 8000954:	4618      	mov	r0, r3
 8000956:	f7ff ff5d 	bl	8000814 <__NVIC_SetPriority>
}
 800095a:	bf00      	nop
 800095c:	3718      	adds	r7, #24
 800095e:	46bd      	mov	sp, r7
 8000960:	bd80      	pop	{r7, pc}

08000962 <HAL_SYSTICK_Config>:
  * @param  TicksNumb Specifies the ticks Number of ticks between two interrupts.
  * @retval status:  - 0  Function succeeded.
  *                  - 1  Function failed.
  */
uint32_t HAL_SYSTICK_Config(uint32_t TicksNumb)
{
 8000962:	b580      	push	{r7, lr}
 8000964:	b082      	sub	sp, #8
 8000966:	af00      	add	r7, sp, #0
 8000968:	6078      	str	r0, [r7, #4]
   return SysTick_Config(TicksNumb);
 800096a:	6878      	ldr	r0, [r7, #4]
 800096c:	f7ff ffb0 	bl	80008d0 <SysTick_Config>
 8000970:	4603      	mov	r3, r0
}
 8000972:	4618      	mov	r0, r3
 8000974:	3708      	adds	r7, #8
 8000976:	46bd      	mov	sp, r7
 8000978:	bd80      	pop	{r7, pc}
	...

0800097c <HAL_GPIO_Init>:
  * @param  GPIO_Init pointer to a GPIO_InitTypeDef structure that contains
  *         the configuration information for the specified GPIO peripheral.
  * @retval None
  */
void HAL_GPIO_Init(GPIO_TypeDef  *GPIOx, GPIO_InitTypeDef *GPIO_Init)
{
 800097c:	b480      	push	{r7}
 800097e:	b087      	sub	sp, #28
 8000980:	af00      	add	r7, sp, #0
 8000982:	6078      	str	r0, [r7, #4]
 8000984:	6039      	str	r1, [r7, #0]
  uint32_t position = 0x00u;
 8000986:	2300      	movs	r3, #0
 8000988:	617b      	str	r3, [r7, #20]
  assert_param(IS_GPIO_ALL_INSTANCE(GPIOx));
  assert_param(IS_GPIO_PIN(GPIO_Init->Pin));
  assert_param(IS_GPIO_MODE(GPIO_Init->Mode));

  /* Configure the port pins */
  while (((GPIO_Init->Pin) >> position) != 0x00u)
 800098a:	e160      	b.n	8000c4e <HAL_GPIO_Init+0x2d2>
  {
    /* Get current io position */
    iocurrent = (GPIO_Init->Pin) & (1uL << position);
 800098c:	683b      	ldr	r3, [r7, #0]
 800098e:	681a      	ldr	r2, [r3, #0]
 8000990:	2101      	movs	r1, #1
 8000992:	697b      	ldr	r3, [r7, #20]
 8000994:	fa01 f303 	lsl.w	r3, r1, r3
 8000998:	4013      	ands	r3, r2
 800099a:	60fb      	str	r3, [r7, #12]

    if (iocurrent != 0x00u)
 800099c:	68fb      	ldr	r3, [r7, #12]
 800099e:	2b00      	cmp	r3, #0
 80009a0:	f000 8152 	beq.w	8000c48 <HAL_GPIO_Init+0x2cc>
    {
      /*--------------------- GPIO Mode Configuration ------------------------*/
      /* In case of Output or Alternate function mode selection */
      if(((GPIO_Init->Mode & GPIO_MODE) == MODE_OUTPUT) || ((GPIO_Init->Mode & GPIO_MODE) == MODE_AF))
 80009a4:	683b      	ldr	r3, [r7, #0]
 80009a6:	685b      	ldr	r3, [r3, #4]
 80009a8:	f003 0303 	and.w	r3, r3, #3
 80009ac:	2b01      	cmp	r3, #1
 80009ae:	d005      	beq.n	80009bc <HAL_GPIO_Init+0x40>
 80009b0:	683b      	ldr	r3, [r7, #0]
 80009b2:	685b      	ldr	r3, [r3, #4]
 80009b4:	f003 0303 	and.w	r3, r3, #3
 80009b8:	2b02      	cmp	r3, #2
 80009ba:	d130      	bne.n	8000a1e <HAL_GPIO_Init+0xa2>
      {
        /* Check the Speed parameter */
        assert_param(IS_GPIO_SPEED(GPIO_Init->Speed));
        /* Configure the IO Speed */
        temp = GPIOx->OSPEEDR;
 80009bc:	687b      	ldr	r3, [r7, #4]
 80009be:	689b      	ldr	r3, [r3, #8]
 80009c0:	613b      	str	r3, [r7, #16]
        temp &= ~(GPIO_OSPEEDER_OSPEEDR0 << (position * 2u));
 80009c2:	697b      	ldr	r3, [r7, #20]
 80009c4:	005b      	lsls	r3, r3, #1
 80009c6:	2203      	movs	r2, #3
 80009c8:	fa02 f303 	lsl.w	r3, r2, r3
 80009cc:	43db      	mvns	r3, r3
 80009ce:	693a      	ldr	r2, [r7, #16]
 80009d0:	4013      	ands	r3, r2
 80009d2:	613b      	str	r3, [r7, #16]
        temp |= (GPIO_Init->Speed << (position * 2u));
 80009d4:	683b      	ldr	r3, [r7, #0]
 80009d6:	68da      	ldr	r2, [r3, #12]
 80009d8:	697b      	ldr	r3, [r7, #20]
 80009da:	005b      	lsls	r3, r3, #1
 80009dc:	fa02 f303 	lsl.w	r3, r2, r3
 80009e0:	693a      	ldr	r2, [r7, #16]
 80009e2:	4313      	orrs	r3, r2
 80009e4:	613b      	str	r3, [r7, #16]
        GPIOx->OSPEEDR = temp;
 80009e6:	687b      	ldr	r3, [r7, #4]
 80009e8:	693a      	ldr	r2, [r7, #16]
 80009ea:	609a      	str	r2, [r3, #8]

        /* Configure the IO Output Type */
        temp = GPIOx->OTYPER;
 80009ec:	687b      	ldr	r3, [r7, #4]
 80009ee:	685b      	ldr	r3, [r3, #4]
 80009f0:	613b      	str	r3, [r7, #16]
        temp &= ~(GPIO_OTYPER_OT_0 << position) ;
 80009f2:	2201      	movs	r2, #1
 80009f4:	697b      	ldr	r3, [r7, #20]
 80009f6:	fa02 f303 	lsl.w	r3, r2, r3
 80009fa:	43db      	mvns	r3, r3
 80009fc:	693a      	ldr	r2, [r7, #16]
 80009fe:	4013      	ands	r3, r2
 8000a00:	613b      	str	r3, [r7, #16]
        temp |= (((GPIO_Init->Mode & OUTPUT_TYPE) >> OUTPUT_TYPE_Pos) << position);
 8000a02:	683b      	ldr	r3, [r7, #0]
 8000a04:	685b      	ldr	r3, [r3, #4]
 8000a06:	091b      	lsrs	r3, r3, #4
 8000a08:	f003 0201 	and.w	r2, r3, #1
 8000a0c:	697b      	ldr	r3, [r7, #20]
 8000a0e:	fa02 f303 	lsl.w	r3, r2, r3
 8000a12:	693a      	ldr	r2, [r7, #16]
 8000a14:	4313      	orrs	r3, r2
 8000a16:	613b      	str	r3, [r7, #16]
        GPIOx->OTYPER = temp;
 8000a18:	687b      	ldr	r3, [r7, #4]
 8000a1a:	693a      	ldr	r2, [r7, #16]
 8000a1c:	605a      	str	r2, [r3, #4]
      }

      if((GPIO_Init->Mode & GPIO_MODE) != MODE_ANALOG)
 8000a1e:	683b      	ldr	r3, [r7, #0]
 8000a20:	685b      	ldr	r3, [r3, #4]
 8000a22:	f003 0303 	and.w	r3, r3, #3
 8000a26:	2b03      	cmp	r3, #3
 8000a28:	d017      	beq.n	8000a5a <HAL_GPIO_Init+0xde>
      {
        /* Check the Pull parameter */
        assert_param(IS_GPIO_PULL(GPIO_Init->Pull));

        /* Activate the Pull-up or Pull down resistor for the current IO */
        temp = GPIOx->PUPDR;
 8000a2a:	687b      	ldr	r3, [r7, #4]
 8000a2c:	68db      	ldr	r3, [r3, #12]
 8000a2e:	613b      	str	r3, [r7, #16]
        temp &= ~(GPIO_PUPDR_PUPDR0 << (position * 2u));
 8000a30:	697b      	ldr	r3, [r7, #20]
 8000a32:	005b      	lsls	r3, r3, #1
 8000a34:	2203      	movs	r2, #3
 8000a36:	fa02 f303 	lsl.w	r3, r2, r3
 8000a3a:	43db      	mvns	r3, r3
 8000a3c:	693a      	ldr	r2, [r7, #16]
 8000a3e:	4013      	ands	r3, r2
 8000a40:	613b      	str	r3, [r7, #16]
        temp |= ((GPIO_Init->Pull) << (position * 2u));
 8000a42:	683b      	ldr	r3, [r7, #0]
 8000a44:	689a      	ldr	r2, [r3, #8]
 8000a46:	697b      	ldr	r3, [r7, #20]
 8000a48:	005b      	lsls	r3, r3, #1
 8000a4a:	fa02 f303 	lsl.w	r3, r2, r3
 8000a4e:	693a      	ldr	r2, [r7, #16]
 8000a50:	4313      	orrs	r3, r2
 8000a52:	613b      	str	r3, [r7, #16]
        GPIOx->PUPDR = temp;
 8000a54:	687b      	ldr	r3, [r7, #4]
 8000a56:	693a      	ldr	r2, [r7, #16]
 8000a58:	60da      	str	r2, [r3, #12]
      }

      /*--------------------- GPIO Mode Configuration ------------------------*/
      /* In case of Alternate function mode selection */
      if((GPIO_Init->Mode & GPIO_MODE) == MODE_AF)
 8000a5a:	683b      	ldr	r3, [r7, #0]
 8000a5c:	685b      	ldr	r3, [r3, #4]
 8000a5e:	f003 0303 	and.w	r3, r3, #3
 8000a62:	2b02      	cmp	r3, #2
 8000a64:	d123      	bne.n	8000aae <HAL_GPIO_Init+0x132>
        /* Check the Alternate function parameters */
        assert_param(IS_GPIO_AF_INSTANCE(GPIOx));
        assert_param(IS_GPIO_AF(GPIO_Init->Alternate));

        /* Configure Alternate function mapped with the current IO */
        temp = GPIOx->AFR[position >> 3u];
 8000a66:	697b      	ldr	r3, [r7, #20]
 8000a68:	08da      	lsrs	r2, r3, #3
 8000a6a:	687b      	ldr	r3, [r7, #4]
 8000a6c:	3208      	adds	r2, #8
 8000a6e:	f853 3022 	ldr.w	r3, [r3, r2, lsl #2]
 8000a72:	613b      	str	r3, [r7, #16]
        temp &= ~(0xFu << ((position & 0x07u) * 4u));
 8000a74:	697b      	ldr	r3, [r7, #20]
 8000a76:	f003 0307 	and.w	r3, r3, #7
 8000a7a:	009b      	lsls	r3, r3, #2
 8000a7c:	220f      	movs	r2, #15
 8000a7e:	fa02 f303 	lsl.w	r3, r2, r3
 8000a82:	43db      	mvns	r3, r3
 8000a84:	693a      	ldr	r2, [r7, #16]
 8000a86:	4013      	ands	r3, r2
 8000a88:	613b      	str	r3, [r7, #16]
        temp |= ((GPIO_Init->Alternate) << ((position & 0x07u) * 4u));
 8000a8a:	683b      	ldr	r3, [r7, #0]
 8000a8c:	691a      	ldr	r2, [r3, #16]
 8000a8e:	697b      	ldr	r3, [r7, #20]
 8000a90:	f003 0307 	and.w	r3, r3, #7
 8000a94:	009b      	lsls	r3, r3, #2
 8000a96:	fa02 f303 	lsl.w	r3, r2, r3
 8000a9a:	693a      	ldr	r2, [r7, #16]
 8000a9c:	4313      	orrs	r3, r2
 8000a9e:	613b      	str	r3, [r7, #16]
        GPIOx->AFR[position >> 3u] = temp;
 8000aa0:	697b      	ldr	r3, [r7, #20]
 8000aa2:	08da      	lsrs	r2, r3, #3
 8000aa4:	687b      	ldr	r3, [r7, #4]
 8000aa6:	3208      	adds	r2, #8
 8000aa8:	6939      	ldr	r1, [r7, #16]
 8000aaa:	f843 1022 	str.w	r1, [r3, r2, lsl #2]
      }

      /* Configure IO Direction mode (Input, Output, Alternate or Analog) */
      temp = GPIOx->MODER;
 8000aae:	687b      	ldr	r3, [r7, #4]
 8000ab0:	681b      	ldr	r3, [r3, #0]
 8000ab2:	613b      	str	r3, [r7, #16]
      temp &= ~(GPIO_MODER_MODER0 << (position * 2u));
 8000ab4:	697b      	ldr	r3, [r7, #20]
 8000ab6:	005b      	lsls	r3, r3, #1
 8000ab8:	2203      	movs	r2, #3
 8000aba:	fa02 f303 	lsl.w	r3, r2, r3
 8000abe:	43db      	mvns	r3, r3
 8000ac0:	693a      	ldr	r2, [r7, #16]
 8000ac2:	4013      	ands	r3, r2
 8000ac4:	613b      	str	r3, [r7, #16]
      temp |= ((GPIO_Init->Mode & GPIO_MODE) << (position * 2u));
 8000ac6:	683b      	ldr	r3, [r7, #0]
 8000ac8:	685b      	ldr	r3, [r3, #4]
 8000aca:	f003 0203 	and.w	r2, r3, #3
 8000ace:	697b      	ldr	r3, [r7, #20]
 8000ad0:	005b      	lsls	r3, r3, #1
 8000ad2:	fa02 f303 	lsl.w	r3, r2, r3
 8000ad6:	693a      	ldr	r2, [r7, #16]
 8000ad8:	4313      	orrs	r3, r2
 8000ada:	613b      	str	r3, [r7, #16]
      GPIOx->MODER = temp;
 8000adc:	687b      	ldr	r3, [r7, #4]
 8000ade:	693a      	ldr	r2, [r7, #16]
 8000ae0:	601a      	str	r2, [r3, #0]

      /*--------------------- EXTI Mode Configuration ------------------------*/
      /* Configure the External Interrupt or event for the current IO */
      if((GPIO_Init->Mode & EXTI_MODE) != 0x00u)
 8000ae2:	683b      	ldr	r3, [r7, #0]
 8000ae4:	685b      	ldr	r3, [r3, #4]
 8000ae6:	f403 3340 	and.w	r3, r3, #196608	; 0x30000
 8000aea:	2b00      	cmp	r3, #0
 8000aec:	f000 80ac 	beq.w	8000c48 <HAL_GPIO_Init+0x2cc>
      {
        /* Enable SYSCFG Clock */
        __HAL_RCC_SYSCFG_CLK_ENABLE();
 8000af0:	4b5e      	ldr	r3, [pc, #376]	; (8000c6c <HAL_GPIO_Init+0x2f0>)
 8000af2:	699b      	ldr	r3, [r3, #24]
 8000af4:	4a5d      	ldr	r2, [pc, #372]	; (8000c6c <HAL_GPIO_Init+0x2f0>)
 8000af6:	f043 0301 	orr.w	r3, r3, #1
 8000afa:	6193      	str	r3, [r2, #24]
 8000afc:	4b5b      	ldr	r3, [pc, #364]	; (8000c6c <HAL_GPIO_Init+0x2f0>)
 8000afe:	699b      	ldr	r3, [r3, #24]
 8000b00:	f003 0301 	and.w	r3, r3, #1
 8000b04:	60bb      	str	r3, [r7, #8]
 8000b06:	68bb      	ldr	r3, [r7, #8]

        temp = SYSCFG->EXTICR[position >> 2u];
 8000b08:	4a59      	ldr	r2, [pc, #356]	; (8000c70 <HAL_GPIO_Init+0x2f4>)
 8000b0a:	697b      	ldr	r3, [r7, #20]
 8000b0c:	089b      	lsrs	r3, r3, #2
 8000b0e:	3302      	adds	r3, #2
 8000b10:	f852 3023 	ldr.w	r3, [r2, r3, lsl #2]
 8000b14:	613b      	str	r3, [r7, #16]
        temp &= ~(0x0FuL << (4u * (position & 0x03u)));
 8000b16:	697b      	ldr	r3, [r7, #20]
 8000b18:	f003 0303 	and.w	r3, r3, #3
 8000b1c:	009b      	lsls	r3, r3, #2
 8000b1e:	220f      	movs	r2, #15
 8000b20:	fa02 f303 	lsl.w	r3, r2, r3
 8000b24:	43db      	mvns	r3, r3
 8000b26:	693a      	ldr	r2, [r7, #16]
 8000b28:	4013      	ands	r3, r2
 8000b2a:	613b      	str	r3, [r7, #16]
        temp |= (GPIO_GET_INDEX(GPIOx) << (4u * (position & 0x03u)));
 8000b2c:	687b      	ldr	r3, [r7, #4]
 8000b2e:	f1b3 4f90 	cmp.w	r3, #1207959552	; 0x48000000
 8000b32:	d025      	beq.n	8000b80 <HAL_GPIO_Init+0x204>
 8000b34:	687b      	ldr	r3, [r7, #4]
 8000b36:	4a4f      	ldr	r2, [pc, #316]	; (8000c74 <HAL_GPIO_Init+0x2f8>)
 8000b38:	4293      	cmp	r3, r2
 8000b3a:	d01f      	beq.n	8000b7c <HAL_GPIO_Init+0x200>
 8000b3c:	687b      	ldr	r3, [r7, #4]
 8000b3e:	4a4e      	ldr	r2, [pc, #312]	; (8000c78 <HAL_GPIO_Init+0x2fc>)
 8000b40:	4293      	cmp	r3, r2
 8000b42:	d019      	beq.n	8000b78 <HAL_GPIO_Init+0x1fc>
 8000b44:	687b      	ldr	r3, [r7, #4]
 8000b46:	4a4d      	ldr	r2, [pc, #308]	; (8000c7c <HAL_GPIO_Init+0x300>)
 8000b48:	4293      	cmp	r3, r2
 8000b4a:	d013      	beq.n	8000b74 <HAL_GPIO_Init+0x1f8>
 8000b4c:	687b      	ldr	r3, [r7, #4]
 8000b4e:	4a4c      	ldr	r2, [pc, #304]	; (8000c80 <HAL_GPIO_Init+0x304>)
 8000b50:	4293      	cmp	r3, r2
 8000b52:	d00d      	beq.n	8000b70 <HAL_GPIO_Init+0x1f4>
 8000b54:	687b      	ldr	r3, [r7, #4]
 8000b56:	4a4b      	ldr	r2, [pc, #300]	; (8000c84 <HAL_GPIO_Init+0x308>)
 8000b58:	4293      	cmp	r3, r2
 8000b5a:	d007      	beq.n	8000b6c <HAL_GPIO_Init+0x1f0>
 8000b5c:	687b      	ldr	r3, [r7, #4]
 8000b5e:	4a4a      	ldr	r2, [pc, #296]	; (8000c88 <HAL_GPIO_Init+0x30c>)
 8000b60:	4293      	cmp	r3, r2
 8000b62:	d101      	bne.n	8000b68 <HAL_GPIO_Init+0x1ec>
 8000b64:	2306      	movs	r3, #6
 8000b66:	e00c      	b.n	8000b82 <HAL_GPIO_Init+0x206>
 8000b68:	2307      	movs	r3, #7
 8000b6a:	e00a      	b.n	8000b82 <HAL_GPIO_Init+0x206>
 8000b6c:	2305      	movs	r3, #5
 8000b6e:	e008      	b.n	8000b82 <HAL_GPIO_Init+0x206>
 8000b70:	2304      	movs	r3, #4
 8000b72:	e006      	b.n	8000b82 <HAL_GPIO_Init+0x206>
 8000b74:	2303      	movs	r3, #3
 8000b76:	e004      	b.n	8000b82 <HAL_GPIO_Init+0x206>
 8000b78:	2302      	movs	r3, #2
 8000b7a:	e002      	b.n	8000b82 <HAL_GPIO_Init+0x206>
 8000b7c:	2301      	movs	r3, #1
 8000b7e:	e000      	b.n	8000b82 <HAL_GPIO_Init+0x206>
 8000b80:	2300      	movs	r3, #0
 8000b82:	697a      	ldr	r2, [r7, #20]
 8000b84:	f002 0203 	and.w	r2, r2, #3
 8000b88:	0092      	lsls	r2, r2, #2
 8000b8a:	4093      	lsls	r3, r2
 8000b8c:	693a      	ldr	r2, [r7, #16]
 8000b8e:	4313      	orrs	r3, r2
 8000b90:	613b      	str	r3, [r7, #16]
        SYSCFG->EXTICR[position >> 2u] = temp;
 8000b92:	4937      	ldr	r1, [pc, #220]	; (8000c70 <HAL_GPIO_Init+0x2f4>)
 8000b94:	697b      	ldr	r3, [r7, #20]
 8000b96:	089b      	lsrs	r3, r3, #2
 8000b98:	3302      	adds	r3, #2
 8000b9a:	693a      	ldr	r2, [r7, #16]
 8000b9c:	f841 2023 	str.w	r2, [r1, r3, lsl #2]

        /* Clear Rising Falling edge configuration */
        temp = EXTI->RTSR;
 8000ba0:	4b3a      	ldr	r3, [pc, #232]	; (8000c8c <HAL_GPIO_Init+0x310>)
 8000ba2:	689b      	ldr	r3, [r3, #8]
 8000ba4:	613b      	str	r3, [r7, #16]
        temp &= ~(iocurrent);
 8000ba6:	68fb      	ldr	r3, [r7, #12]
 8000ba8:	43db      	mvns	r3, r3
 8000baa:	693a      	ldr	r2, [r7, #16]
 8000bac:	4013      	ands	r3, r2
 8000bae:	613b      	str	r3, [r7, #16]
        if((GPIO_Init->Mode & TRIGGER_RISING) != 0x00u)
 8000bb0:	683b      	ldr	r3, [r7, #0]
 8000bb2:	685b      	ldr	r3, [r3, #4]
 8000bb4:	f403 1380 	and.w	r3, r3, #1048576	; 0x100000
 8000bb8:	2b00      	cmp	r3, #0
 8000bba:	d003      	beq.n	8000bc4 <HAL_GPIO_Init+0x248>
        {
          temp |= iocurrent;
 8000bbc:	693a      	ldr	r2, [r7, #16]
 8000bbe:	68fb      	ldr	r3, [r7, #12]
 8000bc0:	4313      	orrs	r3, r2
 8000bc2:	613b      	str	r3, [r7, #16]
        }
        EXTI->RTSR = temp;
 8000bc4:	4a31      	ldr	r2, [pc, #196]	; (8000c8c <HAL_GPIO_Init+0x310>)
 8000bc6:	693b      	ldr	r3, [r7, #16]
 8000bc8:	6093      	str	r3, [r2, #8]

        temp = EXTI->FTSR;
 8000bca:	4b30      	ldr	r3, [pc, #192]	; (8000c8c <HAL_GPIO_Init+0x310>)
 8000bcc:	68db      	ldr	r3, [r3, #12]
 8000bce:	613b      	str	r3, [r7, #16]
        temp &= ~(iocurrent);
 8000bd0:	68fb      	ldr	r3, [r7, #12]
 8000bd2:	43db      	mvns	r3, r3
 8000bd4:	693a      	ldr	r2, [r7, #16]
 8000bd6:	4013      	ands	r3, r2
 8000bd8:	613b      	str	r3, [r7, #16]
        if((GPIO_Init->Mode & TRIGGER_FALLING) != 0x00u)
 8000bda:	683b      	ldr	r3, [r7, #0]
 8000bdc:	685b      	ldr	r3, [r3, #4]
 8000bde:	f403 1300 	and.w	r3, r3, #2097152	; 0x200000
 8000be2:	2b00      	cmp	r3, #0
 8000be4:	d003      	beq.n	8000bee <HAL_GPIO_Init+0x272>
        {
          temp |= iocurrent;
 8000be6:	693a      	ldr	r2, [r7, #16]
 8000be8:	68fb      	ldr	r3, [r7, #12]
 8000bea:	4313      	orrs	r3, r2
 8000bec:	613b      	str	r3, [r7, #16]
        }
        EXTI->FTSR = temp;
 8000bee:	4a27      	ldr	r2, [pc, #156]	; (8000c8c <HAL_GPIO_Init+0x310>)
 8000bf0:	693b      	ldr	r3, [r7, #16]
 8000bf2:	60d3      	str	r3, [r2, #12]

        temp = EXTI->EMR;
 8000bf4:	4b25      	ldr	r3, [pc, #148]	; (8000c8c <HAL_GPIO_Init+0x310>)
 8000bf6:	685b      	ldr	r3, [r3, #4]
 8000bf8:	613b      	str	r3, [r7, #16]
        temp &= ~(iocurrent);
 8000bfa:	68fb      	ldr	r3, [r7, #12]
 8000bfc:	43db      	mvns	r3, r3
 8000bfe:	693a      	ldr	r2, [r7, #16]
 8000c00:	4013      	ands	r3, r2
 8000c02:	613b      	str	r3, [r7, #16]
        if((GPIO_Init->Mode & EXTI_EVT) != 0x00u)
 8000c04:	683b      	ldr	r3, [r7, #0]
 8000c06:	685b      	ldr	r3, [r3, #4]
 8000c08:	f403 3300 	and.w	r3, r3, #131072	; 0x20000
 8000c0c:	2b00      	cmp	r3, #0
 8000c0e:	d003      	beq.n	8000c18 <HAL_GPIO_Init+0x29c>
        {
          temp |= iocurrent;
 8000c10:	693a      	ldr	r2, [r7, #16]
 8000c12:	68fb      	ldr	r3, [r7, #12]
 8000c14:	4313      	orrs	r3, r2
 8000c16:	613b      	str	r3, [r7, #16]
        }
        EXTI->EMR = temp;
 8000c18:	4a1c      	ldr	r2, [pc, #112]	; (8000c8c <HAL_GPIO_Init+0x310>)
 8000c1a:	693b      	ldr	r3, [r7, #16]
 8000c1c:	6053      	str	r3, [r2, #4]

        /* Clear EXTI line configuration */
        temp = EXTI->IMR;
 8000c1e:	4b1b      	ldr	r3, [pc, #108]	; (8000c8c <HAL_GPIO_Init+0x310>)
 8000c20:	681b      	ldr	r3, [r3, #0]
 8000c22:	613b      	str	r3, [r7, #16]
        temp &= ~(iocurrent);
 8000c24:	68fb      	ldr	r3, [r7, #12]
 8000c26:	43db      	mvns	r3, r3
 8000c28:	693a      	ldr	r2, [r7, #16]
 8000c2a:	4013      	ands	r3, r2
 8000c2c:	613b      	str	r3, [r7, #16]
        if((GPIO_Init->Mode & EXTI_IT) != 0x00u)
 8000c2e:	683b      	ldr	r3, [r7, #0]
 8000c30:	685b      	ldr	r3, [r3, #4]
 8000c32:	f403 3380 	and.w	r3, r3, #65536	; 0x10000
 8000c36:	2b00      	cmp	r3, #0
 8000c38:	d003      	beq.n	8000c42 <HAL_GPIO_Init+0x2c6>
        {
          temp |= iocurrent;
 8000c3a:	693a      	ldr	r2, [r7, #16]
 8000c3c:	68fb      	ldr	r3, [r7, #12]
 8000c3e:	4313      	orrs	r3, r2
 8000c40:	613b      	str	r3, [r7, #16]
        }
        EXTI->IMR = temp;
 8000c42:	4a12      	ldr	r2, [pc, #72]	; (8000c8c <HAL_GPIO_Init+0x310>)
 8000c44:	693b      	ldr	r3, [r7, #16]
 8000c46:	6013      	str	r3, [r2, #0]
      }
    }

    position++;
 8000c48:	697b      	ldr	r3, [r7, #20]
 8000c4a:	3301      	adds	r3, #1
 8000c4c:	617b      	str	r3, [r7, #20]
  while (((GPIO_Init->Pin) >> position) != 0x00u)
 8000c4e:	683b      	ldr	r3, [r7, #0]
 8000c50:	681a      	ldr	r2, [r3, #0]
 8000c52:	697b      	ldr	r3, [r7, #20]
 8000c54:	fa22 f303 	lsr.w	r3, r2, r3
 8000c58:	2b00      	cmp	r3, #0
 8000c5a:	f47f ae97 	bne.w	800098c <HAL_GPIO_Init+0x10>
  }
}
 8000c5e:	bf00      	nop
 8000c60:	bf00      	nop
 8000c62:	371c      	adds	r7, #28
 8000c64:	46bd      	mov	sp, r7
 8000c66:	f85d 7b04 	ldr.w	r7, [sp], #4
 8000c6a:	4770      	bx	lr
 8000c6c:	40021000 	.word	0x40021000
 8000c70:	40010000 	.word	0x40010000
 8000c74:	48000400 	.word	0x48000400
 8000c78:	48000800 	.word	0x48000800
 8000c7c:	48000c00 	.word	0x48000c00
 8000c80:	48001000 	.word	0x48001000
 8000c84:	48001400 	.word	0x48001400
 8000c88:	48001800 	.word	0x48001800
 8000c8c:	40010400 	.word	0x40010400

08000c90 <HAL_RCC_OscConfig>:
  *         supported by this macro. User should request a transition to HSE Off
  *         first and then HSE On or HSE Bypass.
  * @retval HAL status
  */
HAL_StatusTypeDef HAL_RCC_OscConfig(RCC_OscInitTypeDef  *RCC_OscInitStruct)
{
 8000c90:	b580      	push	{r7, lr}
 8000c92:	f5ad 7d02 	sub.w	sp, sp, #520	; 0x208
 8000c96:	af00      	add	r7, sp, #0
 8000c98:	f507 7302 	add.w	r3, r7, #520	; 0x208
 8000c9c:	f5a3 7301 	sub.w	r3, r3, #516	; 0x204
 8000ca0:	6018      	str	r0, [r3, #0]
#if defined(RCC_CFGR_PLLSRC_HSI_PREDIV)
  uint32_t pll_config2;
#endif /* RCC_CFGR_PLLSRC_HSI_PREDIV */

  /* Check Null pointer */
  if(RCC_OscInitStruct == NULL)
 8000ca2:	f507 7302 	add.w	r3, r7, #520	; 0x208
 8000ca6:	f5a3 7301 	sub.w	r3, r3, #516	; 0x204
 8000caa:	681b      	ldr	r3, [r3, #0]
 8000cac:	2b00      	cmp	r3, #0
 8000cae:	d102      	bne.n	8000cb6 <HAL_RCC_OscConfig+0x26>
  {
    return HAL_ERROR;
 8000cb0:	2301      	movs	r3, #1
 8000cb2:	f001 b83a 	b.w	8001d2a <HAL_RCC_OscConfig+0x109a>

  /* Check the parameters */
  assert_param(IS_RCC_OSCILLATORTYPE(RCC_OscInitStruct->OscillatorType));

  /*------------------------------- HSE Configuration ------------------------*/ 
  if(((RCC_OscInitStruct->OscillatorType) & RCC_OSCILLATORTYPE_HSE) == RCC_OSCILLATORTYPE_HSE)
 8000cb6:	f507 7302 	add.w	r3, r7, #520	; 0x208
 8000cba:	f5a3 7301 	sub.w	r3, r3, #516	; 0x204
 8000cbe:	681b      	ldr	r3, [r3, #0]
 8000cc0:	681b      	ldr	r3, [r3, #0]
 8000cc2:	f003 0301 	and.w	r3, r3, #1
 8000cc6:	2b00      	cmp	r3, #0
 8000cc8:	f000 816f 	beq.w	8000faa <HAL_RCC_OscConfig+0x31a>
  {
    /* Check the parameters */
    assert_param(IS_RCC_HSE(RCC_OscInitStruct->HSEState));

    /* When the HSE is used as system clock or clock source for PLL in these cases it is not allowed to be disabled */
    if((__HAL_RCC_GET_SYSCLK_SOURCE() == RCC_SYSCLKSOURCE_STATUS_HSE) 
 8000ccc:	4bb5      	ldr	r3, [pc, #724]	; (8000fa4 <HAL_RCC_OscConfig+0x314>)
 8000cce:	685b      	ldr	r3, [r3, #4]
 8000cd0:	f003 030c 	and.w	r3, r3, #12
 8000cd4:	2b04      	cmp	r3, #4
 8000cd6:	d00c      	beq.n	8000cf2 <HAL_RCC_OscConfig+0x62>
       || ((__HAL_RCC_GET_SYSCLK_SOURCE() == RCC_SYSCLKSOURCE_STATUS_PLLCLK) && (__HAL_RCC_GET_PLL_OSCSOURCE() == RCC_PLLSOURCE_HSE)))
 8000cd8:	4bb2      	ldr	r3, [pc, #712]	; (8000fa4 <HAL_RCC_OscConfig+0x314>)
 8000cda:	685b      	ldr	r3, [r3, #4]
 8000cdc:	f003 030c 	and.w	r3, r3, #12
 8000ce0:	2b08      	cmp	r3, #8
 8000ce2:	d15c      	bne.n	8000d9e <HAL_RCC_OscConfig+0x10e>
 8000ce4:	4baf      	ldr	r3, [pc, #700]	; (8000fa4 <HAL_RCC_OscConfig+0x314>)
 8000ce6:	685b      	ldr	r3, [r3, #4]
 8000ce8:	f403 33c0 	and.w	r3, r3, #98304	; 0x18000
 8000cec:	f5b3 3f80 	cmp.w	r3, #65536	; 0x10000
 8000cf0:	d155      	bne.n	8000d9e <HAL_RCC_OscConfig+0x10e>
 8000cf2:	f44f 3300 	mov.w	r3, #131072	; 0x20000
 8000cf6:	f8c7 31f4 	str.w	r3, [r7, #500]	; 0x1f4
  uint32_t result;

#if ((defined (__ARM_ARCH_7M__      ) && (__ARM_ARCH_7M__      == 1)) || \
     (defined (__ARM_ARCH_7EM__     ) && (__ARM_ARCH_7EM__     == 1)) || \
     (defined (__ARM_ARCH_8M_MAIN__ ) && (__ARM_ARCH_8M_MAIN__ == 1))    )
   __ASM volatile ("rbit %0, %1" : "=r" (result) : "r" (value) );
 8000cfa:	f8d7 31f4 	ldr.w	r3, [r7, #500]	; 0x1f4
 8000cfe:	fa93 f3a3 	rbit	r3, r3
 8000d02:	f8c7 31f0 	str.w	r3, [r7, #496]	; 0x1f0
    result |= value & 1U;
    s--;
  }
  result <<= s;                        /* shift when v's highest bits are zero */
#endif
  return result;
 8000d06:	f8d7 31f0 	ldr.w	r3, [r7, #496]	; 0x1f0
    {
      if((__HAL_RCC_GET_FLAG(RCC_FLAG_HSERDY) != RESET) && (RCC_OscInitStruct->HSEState == RCC_HSE_OFF))
 8000d0a:	fab3 f383 	clz	r3, r3
 8000d0e:	b2db      	uxtb	r3, r3
 8000d10:	095b      	lsrs	r3, r3, #5
 8000d12:	b2db      	uxtb	r3, r3
 8000d14:	f043 0301 	orr.w	r3, r3, #1
 8000d18:	b2db      	uxtb	r3, r3
 8000d1a:	2b01      	cmp	r3, #1
 8000d1c:	d102      	bne.n	8000d24 <HAL_RCC_OscConfig+0x94>
 8000d1e:	4ba1      	ldr	r3, [pc, #644]	; (8000fa4 <HAL_RCC_OscConfig+0x314>)
 8000d20:	681b      	ldr	r3, [r3, #0]
 8000d22:	e015      	b.n	8000d50 <HAL_RCC_OscConfig+0xc0>
 8000d24:	f44f 3300 	mov.w	r3, #131072	; 0x20000
 8000d28:	f8c7 31ec 	str.w	r3, [r7, #492]	; 0x1ec
   __ASM volatile ("rbit %0, %1" : "=r" (result) : "r" (value) );
 8000d2c:	f8d7 31ec 	ldr.w	r3, [r7, #492]	; 0x1ec
 8000d30:	fa93 f3a3 	rbit	r3, r3
 8000d34:	f8c7 31e8 	str.w	r3, [r7, #488]	; 0x1e8
 8000d38:	f44f 3300 	mov.w	r3, #131072	; 0x20000
 8000d3c:	f8c7 31e4 	str.w	r3, [r7, #484]	; 0x1e4
 8000d40:	f8d7 31e4 	ldr.w	r3, [r7, #484]	; 0x1e4
 8000d44:	fa93 f3a3 	rbit	r3, r3
 8000d48:	f8c7 31e0 	str.w	r3, [r7, #480]	; 0x1e0
 8000d4c:	4b95      	ldr	r3, [pc, #596]	; (8000fa4 <HAL_RCC_OscConfig+0x314>)
 8000d4e:	6a5b      	ldr	r3, [r3, #36]	; 0x24
 8000d50:	f44f 3200 	mov.w	r2, #131072	; 0x20000
 8000d54:	f8c7 21dc 	str.w	r2, [r7, #476]	; 0x1dc
 8000d58:	f8d7 21dc 	ldr.w	r2, [r7, #476]	; 0x1dc
 8000d5c:	fa92 f2a2 	rbit	r2, r2
 8000d60:	f8c7 21d8 	str.w	r2, [r7, #472]	; 0x1d8
  return result;
 8000d64:	f8d7 21d8 	ldr.w	r2, [r7, #472]	; 0x1d8
 8000d68:	fab2 f282 	clz	r2, r2
 8000d6c:	b2d2      	uxtb	r2, r2
 8000d6e:	f042 0220 	orr.w	r2, r2, #32
 8000d72:	b2d2      	uxtb	r2, r2
 8000d74:	f002 021f 	and.w	r2, r2, #31
 8000d78:	2101      	movs	r1, #1
 8000d7a:	fa01 f202 	lsl.w	r2, r1, r2
 8000d7e:	4013      	ands	r3, r2
 8000d80:	2b00      	cmp	r3, #0
 8000d82:	f000 8111 	beq.w	8000fa8 <HAL_RCC_OscConfig+0x318>
 8000d86:	f507 7302 	add.w	r3, r7, #520	; 0x208
 8000d8a:	f5a3 7301 	sub.w	r3, r3, #516	; 0x204
 8000d8e:	681b      	ldr	r3, [r3, #0]
 8000d90:	685b      	ldr	r3, [r3, #4]
 8000d92:	2b00      	cmp	r3, #0
 8000d94:	f040 8108 	bne.w	8000fa8 <HAL_RCC_OscConfig+0x318>
      {
        return HAL_ERROR;
 8000d98:	2301      	movs	r3, #1
 8000d9a:	f000 bfc6 	b.w	8001d2a <HAL_RCC_OscConfig+0x109a>
      }
    }
    else
    {
      /* Set the new HSE configuration ---------------------------------------*/
      __HAL_RCC_HSE_CONFIG(RCC_OscInitStruct->HSEState);
 8000d9e:	f507 7302 	add.w	r3, r7, #520	; 0x208
 8000da2:	f5a3 7301 	sub.w	r3, r3, #516	; 0x204
 8000da6:	681b      	ldr	r3, [r3, #0]
 8000da8:	685b      	ldr	r3, [r3, #4]
 8000daa:	f5b3 3f80 	cmp.w	r3, #65536	; 0x10000
 8000dae:	d106      	bne.n	8000dbe <HAL_RCC_OscConfig+0x12e>
 8000db0:	4b7c      	ldr	r3, [pc, #496]	; (8000fa4 <HAL_RCC_OscConfig+0x314>)
 8000db2:	681b      	ldr	r3, [r3, #0]
 8000db4:	4a7b      	ldr	r2, [pc, #492]	; (8000fa4 <HAL_RCC_OscConfig+0x314>)
 8000db6:	f443 3380 	orr.w	r3, r3, #65536	; 0x10000
 8000dba:	6013      	str	r3, [r2, #0]
 8000dbc:	e036      	b.n	8000e2c <HAL_RCC_OscConfig+0x19c>
 8000dbe:	f507 7302 	add.w	r3, r7, #520	; 0x208
 8000dc2:	f5a3 7301 	sub.w	r3, r3, #516	; 0x204
 8000dc6:	681b      	ldr	r3, [r3, #0]
 8000dc8:	685b      	ldr	r3, [r3, #4]
 8000dca:	2b00      	cmp	r3, #0
 8000dcc:	d10c      	bne.n	8000de8 <HAL_RCC_OscConfig+0x158>
 8000dce:	4b75      	ldr	r3, [pc, #468]	; (8000fa4 <HAL_RCC_OscConfig+0x314>)
 8000dd0:	681b      	ldr	r3, [r3, #0]
 8000dd2:	4a74      	ldr	r2, [pc, #464]	; (8000fa4 <HAL_RCC_OscConfig+0x314>)
 8000dd4:	f423 3380 	bic.w	r3, r3, #65536	; 0x10000
 8000dd8:	6013      	str	r3, [r2, #0]
 8000dda:	4b72      	ldr	r3, [pc, #456]	; (8000fa4 <HAL_RCC_OscConfig+0x314>)
 8000ddc:	681b      	ldr	r3, [r3, #0]
 8000dde:	4a71      	ldr	r2, [pc, #452]	; (8000fa4 <HAL_RCC_OscConfig+0x314>)
 8000de0:	f423 2380 	bic.w	r3, r3, #262144	; 0x40000
 8000de4:	6013      	str	r3, [r2, #0]
 8000de6:	e021      	b.n	8000e2c <HAL_RCC_OscConfig+0x19c>
 8000de8:	f507 7302 	add.w	r3, r7, #520	; 0x208
 8000dec:	f5a3 7301 	sub.w	r3, r3, #516	; 0x204
 8000df0:	681b      	ldr	r3, [r3, #0]
 8000df2:	685b      	ldr	r3, [r3, #4]
 8000df4:	f5b3 2fa0 	cmp.w	r3, #327680	; 0x50000
 8000df8:	d10c      	bne.n	8000e14 <HAL_RCC_OscConfig+0x184>
 8000dfa:	4b6a      	ldr	r3, [pc, #424]	; (8000fa4 <HAL_RCC_OscConfig+0x314>)
 8000dfc:	681b      	ldr	r3, [r3, #0]
 8000dfe:	4a69      	ldr	r2, [pc, #420]	; (8000fa4 <HAL_RCC_OscConfig+0x314>)
 8000e00:	f443 2380 	orr.w	r3, r3, #262144	; 0x40000
 8000e04:	6013      	str	r3, [r2, #0]
 8000e06:	4b67      	ldr	r3, [pc, #412]	; (8000fa4 <HAL_RCC_OscConfig+0x314>)
 8000e08:	681b      	ldr	r3, [r3, #0]
 8000e0a:	4a66      	ldr	r2, [pc, #408]	; (8000fa4 <HAL_RCC_OscConfig+0x314>)
 8000e0c:	f443 3380 	orr.w	r3, r3, #65536	; 0x10000
 8000e10:	6013      	str	r3, [r2, #0]
 8000e12:	e00b      	b.n	8000e2c <HAL_RCC_OscConfig+0x19c>
 8000e14:	4b63      	ldr	r3, [pc, #396]	; (8000fa4 <HAL_RCC_OscConfig+0x314>)
 8000e16:	681b      	ldr	r3, [r3, #0]
 8000e18:	4a62      	ldr	r2, [pc, #392]	; (8000fa4 <HAL_RCC_OscConfig+0x314>)
 8000e1a:	f423 3380 	bic.w	r3, r3, #65536	; 0x10000
 8000e1e:	6013      	str	r3, [r2, #0]
 8000e20:	4b60      	ldr	r3, [pc, #384]	; (8000fa4 <HAL_RCC_OscConfig+0x314>)
 8000e22:	681b      	ldr	r3, [r3, #0]
 8000e24:	4a5f      	ldr	r2, [pc, #380]	; (8000fa4 <HAL_RCC_OscConfig+0x314>)
 8000e26:	f423 2380 	bic.w	r3, r3, #262144	; 0x40000
 8000e2a:	6013      	str	r3, [r2, #0]
      /* Configure the HSE predivision factor --------------------------------*/
      __HAL_RCC_HSE_PREDIV_CONFIG(RCC_OscInitStruct->HSEPredivValue);
#endif /* RCC_CFGR_PLLSRC_HSI_DIV2 */

       /* Check the HSE State */
      if(RCC_OscInitStruct->HSEState != RCC_HSE_OFF)
 8000e2c:	f507 7302 	add.w	r3, r7, #520	; 0x208
 8000e30:	f5a3 7301 	sub.w	r3, r3, #516	; 0x204
 8000e34:	681b      	ldr	r3, [r3, #0]
 8000e36:	685b      	ldr	r3, [r3, #4]
 8000e38:	2b00      	cmp	r3, #0
 8000e3a:	d059      	beq.n	8000ef0 <HAL_RCC_OscConfig+0x260>
      {
        /* Get Start Tick */
        tickstart = HAL_GetTick();
 8000e3c:	f7ff fcac 	bl	8000798 <HAL_GetTick>
 8000e40:	f8c7 0200 	str.w	r0, [r7, #512]	; 0x200
        
        /* Wait till HSE is ready */
        while(__HAL_RCC_GET_FLAG(RCC_FLAG_HSERDY) == RESET)
 8000e44:	e00a      	b.n	8000e5c <HAL_RCC_OscConfig+0x1cc>
        {
          if((HAL_GetTick() - tickstart ) > HSE_TIMEOUT_VALUE)
 8000e46:	f7ff fca7 	bl	8000798 <HAL_GetTick>
 8000e4a:	4602      	mov	r2, r0
 8000e4c:	f8d7 3200 	ldr.w	r3, [r7, #512]	; 0x200
 8000e50:	1ad3      	subs	r3, r2, r3
 8000e52:	2b64      	cmp	r3, #100	; 0x64
 8000e54:	d902      	bls.n	8000e5c <HAL_RCC_OscConfig+0x1cc>
          {
            return HAL_TIMEOUT;
 8000e56:	2303      	movs	r3, #3
 8000e58:	f000 bf67 	b.w	8001d2a <HAL_RCC_OscConfig+0x109a>
 8000e5c:	f44f 3300 	mov.w	r3, #131072	; 0x20000
 8000e60:	f8c7 31d4 	str.w	r3, [r7, #468]	; 0x1d4
   __ASM volatile ("rbit %0, %1" : "=r" (result) : "r" (value) );
 8000e64:	f8d7 31d4 	ldr.w	r3, [r7, #468]	; 0x1d4
 8000e68:	fa93 f3a3 	rbit	r3, r3
 8000e6c:	f8c7 31d0 	str.w	r3, [r7, #464]	; 0x1d0
  return result;
 8000e70:	f8d7 31d0 	ldr.w	r3, [r7, #464]	; 0x1d0
        while(__HAL_RCC_GET_FLAG(RCC_FLAG_HSERDY) == RESET)
 8000e74:	fab3 f383 	clz	r3, r3
 8000e78:	b2db      	uxtb	r3, r3
 8000e7a:	095b      	lsrs	r3, r3, #5
 8000e7c:	b2db      	uxtb	r3, r3
 8000e7e:	f043 0301 	orr.w	r3, r3, #1
 8000e82:	b2db      	uxtb	r3, r3
 8000e84:	2b01      	cmp	r3, #1
 8000e86:	d102      	bne.n	8000e8e <HAL_RCC_OscConfig+0x1fe>
 8000e88:	4b46      	ldr	r3, [pc, #280]	; (8000fa4 <HAL_RCC_OscConfig+0x314>)
 8000e8a:	681b      	ldr	r3, [r3, #0]
 8000e8c:	e015      	b.n	8000eba <HAL_RCC_OscConfig+0x22a>
 8000e8e:	f44f 3300 	mov.w	r3, #131072	; 0x20000
 8000e92:	f8c7 31cc 	str.w	r3, [r7, #460]	; 0x1cc
   __ASM volatile ("rbit %0, %1" : "=r" (result) : "r" (value) );
 8000e96:	f8d7 31cc 	ldr.w	r3, [r7, #460]	; 0x1cc
 8000e9a:	fa93 f3a3 	rbit	r3, r3
 8000e9e:	f8c7 31c8 	str.w	r3, [r7, #456]	; 0x1c8
 8000ea2:	f44f 3300 	mov.w	r3, #131072	; 0x20000
 8000ea6:	f8c7 31c4 	str.w	r3, [r7, #452]	; 0x1c4
 8000eaa:	f8d7 31c4 	ldr.w	r3, [r7, #452]	; 0x1c4
 8000eae:	fa93 f3a3 	rbit	r3, r3
 8000eb2:	f8c7 31c0 	str.w	r3, [r7, #448]	; 0x1c0
 8000eb6:	4b3b      	ldr	r3, [pc, #236]	; (8000fa4 <HAL_RCC_OscConfig+0x314>)
 8000eb8:	6a5b      	ldr	r3, [r3, #36]	; 0x24
 8000eba:	f44f 3200 	mov.w	r2, #131072	; 0x20000
 8000ebe:	f8c7 21bc 	str.w	r2, [r7, #444]	; 0x1bc
 8000ec2:	f8d7 21bc 	ldr.w	r2, [r7, #444]	; 0x1bc
 8000ec6:	fa92 f2a2 	rbit	r2, r2
 8000eca:	f8c7 21b8 	str.w	r2, [r7, #440]	; 0x1b8
  return result;
 8000ece:	f8d7 21b8 	ldr.w	r2, [r7, #440]	; 0x1b8
 8000ed2:	fab2 f282 	clz	r2, r2
 8000ed6:	b2d2      	uxtb	r2, r2
 8000ed8:	f042 0220 	orr.w	r2, r2, #32
 8000edc:	b2d2      	uxtb	r2, r2
 8000ede:	f002 021f 	and.w	r2, r2, #31
 8000ee2:	2101      	movs	r1, #1
 8000ee4:	fa01 f202 	lsl.w	r2, r1, r2
 8000ee8:	4013      	ands	r3, r2
 8000eea:	2b00      	cmp	r3, #0
 8000eec:	d0ab      	beq.n	8000e46 <HAL_RCC_OscConfig+0x1b6>
 8000eee:	e05c      	b.n	8000faa <HAL_RCC_OscConfig+0x31a>
        }
      }
      else
      {
        /* Get Start Tick */
        tickstart = HAL_GetTick();
 8000ef0:	f7ff fc52 	bl	8000798 <HAL_GetTick>
 8000ef4:	f8c7 0200 	str.w	r0, [r7, #512]	; 0x200
        
        /* Wait till HSE is disabled */
        while(__HAL_RCC_GET_FLAG(RCC_FLAG_HSERDY) != RESET)
 8000ef8:	e00a      	b.n	8000f10 <HAL_RCC_OscConfig+0x280>
        {
           if((HAL_GetTick() - tickstart ) > HSE_TIMEOUT_VALUE)
 8000efa:	f7ff fc4d 	bl	8000798 <HAL_GetTick>
 8000efe:	4602      	mov	r2, r0
 8000f00:	f8d7 3200 	ldr.w	r3, [r7, #512]	; 0x200
 8000f04:	1ad3      	subs	r3, r2, r3
 8000f06:	2b64      	cmp	r3, #100	; 0x64
 8000f08:	d902      	bls.n	8000f10 <HAL_RCC_OscConfig+0x280>
          {
            return HAL_TIMEOUT;
 8000f0a:	2303      	movs	r3, #3
 8000f0c:	f000 bf0d 	b.w	8001d2a <HAL_RCC_OscConfig+0x109a>
 8000f10:	f44f 3300 	mov.w	r3, #131072	; 0x20000
 8000f14:	f8c7 31b4 	str.w	r3, [r7, #436]	; 0x1b4
   __ASM volatile ("rbit %0, %1" : "=r" (result) : "r" (value) );
 8000f18:	f8d7 31b4 	ldr.w	r3, [r7, #436]	; 0x1b4
 8000f1c:	fa93 f3a3 	rbit	r3, r3
 8000f20:	f8c7 31b0 	str.w	r3, [r7, #432]	; 0x1b0
  return result;
 8000f24:	f8d7 31b0 	ldr.w	r3, [r7, #432]	; 0x1b0
        while(__HAL_RCC_GET_FLAG(RCC_FLAG_HSERDY) != RESET)
 8000f28:	fab3 f383 	clz	r3, r3
 8000f2c:	b2db      	uxtb	r3, r3
 8000f2e:	095b      	lsrs	r3, r3, #5
 8000f30:	b2db      	uxtb	r3, r3
 8000f32:	f043 0301 	orr.w	r3, r3, #1
 8000f36:	b2db      	uxtb	r3, r3
 8000f38:	2b01      	cmp	r3, #1
 8000f3a:	d102      	bne.n	8000f42 <HAL_RCC_OscConfig+0x2b2>
 8000f3c:	4b19      	ldr	r3, [pc, #100]	; (8000fa4 <HAL_RCC_OscConfig+0x314>)
 8000f3e:	681b      	ldr	r3, [r3, #0]
 8000f40:	e015      	b.n	8000f6e <HAL_RCC_OscConfig+0x2de>
 8000f42:	f44f 3300 	mov.w	r3, #131072	; 0x20000
 8000f46:	f8c7 31ac 	str.w	r3, [r7, #428]	; 0x1ac
   __ASM volatile ("rbit %0, %1" : "=r" (result) : "r" (value) );
 8000f4a:	f8d7 31ac 	ldr.w	r3, [r7, #428]	; 0x1ac
 8000f4e:	fa93 f3a3 	rbit	r3, r3
 8000f52:	f8c7 31a8 	str.w	r3, [r7, #424]	; 0x1a8
 8000f56:	f44f 3300 	mov.w	r3, #131072	; 0x20000
 8000f5a:	f8c7 31a4 	str.w	r3, [r7, #420]	; 0x1a4
 8000f5e:	f8d7 31a4 	ldr.w	r3, [r7, #420]	; 0x1a4
 8000f62:	fa93 f3a3 	rbit	r3, r3
 8000f66:	f8c7 31a0 	str.w	r3, [r7, #416]	; 0x1a0
 8000f6a:	4b0e      	ldr	r3, [pc, #56]	; (8000fa4 <HAL_RCC_OscConfig+0x314>)
 8000f6c:	6a5b      	ldr	r3, [r3, #36]	; 0x24
 8000f6e:	f44f 3200 	mov.w	r2, #131072	; 0x20000
 8000f72:	f8c7 219c 	str.w	r2, [r7, #412]	; 0x19c
 8000f76:	f8d7 219c 	ldr.w	r2, [r7, #412]	; 0x19c
 8000f7a:	fa92 f2a2 	rbit	r2, r2
 8000f7e:	f8c7 2198 	str.w	r2, [r7, #408]	; 0x198
  return result;
 8000f82:	f8d7 2198 	ldr.w	r2, [r7, #408]	; 0x198
 8000f86:	fab2 f282 	clz	r2, r2
 8000f8a:	b2d2      	uxtb	r2, r2
 8000f8c:	f042 0220 	orr.w	r2, r2, #32
 8000f90:	b2d2      	uxtb	r2, r2
 8000f92:	f002 021f 	and.w	r2, r2, #31
 8000f96:	2101      	movs	r1, #1
 8000f98:	fa01 f202 	lsl.w	r2, r1, r2
 8000f9c:	4013      	ands	r3, r2
 8000f9e:	2b00      	cmp	r3, #0
 8000fa0:	d1ab      	bne.n	8000efa <HAL_RCC_OscConfig+0x26a>
 8000fa2:	e002      	b.n	8000faa <HAL_RCC_OscConfig+0x31a>
 8000fa4:	40021000 	.word	0x40021000
      if((__HAL_RCC_GET_FLAG(RCC_FLAG_HSERDY) != RESET) && (RCC_OscInitStruct->HSEState == RCC_HSE_OFF))
 8000fa8:	bf00      	nop
        }
      }
    }
  }
  /*----------------------------- HSI Configuration --------------------------*/ 
  if(((RCC_OscInitStruct->OscillatorType) & RCC_OSCILLATORTYPE_HSI) == RCC_OSCILLATORTYPE_HSI)
 8000faa:	f507 7302 	add.w	r3, r7, #520	; 0x208
 8000fae:	f5a3 7301 	sub.w	r3, r3, #516	; 0x204
 8000fb2:	681b      	ldr	r3, [r3, #0]
 8000fb4:	681b      	ldr	r3, [r3, #0]
 8000fb6:	f003 0302 	and.w	r3, r3, #2
 8000fba:	2b00      	cmp	r3, #0
 8000fbc:	f000 817f 	beq.w	80012be <HAL_RCC_OscConfig+0x62e>
    /* Check the parameters */
    assert_param(IS_RCC_HSI(RCC_OscInitStruct->HSIState));
    assert_param(IS_RCC_CALIBRATION_VALUE(RCC_OscInitStruct->HSICalibrationValue));
    
    /* Check if HSI is used as system clock or as PLL source when PLL is selected as system clock */ 
    if((__HAL_RCC_GET_SYSCLK_SOURCE() == RCC_SYSCLKSOURCE_STATUS_HSI) 
 8000fc0:	4ba7      	ldr	r3, [pc, #668]	; (8001260 <HAL_RCC_OscConfig+0x5d0>)
 8000fc2:	685b      	ldr	r3, [r3, #4]
 8000fc4:	f003 030c 	and.w	r3, r3, #12
 8000fc8:	2b00      	cmp	r3, #0
 8000fca:	d00c      	beq.n	8000fe6 <HAL_RCC_OscConfig+0x356>
       || ((__HAL_RCC_GET_SYSCLK_SOURCE() == RCC_SYSCLKSOURCE_STATUS_PLLCLK) && (__HAL_RCC_GET_PLL_OSCSOURCE() == RCC_PLLSOURCE_HSI)))
 8000fcc:	4ba4      	ldr	r3, [pc, #656]	; (8001260 <HAL_RCC_OscConfig+0x5d0>)
 8000fce:	685b      	ldr	r3, [r3, #4]
 8000fd0:	f003 030c 	and.w	r3, r3, #12
 8000fd4:	2b08      	cmp	r3, #8
 8000fd6:	d173      	bne.n	80010c0 <HAL_RCC_OscConfig+0x430>
 8000fd8:	4ba1      	ldr	r3, [pc, #644]	; (8001260 <HAL_RCC_OscConfig+0x5d0>)
 8000fda:	685b      	ldr	r3, [r3, #4]
 8000fdc:	f403 33c0 	and.w	r3, r3, #98304	; 0x18000
 8000fe0:	f5b3 4f00 	cmp.w	r3, #32768	; 0x8000
 8000fe4:	d16c      	bne.n	80010c0 <HAL_RCC_OscConfig+0x430>
 8000fe6:	2302      	movs	r3, #2
 8000fe8:	f8c7 3194 	str.w	r3, [r7, #404]	; 0x194
   __ASM volatile ("rbit %0, %1" : "=r" (result) : "r" (value) );
 8000fec:	f8d7 3194 	ldr.w	r3, [r7, #404]	; 0x194
 8000ff0:	fa93 f3a3 	rbit	r3, r3
 8000ff4:	f8c7 3190 	str.w	r3, [r7, #400]	; 0x190
  return result;
 8000ff8:	f8d7 3190 	ldr.w	r3, [r7, #400]	; 0x190
    {
      /* When HSI is used as system clock it will not disabled */
      if((__HAL_RCC_GET_FLAG(RCC_FLAG_HSIRDY) != RESET) && (RCC_OscInitStruct->HSIState != RCC_HSI_ON))
 8000ffc:	fab3 f383 	clz	r3, r3
 8001000:	b2db      	uxtb	r3, r3
 8001002:	095b      	lsrs	r3, r3, #5
 8001004:	b2db      	uxtb	r3, r3
 8001006:	f043 0301 	orr.w	r3, r3, #1
 800100a:	b2db      	uxtb	r3, r3
 800100c:	2b01      	cmp	r3, #1
 800100e:	d102      	bne.n	8001016 <HAL_RCC_OscConfig+0x386>
 8001010:	4b93      	ldr	r3, [pc, #588]	; (8001260 <HAL_RCC_OscConfig+0x5d0>)
 8001012:	681b      	ldr	r3, [r3, #0]
 8001014:	e013      	b.n	800103e <HAL_RCC_OscConfig+0x3ae>
 8001016:	2302      	movs	r3, #2
 8001018:	f8c7 318c 	str.w	r3, [r7, #396]	; 0x18c
   __ASM volatile ("rbit %0, %1" : "=r" (result) : "r" (value) );
 800101c:	f8d7 318c 	ldr.w	r3, [r7, #396]	; 0x18c
 8001020:	fa93 f3a3 	rbit	r3, r3
 8001024:	f8c7 3188 	str.w	r3, [r7, #392]	; 0x188
 8001028:	2302      	movs	r3, #2
 800102a:	f8c7 3184 	str.w	r3, [r7, #388]	; 0x184
 800102e:	f8d7 3184 	ldr.w	r3, [r7, #388]	; 0x184
 8001032:	fa93 f3a3 	rbit	r3, r3
 8001036:	f8c7 3180 	str.w	r3, [r7, #384]	; 0x180
 800103a:	4b89      	ldr	r3, [pc, #548]	; (8001260 <HAL_RCC_OscConfig+0x5d0>)
 800103c:	6a5b      	ldr	r3, [r3, #36]	; 0x24
 800103e:	2202      	movs	r2, #2
 8001040:	f8c7 217c 	str.w	r2, [r7, #380]	; 0x17c
 8001044:	f8d7 217c 	ldr.w	r2, [r7, #380]	; 0x17c
 8001048:	fa92 f2a2 	rbit	r2, r2
 800104c:	f8c7 2178 	str.w	r2, [r7, #376]	; 0x178
  return result;
 8001050:	f8d7 2178 	ldr.w	r2, [r7, #376]	; 0x178
 8001054:	fab2 f282 	clz	r2, r2
 8001058:	b2d2      	uxtb	r2, r2
 800105a:	f042 0220 	orr.w	r2, r2, #32
 800105e:	b2d2      	uxtb	r2, r2
 8001060:	f002 021f 	and.w	r2, r2, #31
 8001064:	2101      	movs	r1, #1
 8001066:	fa01 f202 	lsl.w	r2, r1, r2
 800106a:	4013      	ands	r3, r2
 800106c:	2b00      	cmp	r3, #0
 800106e:	d00a      	beq.n	8001086 <HAL_RCC_OscConfig+0x3f6>
 8001070:	f507 7302 	add.w	r3, r7, #520	; 0x208
 8001074:	f5a3 7301 	sub.w	r3, r3, #516	; 0x204
 8001078:	681b      	ldr	r3, [r3, #0]
 800107a:	68db      	ldr	r3, [r3, #12]
 800107c:	2b01      	cmp	r3, #1
 800107e:	d002      	beq.n	8001086 <HAL_RCC_OscConfig+0x3f6>
      {
        return HAL_ERROR;
 8001080:	2301      	movs	r3, #1
 8001082:	f000 be52 	b.w	8001d2a <HAL_RCC_OscConfig+0x109a>
      }
      /* Otherwise, just the calibration is allowed */
      else
      {
        /* Adjusts the Internal High Speed oscillator (HSI) calibration value.*/
        __HAL_RCC_HSI_CALIBRATIONVALUE_ADJUST(RCC_OscInitStruct->HSICalibrationValue);
 8001086:	4b76      	ldr	r3, [pc, #472]	; (8001260 <HAL_RCC_OscConfig+0x5d0>)
 8001088:	681b      	ldr	r3, [r3, #0]
 800108a:	f023 02f8 	bic.w	r2, r3, #248	; 0xf8
 800108e:	f507 7302 	add.w	r3, r7, #520	; 0x208
 8001092:	f5a3 7301 	sub.w	r3, r3, #516	; 0x204
 8001096:	681b      	ldr	r3, [r3, #0]
 8001098:	691b      	ldr	r3, [r3, #16]
 800109a:	21f8      	movs	r1, #248	; 0xf8
 800109c:	f8c7 1174 	str.w	r1, [r7, #372]	; 0x174
   __ASM volatile ("rbit %0, %1" : "=r" (result) : "r" (value) );
 80010a0:	f8d7 1174 	ldr.w	r1, [r7, #372]	; 0x174
 80010a4:	fa91 f1a1 	rbit	r1, r1
 80010a8:	f8c7 1170 	str.w	r1, [r7, #368]	; 0x170
  return result;
 80010ac:	f8d7 1170 	ldr.w	r1, [r7, #368]	; 0x170
 80010b0:	fab1 f181 	clz	r1, r1
 80010b4:	b2c9      	uxtb	r1, r1
 80010b6:	408b      	lsls	r3, r1
 80010b8:	4969      	ldr	r1, [pc, #420]	; (8001260 <HAL_RCC_OscConfig+0x5d0>)
 80010ba:	4313      	orrs	r3, r2
 80010bc:	600b      	str	r3, [r1, #0]
      if((__HAL_RCC_GET_FLAG(RCC_FLAG_HSIRDY) != RESET) && (RCC_OscInitStruct->HSIState != RCC_HSI_ON))
 80010be:	e0fe      	b.n	80012be <HAL_RCC_OscConfig+0x62e>
      }
    }
    else
    {
      /* Check the HSI State */
      if(RCC_OscInitStruct->HSIState != RCC_HSI_OFF)
 80010c0:	f507 7302 	add.w	r3, r7, #520	; 0x208
 80010c4:	f5a3 7301 	sub.w	r3, r3, #516	; 0x204
 80010c8:	681b      	ldr	r3, [r3, #0]
 80010ca:	68db      	ldr	r3, [r3, #12]
 80010cc:	2b00      	cmp	r3, #0
 80010ce:	f000 8088 	beq.w	80011e2 <HAL_RCC_OscConfig+0x552>
 80010d2:	2301      	movs	r3, #1
 80010d4:	f8c7 316c 	str.w	r3, [r7, #364]	; 0x16c
   __ASM volatile ("rbit %0, %1" : "=r" (result) : "r" (value) );
 80010d8:	f8d7 316c 	ldr.w	r3, [r7, #364]	; 0x16c
 80010dc:	fa93 f3a3 	rbit	r3, r3
 80010e0:	f8c7 3168 	str.w	r3, [r7, #360]	; 0x168
  return result;
 80010e4:	f8d7 3168 	ldr.w	r3, [r7, #360]	; 0x168
      {
       /* Enable the Internal High Speed oscillator (HSI). */
        __HAL_RCC_HSI_ENABLE();
 80010e8:	fab3 f383 	clz	r3, r3
 80010ec:	b2db      	uxtb	r3, r3
 80010ee:	f103 5384 	add.w	r3, r3, #276824064	; 0x10800000
 80010f2:	f503 1384 	add.w	r3, r3, #1081344	; 0x108000
 80010f6:	009b      	lsls	r3, r3, #2
 80010f8:	461a      	mov	r2, r3
 80010fa:	2301      	movs	r3, #1
 80010fc:	6013      	str	r3, [r2, #0]
        
        /* Get Start Tick */
        tickstart = HAL_GetTick();
 80010fe:	f7ff fb4b 	bl	8000798 <HAL_GetTick>
 8001102:	f8c7 0200 	str.w	r0, [r7, #512]	; 0x200
        
        /* Wait till HSI is ready */
        while(__HAL_RCC_GET_FLAG(RCC_FLAG_HSIRDY) == RESET)
 8001106:	e00a      	b.n	800111e <HAL_RCC_OscConfig+0x48e>
        {
          if((HAL_GetTick() - tickstart ) > HSI_TIMEOUT_VALUE)
 8001108:	f7ff fb46 	bl	8000798 <HAL_GetTick>
 800110c:	4602      	mov	r2, r0
 800110e:	f8d7 3200 	ldr.w	r3, [r7, #512]	; 0x200
 8001112:	1ad3      	subs	r3, r2, r3
 8001114:	2b02      	cmp	r3, #2
 8001116:	d902      	bls.n	800111e <HAL_RCC_OscConfig+0x48e>
          {
            return HAL_TIMEOUT;
 8001118:	2303      	movs	r3, #3
 800111a:	f000 be06 	b.w	8001d2a <HAL_RCC_OscConfig+0x109a>
 800111e:	2302      	movs	r3, #2
 8001120:	f8c7 3164 	str.w	r3, [r7, #356]	; 0x164
   __ASM volatile ("rbit %0, %1" : "=r" (result) : "r" (value) );
 8001124:	f8d7 3164 	ldr.w	r3, [r7, #356]	; 0x164
 8001128:	fa93 f3a3 	rbit	r3, r3
 800112c:	f8c7 3160 	str.w	r3, [r7, #352]	; 0x160
  return result;
 8001130:	f8d7 3160 	ldr.w	r3, [r7, #352]	; 0x160
        while(__HAL_RCC_GET_FLAG(RCC_FLAG_HSIRDY) == RESET)
 8001134:	fab3 f383 	clz	r3, r3
 8001138:	b2db      	uxtb	r3, r3
 800113a:	095b      	lsrs	r3, r3, #5
 800113c:	b2db      	uxtb	r3, r3
 800113e:	f043 0301 	orr.w	r3, r3, #1
 8001142:	b2db      	uxtb	r3, r3
 8001144:	2b01      	cmp	r3, #1
 8001146:	d102      	bne.n	800114e <HAL_RCC_OscConfig+0x4be>
 8001148:	4b45      	ldr	r3, [pc, #276]	; (8001260 <HAL_RCC_OscConfig+0x5d0>)
 800114a:	681b      	ldr	r3, [r3, #0]
 800114c:	e013      	b.n	8001176 <HAL_RCC_OscConfig+0x4e6>
 800114e:	2302      	movs	r3, #2
 8001150:	f8c7 315c 	str.w	r3, [r7, #348]	; 0x15c
   __ASM volatile ("rbit %0, %1" : "=r" (result) : "r" (value) );
 8001154:	f8d7 315c 	ldr.w	r3, [r7, #348]	; 0x15c
 8001158:	fa93 f3a3 	rbit	r3, r3
 800115c:	f8c7 3158 	str.w	r3, [r7, #344]	; 0x158
 8001160:	2302      	movs	r3, #2
 8001162:	f8c7 3154 	str.w	r3, [r7, #340]	; 0x154
 8001166:	f8d7 3154 	ldr.w	r3, [r7, #340]	; 0x154
 800116a:	fa93 f3a3 	rbit	r3, r3
 800116e:	f8c7 3150 	str.w	r3, [r7, #336]	; 0x150
 8001172:	4b3b      	ldr	r3, [pc, #236]	; (8001260 <HAL_RCC_OscConfig+0x5d0>)
 8001174:	6a5b      	ldr	r3, [r3, #36]	; 0x24
 8001176:	2202      	movs	r2, #2
 8001178:	f8c7 214c 	str.w	r2, [r7, #332]	; 0x14c
 800117c:	f8d7 214c 	ldr.w	r2, [r7, #332]	; 0x14c
 8001180:	fa92 f2a2 	rbit	r2, r2
 8001184:	f8c7 2148 	str.w	r2, [r7, #328]	; 0x148
  return result;
 8001188:	f8d7 2148 	ldr.w	r2, [r7, #328]	; 0x148
 800118c:	fab2 f282 	clz	r2, r2
 8001190:	b2d2      	uxtb	r2, r2
 8001192:	f042 0220 	orr.w	r2, r2, #32
 8001196:	b2d2      	uxtb	r2, r2
 8001198:	f002 021f 	and.w	r2, r2, #31
 800119c:	2101      	movs	r1, #1
 800119e:	fa01 f202 	lsl.w	r2, r1, r2
 80011a2:	4013      	ands	r3, r2
 80011a4:	2b00      	cmp	r3, #0
 80011a6:	d0af      	beq.n	8001108 <HAL_RCC_OscConfig+0x478>
          }
        }
                
        /* Adjusts the Internal High Speed oscillator (HSI) calibration value.*/
        __HAL_RCC_HSI_CALIBRATIONVALUE_ADJUST(RCC_OscInitStruct->HSICalibrationValue);
 80011a8:	4b2d      	ldr	r3, [pc, #180]	; (8001260 <HAL_RCC_OscConfig+0x5d0>)
 80011aa:	681b      	ldr	r3, [r3, #0]
 80011ac:	f023 02f8 	bic.w	r2, r3, #248	; 0xf8
 80011b0:	f507 7302 	add.w	r3, r7, #520	; 0x208
 80011b4:	f5a3 7301 	sub.w	r3, r3, #516	; 0x204
 80011b8:	681b      	ldr	r3, [r3, #0]
 80011ba:	691b      	ldr	r3, [r3, #16]
 80011bc:	21f8      	movs	r1, #248	; 0xf8
 80011be:	f8c7 1144 	str.w	r1, [r7, #324]	; 0x144
   __ASM volatile ("rbit %0, %1" : "=r" (result) : "r" (value) );
 80011c2:	f8d7 1144 	ldr.w	r1, [r7, #324]	; 0x144
 80011c6:	fa91 f1a1 	rbit	r1, r1
 80011ca:	f8c7 1140 	str.w	r1, [r7, #320]	; 0x140
  return result;
 80011ce:	f8d7 1140 	ldr.w	r1, [r7, #320]	; 0x140
 80011d2:	fab1 f181 	clz	r1, r1
 80011d6:	b2c9      	uxtb	r1, r1
 80011d8:	408b      	lsls	r3, r1
 80011da:	4921      	ldr	r1, [pc, #132]	; (8001260 <HAL_RCC_OscConfig+0x5d0>)
 80011dc:	4313      	orrs	r3, r2
 80011de:	600b      	str	r3, [r1, #0]
 80011e0:	e06d      	b.n	80012be <HAL_RCC_OscConfig+0x62e>
 80011e2:	2301      	movs	r3, #1
 80011e4:	f8c7 313c 	str.w	r3, [r7, #316]	; 0x13c
   __ASM volatile ("rbit %0, %1" : "=r" (result) : "r" (value) );
 80011e8:	f8d7 313c 	ldr.w	r3, [r7, #316]	; 0x13c
 80011ec:	fa93 f3a3 	rbit	r3, r3
 80011f0:	f8c7 3138 	str.w	r3, [r7, #312]	; 0x138
  return result;
 80011f4:	f8d7 3138 	ldr.w	r3, [r7, #312]	; 0x138
      }
      else
      {
        /* Disable the Internal High Speed oscillator (HSI). */
        __HAL_RCC_HSI_DISABLE();
 80011f8:	fab3 f383 	clz	r3, r3
 80011fc:	b2db      	uxtb	r3, r3
 80011fe:	f103 5384 	add.w	r3, r3, #276824064	; 0x10800000
 8001202:	f503 1384 	add.w	r3, r3, #1081344	; 0x108000
 8001206:	009b      	lsls	r3, r3, #2
 8001208:	461a      	mov	r2, r3
 800120a:	2300      	movs	r3, #0
 800120c:	6013      	str	r3, [r2, #0]
        
        /* Get Start Tick */
        tickstart = HAL_GetTick();
 800120e:	f7ff fac3 	bl	8000798 <HAL_GetTick>
 8001212:	f8c7 0200 	str.w	r0, [r7, #512]	; 0x200
        
        /* Wait till HSI is disabled */
        while(__HAL_RCC_GET_FLAG(RCC_FLAG_HSIRDY) != RESET)
 8001216:	e00a      	b.n	800122e <HAL_RCC_OscConfig+0x59e>
        {
          if((HAL_GetTick() - tickstart ) > HSI_TIMEOUT_VALUE)
 8001218:	f7ff fabe 	bl	8000798 <HAL_GetTick>
 800121c:	4602      	mov	r2, r0
 800121e:	f8d7 3200 	ldr.w	r3, [r7, #512]	; 0x200
 8001222:	1ad3      	subs	r3, r2, r3
 8001224:	2b02      	cmp	r3, #2
 8001226:	d902      	bls.n	800122e <HAL_RCC_OscConfig+0x59e>
          {
            return HAL_TIMEOUT;
 8001228:	2303      	movs	r3, #3
 800122a:	f000 bd7e 	b.w	8001d2a <HAL_RCC_OscConfig+0x109a>
 800122e:	2302      	movs	r3, #2
 8001230:	f8c7 3134 	str.w	r3, [r7, #308]	; 0x134
   __ASM volatile ("rbit %0, %1" : "=r" (result) : "r" (value) );
 8001234:	f8d7 3134 	ldr.w	r3, [r7, #308]	; 0x134
 8001238:	fa93 f3a3 	rbit	r3, r3
 800123c:	f8c7 3130 	str.w	r3, [r7, #304]	; 0x130
  return result;
 8001240:	f8d7 3130 	ldr.w	r3, [r7, #304]	; 0x130
        while(__HAL_RCC_GET_FLAG(RCC_FLAG_HSIRDY) != RESET)
 8001244:	fab3 f383 	clz	r3, r3
 8001248:	b2db      	uxtb	r3, r3
 800124a:	095b      	lsrs	r3, r3, #5
 800124c:	b2db      	uxtb	r3, r3
 800124e:	f043 0301 	orr.w	r3, r3, #1
 8001252:	b2db      	uxtb	r3, r3
 8001254:	2b01      	cmp	r3, #1
 8001256:	d105      	bne.n	8001264 <HAL_RCC_OscConfig+0x5d4>
 8001258:	4b01      	ldr	r3, [pc, #4]	; (8001260 <HAL_RCC_OscConfig+0x5d0>)
 800125a:	681b      	ldr	r3, [r3, #0]
 800125c:	e016      	b.n	800128c <HAL_RCC_OscConfig+0x5fc>
 800125e:	bf00      	nop
 8001260:	40021000 	.word	0x40021000
 8001264:	2302      	movs	r3, #2
 8001266:	f8c7 312c 	str.w	r3, [r7, #300]	; 0x12c
   __ASM volatile ("rbit %0, %1" : "=r" (result) : "r" (value) );
 800126a:	f8d7 312c 	ldr.w	r3, [r7, #300]	; 0x12c
 800126e:	fa93 f3a3 	rbit	r3, r3
 8001272:	f8c7 3128 	str.w	r3, [r7, #296]	; 0x128
 8001276:	2302      	movs	r3, #2
 8001278:	f8c7 3124 	str.w	r3, [r7, #292]	; 0x124
 800127c:	f8d7 3124 	ldr.w	r3, [r7, #292]	; 0x124
 8001280:	fa93 f3a3 	rbit	r3, r3
 8001284:	f8c7 3120 	str.w	r3, [r7, #288]	; 0x120
 8001288:	4bbf      	ldr	r3, [pc, #764]	; (8001588 <HAL_RCC_OscConfig+0x8f8>)
 800128a:	6a5b      	ldr	r3, [r3, #36]	; 0x24
 800128c:	2202      	movs	r2, #2
 800128e:	f8c7 211c 	str.w	r2, [r7, #284]	; 0x11c
 8001292:	f8d7 211c 	ldr.w	r2, [r7, #284]	; 0x11c
 8001296:	fa92 f2a2 	rbit	r2, r2
 800129a:	f8c7 2118 	str.w	r2, [r7, #280]	; 0x118
  return result;
 800129e:	f8d7 2118 	ldr.w	r2, [r7, #280]	; 0x118
 80012a2:	fab2 f282 	clz	r2, r2
 80012a6:	b2d2      	uxtb	r2, r2
 80012a8:	f042 0220 	orr.w	r2, r2, #32
 80012ac:	b2d2      	uxtb	r2, r2
 80012ae:	f002 021f 	and.w	r2, r2, #31
 80012b2:	2101      	movs	r1, #1
 80012b4:	fa01 f202 	lsl.w	r2, r1, r2
 80012b8:	4013      	ands	r3, r2
 80012ba:	2b00      	cmp	r3, #0
 80012bc:	d1ac      	bne.n	8001218 <HAL_RCC_OscConfig+0x588>
        }
      }
    }
  }
  /*------------------------------ LSI Configuration -------------------------*/ 
  if(((RCC_OscInitStruct->OscillatorType) & RCC_OSCILLATORTYPE_LSI) == RCC_OSCILLATORTYPE_LSI)
 80012be:	f507 7302 	add.w	r3, r7, #520	; 0x208
 80012c2:	f5a3 7301 	sub.w	r3, r3, #516	; 0x204
 80012c6:	681b      	ldr	r3, [r3, #0]
 80012c8:	681b      	ldr	r3, [r3, #0]
 80012ca:	f003 0308 	and.w	r3, r3, #8
 80012ce:	2b00      	cmp	r3, #0
 80012d0:	f000 8113 	beq.w	80014fa <HAL_RCC_OscConfig+0x86a>
  {
    /* Check the parameters */
    assert_param(IS_RCC_LSI(RCC_OscInitStruct->LSIState));
    
    /* Check the LSI State */
    if(RCC_OscInitStruct->LSIState != RCC_LSI_OFF)
 80012d4:	f507 7302 	add.w	r3, r7, #520	; 0x208
 80012d8:	f5a3 7301 	sub.w	r3, r3, #516	; 0x204
 80012dc:	681b      	ldr	r3, [r3, #0]
 80012de:	695b      	ldr	r3, [r3, #20]
 80012e0:	2b00      	cmp	r3, #0
 80012e2:	d07c      	beq.n	80013de <HAL_RCC_OscConfig+0x74e>
 80012e4:	2301      	movs	r3, #1
 80012e6:	f8c7 3114 	str.w	r3, [r7, #276]	; 0x114
   __ASM volatile ("rbit %0, %1" : "=r" (result) : "r" (value) );
 80012ea:	f8d7 3114 	ldr.w	r3, [r7, #276]	; 0x114
 80012ee:	fa93 f3a3 	rbit	r3, r3
 80012f2:	f8c7 3110 	str.w	r3, [r7, #272]	; 0x110
  return result;
 80012f6:	f8d7 3110 	ldr.w	r3, [r7, #272]	; 0x110
    {
      /* Enable the Internal Low Speed oscillator (LSI). */
      __HAL_RCC_LSI_ENABLE();
 80012fa:	fab3 f383 	clz	r3, r3
 80012fe:	b2db      	uxtb	r3, r3
 8001300:	461a      	mov	r2, r3
 8001302:	4ba2      	ldr	r3, [pc, #648]	; (800158c <HAL_RCC_OscConfig+0x8fc>)
 8001304:	4413      	add	r3, r2
 8001306:	009b      	lsls	r3, r3, #2
 8001308:	461a      	mov	r2, r3
 800130a:	2301      	movs	r3, #1
 800130c:	6013      	str	r3, [r2, #0]
      
      /* Get Start Tick */
      tickstart = HAL_GetTick();
 800130e:	f7ff fa43 	bl	8000798 <HAL_GetTick>
 8001312:	f8c7 0200 	str.w	r0, [r7, #512]	; 0x200
      
      /* Wait till LSI is ready */  
      while(__HAL_RCC_GET_FLAG(RCC_FLAG_LSIRDY) == RESET)
 8001316:	e00a      	b.n	800132e <HAL_RCC_OscConfig+0x69e>
      {
        if((HAL_GetTick() - tickstart ) > LSI_TIMEOUT_VALUE)
 8001318:	f7ff fa3e 	bl	8000798 <HAL_GetTick>
 800131c:	4602      	mov	r2, r0
 800131e:	f8d7 3200 	ldr.w	r3, [r7, #512]	; 0x200
 8001322:	1ad3      	subs	r3, r2, r3
 8001324:	2b02      	cmp	r3, #2
 8001326:	d902      	bls.n	800132e <HAL_RCC_OscConfig+0x69e>
        {
          return HAL_TIMEOUT;
 8001328:	2303      	movs	r3, #3
 800132a:	f000 bcfe 	b.w	8001d2a <HAL_RCC_OscConfig+0x109a>
 800132e:	2302      	movs	r3, #2
 8001330:	f8c7 310c 	str.w	r3, [r7, #268]	; 0x10c
   __ASM volatile ("rbit %0, %1" : "=r" (result) : "r" (value) );
 8001334:	f8d7 310c 	ldr.w	r3, [r7, #268]	; 0x10c
 8001338:	fa93 f2a3 	rbit	r2, r3
 800133c:	f507 7302 	add.w	r3, r7, #520	; 0x208
 8001340:	f5a3 7380 	sub.w	r3, r3, #256	; 0x100
 8001344:	601a      	str	r2, [r3, #0]
 8001346:	f507 7302 	add.w	r3, r7, #520	; 0x208
 800134a:	f5a3 7382 	sub.w	r3, r3, #260	; 0x104
 800134e:	2202      	movs	r2, #2
 8001350:	601a      	str	r2, [r3, #0]
 8001352:	f507 7302 	add.w	r3, r7, #520	; 0x208
 8001356:	f5a3 7382 	sub.w	r3, r3, #260	; 0x104
 800135a:	681b      	ldr	r3, [r3, #0]
 800135c:	fa93 f2a3 	rbit	r2, r3
 8001360:	f507 7302 	add.w	r3, r7, #520	; 0x208
 8001364:	f5a3 7384 	sub.w	r3, r3, #264	; 0x108
 8001368:	601a      	str	r2, [r3, #0]
 800136a:	f507 7302 	add.w	r3, r7, #520	; 0x208
 800136e:	f5a3 7386 	sub.w	r3, r3, #268	; 0x10c
 8001372:	2202      	movs	r2, #2
 8001374:	601a      	str	r2, [r3, #0]
 8001376:	f507 7302 	add.w	r3, r7, #520	; 0x208
 800137a:	f5a3 7386 	sub.w	r3, r3, #268	; 0x10c
 800137e:	681b      	ldr	r3, [r3, #0]
 8001380:	fa93 f2a3 	rbit	r2, r3
 8001384:	f507 7302 	add.w	r3, r7, #520	; 0x208
 8001388:	f5a3 7388 	sub.w	r3, r3, #272	; 0x110
 800138c:	601a      	str	r2, [r3, #0]
      while(__HAL_RCC_GET_FLAG(RCC_FLAG_LSIRDY) == RESET)
 800138e:	4b7e      	ldr	r3, [pc, #504]	; (8001588 <HAL_RCC_OscConfig+0x8f8>)
 8001390:	6a5a      	ldr	r2, [r3, #36]	; 0x24
 8001392:	f507 7302 	add.w	r3, r7, #520	; 0x208
 8001396:	f5a3 738a 	sub.w	r3, r3, #276	; 0x114
 800139a:	2102      	movs	r1, #2
 800139c:	6019      	str	r1, [r3, #0]
 800139e:	f507 7302 	add.w	r3, r7, #520	; 0x208
 80013a2:	f5a3 738a 	sub.w	r3, r3, #276	; 0x114
 80013a6:	681b      	ldr	r3, [r3, #0]
 80013a8:	fa93 f1a3 	rbit	r1, r3
 80013ac:	f507 7302 	add.w	r3, r7, #520	; 0x208
 80013b0:	f5a3 738c 	sub.w	r3, r3, #280	; 0x118
 80013b4:	6019      	str	r1, [r3, #0]
  return result;
 80013b6:	f507 7302 	add.w	r3, r7, #520	; 0x208
 80013ba:	f5a3 738c 	sub.w	r3, r3, #280	; 0x118
 80013be:	681b      	ldr	r3, [r3, #0]
 80013c0:	fab3 f383 	clz	r3, r3
 80013c4:	b2db      	uxtb	r3, r3
 80013c6:	f043 0360 	orr.w	r3, r3, #96	; 0x60
 80013ca:	b2db      	uxtb	r3, r3
 80013cc:	f003 031f 	and.w	r3, r3, #31
 80013d0:	2101      	movs	r1, #1
 80013d2:	fa01 f303 	lsl.w	r3, r1, r3
 80013d6:	4013      	ands	r3, r2
 80013d8:	2b00      	cmp	r3, #0
 80013da:	d09d      	beq.n	8001318 <HAL_RCC_OscConfig+0x688>
 80013dc:	e08d      	b.n	80014fa <HAL_RCC_OscConfig+0x86a>
 80013de:	f507 7302 	add.w	r3, r7, #520	; 0x208
 80013e2:	f5a3 738e 	sub.w	r3, r3, #284	; 0x11c
 80013e6:	2201      	movs	r2, #1
 80013e8:	601a      	str	r2, [r3, #0]
   __ASM volatile ("rbit %0, %1" : "=r" (result) : "r" (value) );
 80013ea:	f507 7302 	add.w	r3, r7, #520	; 0x208
 80013ee:	f5a3 738e 	sub.w	r3, r3, #284	; 0x11c
 80013f2:	681b      	ldr	r3, [r3, #0]
 80013f4:	fa93 f2a3 	rbit	r2, r3
 80013f8:	f507 7302 	add.w	r3, r7, #520	; 0x208
 80013fc:	f5a3 7390 	sub.w	r3, r3, #288	; 0x120
 8001400:	601a      	str	r2, [r3, #0]
  return result;
 8001402:	f507 7302 	add.w	r3, r7, #520	; 0x208
 8001406:	f5a3 7390 	sub.w	r3, r3, #288	; 0x120
 800140a:	681b      	ldr	r3, [r3, #0]
      }
    }
    else
    {
      /* Disable the Internal Low Speed oscillator (LSI). */
      __HAL_RCC_LSI_DISABLE();
 800140c:	fab3 f383 	clz	r3, r3
 8001410:	b2db      	uxtb	r3, r3
 8001412:	461a      	mov	r2, r3
 8001414:	4b5d      	ldr	r3, [pc, #372]	; (800158c <HAL_RCC_OscConfig+0x8fc>)
 8001416:	4413      	add	r3, r2
 8001418:	009b      	lsls	r3, r3, #2
 800141a:	461a      	mov	r2, r3
 800141c:	2300      	movs	r3, #0
 800141e:	6013      	str	r3, [r2, #0]
      
      /* Get Start Tick */
      tickstart = HAL_GetTick();
 8001420:	f7ff f9ba 	bl	8000798 <HAL_GetTick>
 8001424:	f8c7 0200 	str.w	r0, [r7, #512]	; 0x200
      
      /* Wait till LSI is disabled */  
      while(__HAL_RCC_GET_FLAG(RCC_FLAG_LSIRDY) != RESET)
 8001428:	e00a      	b.n	8001440 <HAL_RCC_OscConfig+0x7b0>
      {
        if((HAL_GetTick() - tickstart ) > LSI_TIMEOUT_VALUE)
 800142a:	f7ff f9b5 	bl	8000798 <HAL_GetTick>
 800142e:	4602      	mov	r2, r0
 8001430:	f8d7 3200 	ldr.w	r3, [r7, #512]	; 0x200
 8001434:	1ad3      	subs	r3, r2, r3
 8001436:	2b02      	cmp	r3, #2
 8001438:	d902      	bls.n	8001440 <HAL_RCC_OscConfig+0x7b0>
        {
          return HAL_TIMEOUT;
 800143a:	2303      	movs	r3, #3
 800143c:	f000 bc75 	b.w	8001d2a <HAL_RCC_OscConfig+0x109a>
 8001440:	f507 7302 	add.w	r3, r7, #520	; 0x208
 8001444:	f5a3 7392 	sub.w	r3, r3, #292	; 0x124
 8001448:	2202      	movs	r2, #2
 800144a:	601a      	str	r2, [r3, #0]
   __ASM volatile ("rbit %0, %1" : "=r" (result) : "r" (value) );
 800144c:	f507 7302 	add.w	r3, r7, #520	; 0x208
 8001450:	f5a3 7392 	sub.w	r3, r3, #292	; 0x124
 8001454:	681b      	ldr	r3, [r3, #0]
 8001456:	fa93 f2a3 	rbit	r2, r3
 800145a:	f507 7302 	add.w	r3, r7, #520	; 0x208
 800145e:	f5a3 7394 	sub.w	r3, r3, #296	; 0x128
 8001462:	601a      	str	r2, [r3, #0]
 8001464:	f507 7302 	add.w	r3, r7, #520	; 0x208
 8001468:	f5a3 7396 	sub.w	r3, r3, #300	; 0x12c
 800146c:	2202      	movs	r2, #2
 800146e:	601a      	str	r2, [r3, #0]
 8001470:	f507 7302 	add.w	r3, r7, #520	; 0x208
 8001474:	f5a3 7396 	sub.w	r3, r3, #300	; 0x12c
 8001478:	681b      	ldr	r3, [r3, #0]
 800147a:	fa93 f2a3 	rbit	r2, r3
 800147e:	f507 7302 	add.w	r3, r7, #520	; 0x208
 8001482:	f5a3 7398 	sub.w	r3, r3, #304	; 0x130
 8001486:	601a      	str	r2, [r3, #0]
 8001488:	f507 7302 	add.w	r3, r7, #520	; 0x208
 800148c:	f5a3 739a 	sub.w	r3, r3, #308	; 0x134
 8001490:	2202      	movs	r2, #2
 8001492:	601a      	str	r2, [r3, #0]
 8001494:	f507 7302 	add.w	r3, r7, #520	; 0x208
 8001498:	f5a3 739a 	sub.w	r3, r3, #308	; 0x134
 800149c:	681b      	ldr	r3, [r3, #0]
 800149e:	fa93 f2a3 	rbit	r2, r3
 80014a2:	f507 7302 	add.w	r3, r7, #520	; 0x208
 80014a6:	f5a3 739c 	sub.w	r3, r3, #312	; 0x138
 80014aa:	601a      	str	r2, [r3, #0]
      while(__HAL_RCC_GET_FLAG(RCC_FLAG_LSIRDY) != RESET)
 80014ac:	4b36      	ldr	r3, [pc, #216]	; (8001588 <HAL_RCC_OscConfig+0x8f8>)
 80014ae:	6a5a      	ldr	r2, [r3, #36]	; 0x24
 80014b0:	f507 7302 	add.w	r3, r7, #520	; 0x208
 80014b4:	f5a3 739e 	sub.w	r3, r3, #316	; 0x13c
 80014b8:	2102      	movs	r1, #2
 80014ba:	6019      	str	r1, [r3, #0]
 80014bc:	f507 7302 	add.w	r3, r7, #520	; 0x208
 80014c0:	f5a3 739e 	sub.w	r3, r3, #316	; 0x13c
 80014c4:	681b      	ldr	r3, [r3, #0]
 80014c6:	fa93 f1a3 	rbit	r1, r3
 80014ca:	f507 7302 	add.w	r3, r7, #520	; 0x208
 80014ce:	f5a3 73a0 	sub.w	r3, r3, #320	; 0x140
 80014d2:	6019      	str	r1, [r3, #0]
  return result;
 80014d4:	f507 7302 	add.w	r3, r7, #520	; 0x208
 80014d8:	f5a3 73a0 	sub.w	r3, r3, #320	; 0x140
 80014dc:	681b      	ldr	r3, [r3, #0]
 80014de:	fab3 f383 	clz	r3, r3
 80014e2:	b2db      	uxtb	r3, r3
 80014e4:	f043 0360 	orr.w	r3, r3, #96	; 0x60
 80014e8:	b2db      	uxtb	r3, r3
 80014ea:	f003 031f 	and.w	r3, r3, #31
 80014ee:	2101      	movs	r1, #1
 80014f0:	fa01 f303 	lsl.w	r3, r1, r3
 80014f4:	4013      	ands	r3, r2
 80014f6:	2b00      	cmp	r3, #0
 80014f8:	d197      	bne.n	800142a <HAL_RCC_OscConfig+0x79a>
        }
      }
    }
  }
  /*------------------------------ LSE Configuration -------------------------*/ 
  if(((RCC_OscInitStruct->OscillatorType) & RCC_OSCILLATORTYPE_LSE) == RCC_OSCILLATORTYPE_LSE)
 80014fa:	f507 7302 	add.w	r3, r7, #520	; 0x208
 80014fe:	f5a3 7301 	sub.w	r3, r3, #516	; 0x204
 8001502:	681b      	ldr	r3, [r3, #0]
 8001504:	681b      	ldr	r3, [r3, #0]
 8001506:	f003 0304 	and.w	r3, r3, #4
 800150a:	2b00      	cmp	r3, #0
 800150c:	f000 81a5 	beq.w	800185a <HAL_RCC_OscConfig+0xbca>
  {
    FlagStatus       pwrclkchanged = RESET;
 8001510:	2300      	movs	r3, #0
 8001512:	f887 3207 	strb.w	r3, [r7, #519]	; 0x207
    /* Check the parameters */
    assert_param(IS_RCC_LSE(RCC_OscInitStruct->LSEState));

    /* Update LSE configuration in Backup Domain control register    */
    /* Requires to enable write access to Backup Domain of necessary */
    if(__HAL_RCC_PWR_IS_CLK_DISABLED())
 8001516:	4b1c      	ldr	r3, [pc, #112]	; (8001588 <HAL_RCC_OscConfig+0x8f8>)
 8001518:	69db      	ldr	r3, [r3, #28]
 800151a:	f003 5380 	and.w	r3, r3, #268435456	; 0x10000000
 800151e:	2b00      	cmp	r3, #0
 8001520:	d116      	bne.n	8001550 <HAL_RCC_OscConfig+0x8c0>
    {
      __HAL_RCC_PWR_CLK_ENABLE();
 8001522:	4b19      	ldr	r3, [pc, #100]	; (8001588 <HAL_RCC_OscConfig+0x8f8>)
 8001524:	69db      	ldr	r3, [r3, #28]
 8001526:	4a18      	ldr	r2, [pc, #96]	; (8001588 <HAL_RCC_OscConfig+0x8f8>)
 8001528:	f043 5380 	orr.w	r3, r3, #268435456	; 0x10000000
 800152c:	61d3      	str	r3, [r2, #28]
 800152e:	4b16      	ldr	r3, [pc, #88]	; (8001588 <HAL_RCC_OscConfig+0x8f8>)
 8001530:	69db      	ldr	r3, [r3, #28]
 8001532:	f003 5280 	and.w	r2, r3, #268435456	; 0x10000000
 8001536:	f507 7302 	add.w	r3, r7, #520	; 0x208
 800153a:	f5a3 73fe 	sub.w	r3, r3, #508	; 0x1fc
 800153e:	601a      	str	r2, [r3, #0]
 8001540:	f507 7302 	add.w	r3, r7, #520	; 0x208
 8001544:	f5a3 73fe 	sub.w	r3, r3, #508	; 0x1fc
 8001548:	681b      	ldr	r3, [r3, #0]
      pwrclkchanged = SET;
 800154a:	2301      	movs	r3, #1
 800154c:	f887 3207 	strb.w	r3, [r7, #519]	; 0x207
    }
    
    if(HAL_IS_BIT_CLR(PWR->CR, PWR_CR_DBP))
 8001550:	4b0f      	ldr	r3, [pc, #60]	; (8001590 <HAL_RCC_OscConfig+0x900>)
 8001552:	681b      	ldr	r3, [r3, #0]
 8001554:	f403 7380 	and.w	r3, r3, #256	; 0x100
 8001558:	2b00      	cmp	r3, #0
 800155a:	d121      	bne.n	80015a0 <HAL_RCC_OscConfig+0x910>
    {
      /* Enable write access to Backup domain */
      SET_BIT(PWR->CR, PWR_CR_DBP);
 800155c:	4b0c      	ldr	r3, [pc, #48]	; (8001590 <HAL_RCC_OscConfig+0x900>)
 800155e:	681b      	ldr	r3, [r3, #0]
 8001560:	4a0b      	ldr	r2, [pc, #44]	; (8001590 <HAL_RCC_OscConfig+0x900>)
 8001562:	f443 7380 	orr.w	r3, r3, #256	; 0x100
 8001566:	6013      	str	r3, [r2, #0]
      
      /* Wait for Backup domain Write protection disable */
      tickstart = HAL_GetTick();
 8001568:	f7ff f916 	bl	8000798 <HAL_GetTick>
 800156c:	f8c7 0200 	str.w	r0, [r7, #512]	; 0x200

      while(HAL_IS_BIT_CLR(PWR->CR, PWR_CR_DBP))
 8001570:	e010      	b.n	8001594 <HAL_RCC_OscConfig+0x904>
      {
        if((HAL_GetTick() - tickstart) > RCC_DBP_TIMEOUT_VALUE)
 8001572:	f7ff f911 	bl	8000798 <HAL_GetTick>
 8001576:	4602      	mov	r2, r0
 8001578:	f8d7 3200 	ldr.w	r3, [r7, #512]	; 0x200
 800157c:	1ad3      	subs	r3, r2, r3
 800157e:	2b64      	cmp	r3, #100	; 0x64
 8001580:	d908      	bls.n	8001594 <HAL_RCC_OscConfig+0x904>
        {
          return HAL_TIMEOUT;
 8001582:	2303      	movs	r3, #3
 8001584:	e3d1      	b.n	8001d2a <HAL_RCC_OscConfig+0x109a>
 8001586:	bf00      	nop
 8001588:	40021000 	.word	0x40021000
 800158c:	10908120 	.word	0x10908120
 8001590:	40007000 	.word	0x40007000
      while(HAL_IS_BIT_CLR(PWR->CR, PWR_CR_DBP))
 8001594:	4b8d      	ldr	r3, [pc, #564]	; (80017cc <HAL_RCC_OscConfig+0xb3c>)
 8001596:	681b      	ldr	r3, [r3, #0]
 8001598:	f403 7380 	and.w	r3, r3, #256	; 0x100
 800159c:	2b00      	cmp	r3, #0
 800159e:	d0e8      	beq.n	8001572 <HAL_RCC_OscConfig+0x8e2>
        }
      }
    }

    /* Set the new LSE configuration -----------------------------------------*/
    __HAL_RCC_LSE_CONFIG(RCC_OscInitStruct->LSEState);
 80015a0:	f507 7302 	add.w	r3, r7, #520	; 0x208
 80015a4:	f5a3 7301 	sub.w	r3, r3, #516	; 0x204
 80015a8:	681b      	ldr	r3, [r3, #0]
 80015aa:	689b      	ldr	r3, [r3, #8]
 80015ac:	2b01      	cmp	r3, #1
 80015ae:	d106      	bne.n	80015be <HAL_RCC_OscConfig+0x92e>
 80015b0:	4b87      	ldr	r3, [pc, #540]	; (80017d0 <HAL_RCC_OscConfig+0xb40>)
 80015b2:	6a1b      	ldr	r3, [r3, #32]
 80015b4:	4a86      	ldr	r2, [pc, #536]	; (80017d0 <HAL_RCC_OscConfig+0xb40>)
 80015b6:	f043 0301 	orr.w	r3, r3, #1
 80015ba:	6213      	str	r3, [r2, #32]
 80015bc:	e035      	b.n	800162a <HAL_RCC_OscConfig+0x99a>
 80015be:	f507 7302 	add.w	r3, r7, #520	; 0x208
 80015c2:	f5a3 7301 	sub.w	r3, r3, #516	; 0x204
 80015c6:	681b      	ldr	r3, [r3, #0]
 80015c8:	689b      	ldr	r3, [r3, #8]
 80015ca:	2b00      	cmp	r3, #0
 80015cc:	d10c      	bne.n	80015e8 <HAL_RCC_OscConfig+0x958>
 80015ce:	4b80      	ldr	r3, [pc, #512]	; (80017d0 <HAL_RCC_OscConfig+0xb40>)
 80015d0:	6a1b      	ldr	r3, [r3, #32]
 80015d2:	4a7f      	ldr	r2, [pc, #508]	; (80017d0 <HAL_RCC_OscConfig+0xb40>)
 80015d4:	f023 0301 	bic.w	r3, r3, #1
 80015d8:	6213      	str	r3, [r2, #32]
 80015da:	4b7d      	ldr	r3, [pc, #500]	; (80017d0 <HAL_RCC_OscConfig+0xb40>)
 80015dc:	6a1b      	ldr	r3, [r3, #32]
 80015de:	4a7c      	ldr	r2, [pc, #496]	; (80017d0 <HAL_RCC_OscConfig+0xb40>)
 80015e0:	f023 0304 	bic.w	r3, r3, #4
 80015e4:	6213      	str	r3, [r2, #32]
 80015e6:	e020      	b.n	800162a <HAL_RCC_OscConfig+0x99a>
 80015e8:	f507 7302 	add.w	r3, r7, #520	; 0x208
 80015ec:	f5a3 7301 	sub.w	r3, r3, #516	; 0x204
 80015f0:	681b      	ldr	r3, [r3, #0]
 80015f2:	689b      	ldr	r3, [r3, #8]
 80015f4:	2b05      	cmp	r3, #5
 80015f6:	d10c      	bne.n	8001612 <HAL_RCC_OscConfig+0x982>
 80015f8:	4b75      	ldr	r3, [pc, #468]	; (80017d0 <HAL_RCC_OscConfig+0xb40>)
 80015fa:	6a1b      	ldr	r3, [r3, #32]
 80015fc:	4a74      	ldr	r2, [pc, #464]	; (80017d0 <HAL_RCC_OscConfig+0xb40>)
 80015fe:	f043 0304 	orr.w	r3, r3, #4
 8001602:	6213      	str	r3, [r2, #32]
 8001604:	4b72      	ldr	r3, [pc, #456]	; (80017d0 <HAL_RCC_OscConfig+0xb40>)
 8001606:	6a1b      	ldr	r3, [r3, #32]
 8001608:	4a71      	ldr	r2, [pc, #452]	; (80017d0 <HAL_RCC_OscConfig+0xb40>)
 800160a:	f043 0301 	orr.w	r3, r3, #1
 800160e:	6213      	str	r3, [r2, #32]
 8001610:	e00b      	b.n	800162a <HAL_RCC_OscConfig+0x99a>
 8001612:	4b6f      	ldr	r3, [pc, #444]	; (80017d0 <HAL_RCC_OscConfig+0xb40>)
 8001614:	6a1b      	ldr	r3, [r3, #32]
 8001616:	4a6e      	ldr	r2, [pc, #440]	; (80017d0 <HAL_RCC_OscConfig+0xb40>)
 8001618:	f023 0301 	bic.w	r3, r3, #1
 800161c:	6213      	str	r3, [r2, #32]
 800161e:	4b6c      	ldr	r3, [pc, #432]	; (80017d0 <HAL_RCC_OscConfig+0xb40>)
 8001620:	6a1b      	ldr	r3, [r3, #32]
 8001622:	4a6b      	ldr	r2, [pc, #428]	; (80017d0 <HAL_RCC_OscConfig+0xb40>)
 8001624:	f023 0304 	bic.w	r3, r3, #4
 8001628:	6213      	str	r3, [r2, #32]
    /* Check the LSE State */
    if(RCC_OscInitStruct->LSEState != RCC_LSE_OFF)
 800162a:	f507 7302 	add.w	r3, r7, #520	; 0x208
 800162e:	f5a3 7301 	sub.w	r3, r3, #516	; 0x204
 8001632:	681b      	ldr	r3, [r3, #0]
 8001634:	689b      	ldr	r3, [r3, #8]
 8001636:	2b00      	cmp	r3, #0
 8001638:	f000 8081 	beq.w	800173e <HAL_RCC_OscConfig+0xaae>
    {
      /* Get Start Tick */
      tickstart = HAL_GetTick();
 800163c:	f7ff f8ac 	bl	8000798 <HAL_GetTick>
 8001640:	f8c7 0200 	str.w	r0, [r7, #512]	; 0x200
      
      /* Wait till LSE is ready */  
      while(__HAL_RCC_GET_FLAG(RCC_FLAG_LSERDY) == RESET)
 8001644:	e00b      	b.n	800165e <HAL_RCC_OscConfig+0x9ce>
      {
        if((HAL_GetTick() - tickstart ) > RCC_LSE_TIMEOUT_VALUE)
 8001646:	f7ff f8a7 	bl	8000798 <HAL_GetTick>
 800164a:	4602      	mov	r2, r0
 800164c:	f8d7 3200 	ldr.w	r3, [r7, #512]	; 0x200
 8001650:	1ad3      	subs	r3, r2, r3
 8001652:	f241 3288 	movw	r2, #5000	; 0x1388
 8001656:	4293      	cmp	r3, r2
 8001658:	d901      	bls.n	800165e <HAL_RCC_OscConfig+0x9ce>
        {
          return HAL_TIMEOUT;
 800165a:	2303      	movs	r3, #3
 800165c:	e365      	b.n	8001d2a <HAL_RCC_OscConfig+0x109a>
 800165e:	f507 7302 	add.w	r3, r7, #520	; 0x208
 8001662:	f5a3 73a2 	sub.w	r3, r3, #324	; 0x144
 8001666:	2202      	movs	r2, #2
 8001668:	601a      	str	r2, [r3, #0]
   __ASM volatile ("rbit %0, %1" : "=r" (result) : "r" (value) );
 800166a:	f507 7302 	add.w	r3, r7, #520	; 0x208
 800166e:	f5a3 73a2 	sub.w	r3, r3, #324	; 0x144
 8001672:	681b      	ldr	r3, [r3, #0]
 8001674:	fa93 f2a3 	rbit	r2, r3
 8001678:	f507 7302 	add.w	r3, r7, #520	; 0x208
 800167c:	f5a3 73a4 	sub.w	r3, r3, #328	; 0x148
 8001680:	601a      	str	r2, [r3, #0]
 8001682:	f507 7302 	add.w	r3, r7, #520	; 0x208
 8001686:	f5a3 73a6 	sub.w	r3, r3, #332	; 0x14c
 800168a:	2202      	movs	r2, #2
 800168c:	601a      	str	r2, [r3, #0]
 800168e:	f507 7302 	add.w	r3, r7, #520	; 0x208
 8001692:	f5a3 73a6 	sub.w	r3, r3, #332	; 0x14c
 8001696:	681b      	ldr	r3, [r3, #0]
 8001698:	fa93 f2a3 	rbit	r2, r3
 800169c:	f507 7302 	add.w	r3, r7, #520	; 0x208
 80016a0:	f5a3 73a8 	sub.w	r3, r3, #336	; 0x150
 80016a4:	601a      	str	r2, [r3, #0]
  return result;
 80016a6:	f507 7302 	add.w	r3, r7, #520	; 0x208
 80016aa:	f5a3 73a8 	sub.w	r3, r3, #336	; 0x150
 80016ae:	681b      	ldr	r3, [r3, #0]
      while(__HAL_RCC_GET_FLAG(RCC_FLAG_LSERDY) == RESET)
 80016b0:	fab3 f383 	clz	r3, r3
 80016b4:	b2db      	uxtb	r3, r3
 80016b6:	095b      	lsrs	r3, r3, #5
 80016b8:	b2db      	uxtb	r3, r3
 80016ba:	f043 0302 	orr.w	r3, r3, #2
 80016be:	b2db      	uxtb	r3, r3
 80016c0:	2b02      	cmp	r3, #2
 80016c2:	d102      	bne.n	80016ca <HAL_RCC_OscConfig+0xa3a>
 80016c4:	4b42      	ldr	r3, [pc, #264]	; (80017d0 <HAL_RCC_OscConfig+0xb40>)
 80016c6:	6a1b      	ldr	r3, [r3, #32]
 80016c8:	e013      	b.n	80016f2 <HAL_RCC_OscConfig+0xa62>
 80016ca:	f507 7302 	add.w	r3, r7, #520	; 0x208
 80016ce:	f5a3 73aa 	sub.w	r3, r3, #340	; 0x154
 80016d2:	2202      	movs	r2, #2
 80016d4:	601a      	str	r2, [r3, #0]
   __ASM volatile ("rbit %0, %1" : "=r" (result) : "r" (value) );
 80016d6:	f507 7302 	add.w	r3, r7, #520	; 0x208
 80016da:	f5a3 73aa 	sub.w	r3, r3, #340	; 0x154
 80016de:	681b      	ldr	r3, [r3, #0]
 80016e0:	fa93 f2a3 	rbit	r2, r3
 80016e4:	f507 7302 	add.w	r3, r7, #520	; 0x208
 80016e8:	f5a3 73ac 	sub.w	r3, r3, #344	; 0x158
 80016ec:	601a      	str	r2, [r3, #0]
 80016ee:	4b38      	ldr	r3, [pc, #224]	; (80017d0 <HAL_RCC_OscConfig+0xb40>)
 80016f0:	6a5b      	ldr	r3, [r3, #36]	; 0x24
 80016f2:	f507 7202 	add.w	r2, r7, #520	; 0x208
 80016f6:	f5a2 72ae 	sub.w	r2, r2, #348	; 0x15c
 80016fa:	2102      	movs	r1, #2
 80016fc:	6011      	str	r1, [r2, #0]
 80016fe:	f507 7202 	add.w	r2, r7, #520	; 0x208
 8001702:	f5a2 72ae 	sub.w	r2, r2, #348	; 0x15c
 8001706:	6812      	ldr	r2, [r2, #0]
 8001708:	fa92 f1a2 	rbit	r1, r2
 800170c:	f507 7202 	add.w	r2, r7, #520	; 0x208
 8001710:	f5a2 72b0 	sub.w	r2, r2, #352	; 0x160
 8001714:	6011      	str	r1, [r2, #0]
  return result;
 8001716:	f507 7202 	add.w	r2, r7, #520	; 0x208
 800171a:	f5a2 72b0 	sub.w	r2, r2, #352	; 0x160
 800171e:	6812      	ldr	r2, [r2, #0]
 8001720:	fab2 f282 	clz	r2, r2
 8001724:	b2d2      	uxtb	r2, r2
 8001726:	f042 0240 	orr.w	r2, r2, #64	; 0x40
 800172a:	b2d2      	uxtb	r2, r2
 800172c:	f002 021f 	and.w	r2, r2, #31
 8001730:	2101      	movs	r1, #1
 8001732:	fa01 f202 	lsl.w	r2, r1, r2
 8001736:	4013      	ands	r3, r2
 8001738:	2b00      	cmp	r3, #0
 800173a:	d084      	beq.n	8001646 <HAL_RCC_OscConfig+0x9b6>
 800173c:	e083      	b.n	8001846 <HAL_RCC_OscConfig+0xbb6>
      }
    }
    else
    {
      /* Get Start Tick */
      tickstart = HAL_GetTick();
 800173e:	f7ff f82b 	bl	8000798 <HAL_GetTick>
 8001742:	f8c7 0200 	str.w	r0, [r7, #512]	; 0x200
      
      /* Wait till LSE is disabled */  
      while(__HAL_RCC_GET_FLAG(RCC_FLAG_LSERDY) != RESET)
 8001746:	e00b      	b.n	8001760 <HAL_RCC_OscConfig+0xad0>
      {
        if((HAL_GetTick() - tickstart ) > RCC_LSE_TIMEOUT_VALUE)
 8001748:	f7ff f826 	bl	8000798 <HAL_GetTick>
 800174c:	4602      	mov	r2, r0
 800174e:	f8d7 3200 	ldr.w	r3, [r7, #512]	; 0x200
 8001752:	1ad3      	subs	r3, r2, r3
 8001754:	f241 3288 	movw	r2, #5000	; 0x1388
 8001758:	4293      	cmp	r3, r2
 800175a:	d901      	bls.n	8001760 <HAL_RCC_OscConfig+0xad0>
        {
          return HAL_TIMEOUT;
 800175c:	2303      	movs	r3, #3
 800175e:	e2e4      	b.n	8001d2a <HAL_RCC_OscConfig+0x109a>
 8001760:	f507 7302 	add.w	r3, r7, #520	; 0x208
 8001764:	f5a3 73b2 	sub.w	r3, r3, #356	; 0x164
 8001768:	2202      	movs	r2, #2
 800176a:	601a      	str	r2, [r3, #0]
   __ASM volatile ("rbit %0, %1" : "=r" (result) : "r" (value) );
 800176c:	f507 7302 	add.w	r3, r7, #520	; 0x208
 8001770:	f5a3 73b2 	sub.w	r3, r3, #356	; 0x164
 8001774:	681b      	ldr	r3, [r3, #0]
 8001776:	fa93 f2a3 	rbit	r2, r3
 800177a:	f507 7302 	add.w	r3, r7, #520	; 0x208
 800177e:	f5a3 73b4 	sub.w	r3, r3, #360	; 0x168
 8001782:	601a      	str	r2, [r3, #0]
 8001784:	f507 7302 	add.w	r3, r7, #520	; 0x208
 8001788:	f5a3 73b6 	sub.w	r3, r3, #364	; 0x16c
 800178c:	2202      	movs	r2, #2
 800178e:	601a      	str	r2, [r3, #0]
 8001790:	f507 7302 	add.w	r3, r7, #520	; 0x208
 8001794:	f5a3 73b6 	sub.w	r3, r3, #364	; 0x16c
 8001798:	681b      	ldr	r3, [r3, #0]
 800179a:	fa93 f2a3 	rbit	r2, r3
 800179e:	f507 7302 	add.w	r3, r7, #520	; 0x208
 80017a2:	f5a3 73b8 	sub.w	r3, r3, #368	; 0x170
 80017a6:	601a      	str	r2, [r3, #0]
  return result;
 80017a8:	f507 7302 	add.w	r3, r7, #520	; 0x208
 80017ac:	f5a3 73b8 	sub.w	r3, r3, #368	; 0x170
 80017b0:	681b      	ldr	r3, [r3, #0]
      while(__HAL_RCC_GET_FLAG(RCC_FLAG_LSERDY) != RESET)
 80017b2:	fab3 f383 	clz	r3, r3
 80017b6:	b2db      	uxtb	r3, r3
 80017b8:	095b      	lsrs	r3, r3, #5
 80017ba:	b2db      	uxtb	r3, r3
 80017bc:	f043 0302 	orr.w	r3, r3, #2
 80017c0:	b2db      	uxtb	r3, r3
 80017c2:	2b02      	cmp	r3, #2
 80017c4:	d106      	bne.n	80017d4 <HAL_RCC_OscConfig+0xb44>
 80017c6:	4b02      	ldr	r3, [pc, #8]	; (80017d0 <HAL_RCC_OscConfig+0xb40>)
 80017c8:	6a1b      	ldr	r3, [r3, #32]
 80017ca:	e017      	b.n	80017fc <HAL_RCC_OscConfig+0xb6c>
 80017cc:	40007000 	.word	0x40007000
 80017d0:	40021000 	.word	0x40021000
 80017d4:	f507 7302 	add.w	r3, r7, #520	; 0x208
 80017d8:	f5a3 73ba 	sub.w	r3, r3, #372	; 0x174
 80017dc:	2202      	movs	r2, #2
 80017de:	601a      	str	r2, [r3, #0]
   __ASM volatile ("rbit %0, %1" : "=r" (result) : "r" (value) );
 80017e0:	f507 7302 	add.w	r3, r7, #520	; 0x208
 80017e4:	f5a3 73ba 	sub.w	r3, r3, #372	; 0x174
 80017e8:	681b      	ldr	r3, [r3, #0]
 80017ea:	fa93 f2a3 	rbit	r2, r3
 80017ee:	f507 7302 	add.w	r3, r7, #520	; 0x208
 80017f2:	f5a3 73bc 	sub.w	r3, r3, #376	; 0x178
 80017f6:	601a      	str	r2, [r3, #0]
 80017f8:	4bb3      	ldr	r3, [pc, #716]	; (8001ac8 <HAL_RCC_OscConfig+0xe38>)
 80017fa:	6a5b      	ldr	r3, [r3, #36]	; 0x24
 80017fc:	f507 7202 	add.w	r2, r7, #520	; 0x208
 8001800:	f5a2 72be 	sub.w	r2, r2, #380	; 0x17c
 8001804:	2102      	movs	r1, #2
 8001806:	6011      	str	r1, [r2, #0]
 8001808:	f507 7202 	add.w	r2, r7, #520	; 0x208
 800180c:	f5a2 72be 	sub.w	r2, r2, #380	; 0x17c
 8001810:	6812      	ldr	r2, [r2, #0]
 8001812:	fa92 f1a2 	rbit	r1, r2
 8001816:	f507 7202 	add.w	r2, r7, #520	; 0x208
 800181a:	f5a2 72c0 	sub.w	r2, r2, #384	; 0x180
 800181e:	6011      	str	r1, [r2, #0]
  return result;
 8001820:	f507 7202 	add.w	r2, r7, #520	; 0x208
 8001824:	f5a2 72c0 	sub.w	r2, r2, #384	; 0x180
 8001828:	6812      	ldr	r2, [r2, #0]
 800182a:	fab2 f282 	clz	r2, r2
 800182e:	b2d2      	uxtb	r2, r2
 8001830:	f042 0240 	orr.w	r2, r2, #64	; 0x40
 8001834:	b2d2      	uxtb	r2, r2
 8001836:	f002 021f 	and.w	r2, r2, #31
 800183a:	2101      	movs	r1, #1
 800183c:	fa01 f202 	lsl.w	r2, r1, r2
 8001840:	4013      	ands	r3, r2
 8001842:	2b00      	cmp	r3, #0
 8001844:	d180      	bne.n	8001748 <HAL_RCC_OscConfig+0xab8>
        }
      }
    }

    /* Require to disable power clock if necessary */
    if(pwrclkchanged == SET)
 8001846:	f897 3207 	ldrb.w	r3, [r7, #519]	; 0x207
 800184a:	2b01      	cmp	r3, #1
 800184c:	d105      	bne.n	800185a <HAL_RCC_OscConfig+0xbca>
    {
      __HAL_RCC_PWR_CLK_DISABLE();
 800184e:	4b9e      	ldr	r3, [pc, #632]	; (8001ac8 <HAL_RCC_OscConfig+0xe38>)
 8001850:	69db      	ldr	r3, [r3, #28]
 8001852:	4a9d      	ldr	r2, [pc, #628]	; (8001ac8 <HAL_RCC_OscConfig+0xe38>)
 8001854:	f023 5380 	bic.w	r3, r3, #268435456	; 0x10000000
 8001858:	61d3      	str	r3, [r2, #28]
  }

  /*-------------------------------- PLL Configuration -----------------------*/
  /* Check the parameters */
  assert_param(IS_RCC_PLL(RCC_OscInitStruct->PLL.PLLState));
  if ((RCC_OscInitStruct->PLL.PLLState) != RCC_PLL_NONE)
 800185a:	f507 7302 	add.w	r3, r7, #520	; 0x208
 800185e:	f5a3 7301 	sub.w	r3, r3, #516	; 0x204
 8001862:	681b      	ldr	r3, [r3, #0]
 8001864:	699b      	ldr	r3, [r3, #24]
 8001866:	2b00      	cmp	r3, #0
 8001868:	f000 825e 	beq.w	8001d28 <HAL_RCC_OscConfig+0x1098>
  {
    /* Check if the PLL is used as system clock or not */
    if(__HAL_RCC_GET_SYSCLK_SOURCE() != RCC_SYSCLKSOURCE_STATUS_PLLCLK)
 800186c:	4b96      	ldr	r3, [pc, #600]	; (8001ac8 <HAL_RCC_OscConfig+0xe38>)
 800186e:	685b      	ldr	r3, [r3, #4]
 8001870:	f003 030c 	and.w	r3, r3, #12
 8001874:	2b08      	cmp	r3, #8
 8001876:	f000 821f 	beq.w	8001cb8 <HAL_RCC_OscConfig+0x1028>
    { 
      if((RCC_OscInitStruct->PLL.PLLState) == RCC_PLL_ON)
 800187a:	f507 7302 	add.w	r3, r7, #520	; 0x208
 800187e:	f5a3 7301 	sub.w	r3, r3, #516	; 0x204
 8001882:	681b      	ldr	r3, [r3, #0]
 8001884:	699b      	ldr	r3, [r3, #24]
 8001886:	2b02      	cmp	r3, #2
 8001888:	f040 8170 	bne.w	8001b6c <HAL_RCC_OscConfig+0xedc>
 800188c:	f507 7302 	add.w	r3, r7, #520	; 0x208
 8001890:	f5a3 73c2 	sub.w	r3, r3, #388	; 0x184
 8001894:	f04f 7280 	mov.w	r2, #16777216	; 0x1000000
 8001898:	601a      	str	r2, [r3, #0]
   __ASM volatile ("rbit %0, %1" : "=r" (result) : "r" (value) );
 800189a:	f507 7302 	add.w	r3, r7, #520	; 0x208
 800189e:	f5a3 73c2 	sub.w	r3, r3, #388	; 0x184
 80018a2:	681b      	ldr	r3, [r3, #0]
 80018a4:	fa93 f2a3 	rbit	r2, r3
 80018a8:	f507 7302 	add.w	r3, r7, #520	; 0x208
 80018ac:	f5a3 73c4 	sub.w	r3, r3, #392	; 0x188
 80018b0:	601a      	str	r2, [r3, #0]
  return result;
 80018b2:	f507 7302 	add.w	r3, r7, #520	; 0x208
 80018b6:	f5a3 73c4 	sub.w	r3, r3, #392	; 0x188
 80018ba:	681b      	ldr	r3, [r3, #0]
#if   defined(RCC_CFGR_PLLSRC_HSI_PREDIV)
        assert_param(IS_RCC_PREDIV(RCC_OscInitStruct->PLL.PREDIV));
#endif
  
        /* Disable the main PLL. */
        __HAL_RCC_PLL_DISABLE();
 80018bc:	fab3 f383 	clz	r3, r3
 80018c0:	b2db      	uxtb	r3, r3
 80018c2:	f103 5384 	add.w	r3, r3, #276824064	; 0x10800000
 80018c6:	f503 1384 	add.w	r3, r3, #1081344	; 0x108000
 80018ca:	009b      	lsls	r3, r3, #2
 80018cc:	461a      	mov	r2, r3
 80018ce:	2300      	movs	r3, #0
 80018d0:	6013      	str	r3, [r2, #0]
        
        /* Get Start Tick */
        tickstart = HAL_GetTick();
 80018d2:	f7fe ff61 	bl	8000798 <HAL_GetTick>
 80018d6:	f8c7 0200 	str.w	r0, [r7, #512]	; 0x200
        
        /* Wait till PLL is disabled */
        while(__HAL_RCC_GET_FLAG(RCC_FLAG_PLLRDY)  != RESET)
 80018da:	e009      	b.n	80018f0 <HAL_RCC_OscConfig+0xc60>
        {
          if((HAL_GetTick() - tickstart ) > PLL_TIMEOUT_VALUE)
 80018dc:	f7fe ff5c 	bl	8000798 <HAL_GetTick>
 80018e0:	4602      	mov	r2, r0
 80018e2:	f8d7 3200 	ldr.w	r3, [r7, #512]	; 0x200
 80018e6:	1ad3      	subs	r3, r2, r3
 80018e8:	2b02      	cmp	r3, #2
 80018ea:	d901      	bls.n	80018f0 <HAL_RCC_OscConfig+0xc60>
          {
            return HAL_TIMEOUT;
 80018ec:	2303      	movs	r3, #3
 80018ee:	e21c      	b.n	8001d2a <HAL_RCC_OscConfig+0x109a>
 80018f0:	f507 7302 	add.w	r3, r7, #520	; 0x208
 80018f4:	f5a3 73c6 	sub.w	r3, r3, #396	; 0x18c
 80018f8:	f04f 7200 	mov.w	r2, #33554432	; 0x2000000
 80018fc:	601a      	str	r2, [r3, #0]
   __ASM volatile ("rbit %0, %1" : "=r" (result) : "r" (value) );
 80018fe:	f507 7302 	add.w	r3, r7, #520	; 0x208
 8001902:	f5a3 73c6 	sub.w	r3, r3, #396	; 0x18c
 8001906:	681b      	ldr	r3, [r3, #0]
 8001908:	fa93 f2a3 	rbit	r2, r3
 800190c:	f507 7302 	add.w	r3, r7, #520	; 0x208
 8001910:	f5a3 73c8 	sub.w	r3, r3, #400	; 0x190
 8001914:	601a      	str	r2, [r3, #0]
  return result;
 8001916:	f507 7302 	add.w	r3, r7, #520	; 0x208
 800191a:	f5a3 73c8 	sub.w	r3, r3, #400	; 0x190
 800191e:	681b      	ldr	r3, [r3, #0]
        while(__HAL_RCC_GET_FLAG(RCC_FLAG_PLLRDY)  != RESET)
 8001920:	fab3 f383 	clz	r3, r3
 8001924:	b2db      	uxtb	r3, r3
 8001926:	095b      	lsrs	r3, r3, #5
 8001928:	b2db      	uxtb	r3, r3
 800192a:	f043 0301 	orr.w	r3, r3, #1
 800192e:	b2db      	uxtb	r3, r3
 8001930:	2b01      	cmp	r3, #1
 8001932:	d102      	bne.n	800193a <HAL_RCC_OscConfig+0xcaa>
 8001934:	4b64      	ldr	r3, [pc, #400]	; (8001ac8 <HAL_RCC_OscConfig+0xe38>)
 8001936:	681b      	ldr	r3, [r3, #0]
 8001938:	e027      	b.n	800198a <HAL_RCC_OscConfig+0xcfa>
 800193a:	f507 7302 	add.w	r3, r7, #520	; 0x208
 800193e:	f5a3 73ca 	sub.w	r3, r3, #404	; 0x194
 8001942:	f04f 7200 	mov.w	r2, #33554432	; 0x2000000
 8001946:	601a      	str	r2, [r3, #0]
   __ASM volatile ("rbit %0, %1" : "=r" (result) : "r" (value) );
 8001948:	f507 7302 	add.w	r3, r7, #520	; 0x208
 800194c:	f5a3 73ca 	sub.w	r3, r3, #404	; 0x194
 8001950:	681b      	ldr	r3, [r3, #0]
 8001952:	fa93 f2a3 	rbit	r2, r3
 8001956:	f507 7302 	add.w	r3, r7, #520	; 0x208
 800195a:	f5a3 73cc 	sub.w	r3, r3, #408	; 0x198
 800195e:	601a      	str	r2, [r3, #0]
 8001960:	f507 7302 	add.w	r3, r7, #520	; 0x208
 8001964:	f5a3 73ce 	sub.w	r3, r3, #412	; 0x19c
 8001968:	f04f 7200 	mov.w	r2, #33554432	; 0x2000000
 800196c:	601a      	str	r2, [r3, #0]
 800196e:	f507 7302 	add.w	r3, r7, #520	; 0x208
 8001972:	f5a3 73ce 	sub.w	r3, r3, #412	; 0x19c
 8001976:	681b      	ldr	r3, [r3, #0]
 8001978:	fa93 f2a3 	rbit	r2, r3
 800197c:	f507 7302 	add.w	r3, r7, #520	; 0x208
 8001980:	f5a3 73d0 	sub.w	r3, r3, #416	; 0x1a0
 8001984:	601a      	str	r2, [r3, #0]
 8001986:	4b50      	ldr	r3, [pc, #320]	; (8001ac8 <HAL_RCC_OscConfig+0xe38>)
 8001988:	6a5b      	ldr	r3, [r3, #36]	; 0x24
 800198a:	f507 7202 	add.w	r2, r7, #520	; 0x208
 800198e:	f5a2 72d2 	sub.w	r2, r2, #420	; 0x1a4
 8001992:	f04f 7100 	mov.w	r1, #33554432	; 0x2000000
 8001996:	6011      	str	r1, [r2, #0]
 8001998:	f507 7202 	add.w	r2, r7, #520	; 0x208
 800199c:	f5a2 72d2 	sub.w	r2, r2, #420	; 0x1a4
 80019a0:	6812      	ldr	r2, [r2, #0]
 80019a2:	fa92 f1a2 	rbit	r1, r2
 80019a6:	f507 7202 	add.w	r2, r7, #520	; 0x208
 80019aa:	f5a2 72d4 	sub.w	r2, r2, #424	; 0x1a8
 80019ae:	6011      	str	r1, [r2, #0]
  return result;
 80019b0:	f507 7202 	add.w	r2, r7, #520	; 0x208
 80019b4:	f5a2 72d4 	sub.w	r2, r2, #424	; 0x1a8
 80019b8:	6812      	ldr	r2, [r2, #0]
 80019ba:	fab2 f282 	clz	r2, r2
 80019be:	b2d2      	uxtb	r2, r2
 80019c0:	f042 0220 	orr.w	r2, r2, #32
 80019c4:	b2d2      	uxtb	r2, r2
 80019c6:	f002 021f 	and.w	r2, r2, #31
 80019ca:	2101      	movs	r1, #1
 80019cc:	fa01 f202 	lsl.w	r2, r1, r2
 80019d0:	4013      	ands	r3, r2
 80019d2:	2b00      	cmp	r3, #0
 80019d4:	d182      	bne.n	80018dc <HAL_RCC_OscConfig+0xc4c>
          }
        }

#if defined(RCC_CFGR_PLLSRC_HSI_PREDIV)
        /* Configure the main PLL clock source, predivider and multiplication factor. */
        __HAL_RCC_PLL_CONFIG(RCC_OscInitStruct->PLL.PLLSource,
 80019d6:	4b3c      	ldr	r3, [pc, #240]	; (8001ac8 <HAL_RCC_OscConfig+0xe38>)
 80019d8:	6adb      	ldr	r3, [r3, #44]	; 0x2c
 80019da:	f023 020f 	bic.w	r2, r3, #15
 80019de:	f507 7302 	add.w	r3, r7, #520	; 0x208
 80019e2:	f5a3 7301 	sub.w	r3, r3, #516	; 0x204
 80019e6:	681b      	ldr	r3, [r3, #0]
 80019e8:	6a5b      	ldr	r3, [r3, #36]	; 0x24
 80019ea:	4937      	ldr	r1, [pc, #220]	; (8001ac8 <HAL_RCC_OscConfig+0xe38>)
 80019ec:	4313      	orrs	r3, r2
 80019ee:	62cb      	str	r3, [r1, #44]	; 0x2c
 80019f0:	4b35      	ldr	r3, [pc, #212]	; (8001ac8 <HAL_RCC_OscConfig+0xe38>)
 80019f2:	685b      	ldr	r3, [r3, #4]
 80019f4:	f423 1276 	bic.w	r2, r3, #4030464	; 0x3d8000
 80019f8:	f507 7302 	add.w	r3, r7, #520	; 0x208
 80019fc:	f5a3 7301 	sub.w	r3, r3, #516	; 0x204
 8001a00:	681b      	ldr	r3, [r3, #0]
 8001a02:	6a19      	ldr	r1, [r3, #32]
 8001a04:	f507 7302 	add.w	r3, r7, #520	; 0x208
 8001a08:	f5a3 7301 	sub.w	r3, r3, #516	; 0x204
 8001a0c:	681b      	ldr	r3, [r3, #0]
 8001a0e:	69db      	ldr	r3, [r3, #28]
 8001a10:	430b      	orrs	r3, r1
 8001a12:	492d      	ldr	r1, [pc, #180]	; (8001ac8 <HAL_RCC_OscConfig+0xe38>)
 8001a14:	4313      	orrs	r3, r2
 8001a16:	604b      	str	r3, [r1, #4]
 8001a18:	f507 7302 	add.w	r3, r7, #520	; 0x208
 8001a1c:	f5a3 73d6 	sub.w	r3, r3, #428	; 0x1ac
 8001a20:	f04f 7280 	mov.w	r2, #16777216	; 0x1000000
 8001a24:	601a      	str	r2, [r3, #0]
   __ASM volatile ("rbit %0, %1" : "=r" (result) : "r" (value) );
 8001a26:	f507 7302 	add.w	r3, r7, #520	; 0x208
 8001a2a:	f5a3 73d6 	sub.w	r3, r3, #428	; 0x1ac
 8001a2e:	681b      	ldr	r3, [r3, #0]
 8001a30:	fa93 f2a3 	rbit	r2, r3
 8001a34:	f507 7302 	add.w	r3, r7, #520	; 0x208
 8001a38:	f5a3 73d8 	sub.w	r3, r3, #432	; 0x1b0
 8001a3c:	601a      	str	r2, [r3, #0]
  return result;
 8001a3e:	f507 7302 	add.w	r3, r7, #520	; 0x208
 8001a42:	f5a3 73d8 	sub.w	r3, r3, #432	; 0x1b0
 8001a46:	681b      	ldr	r3, [r3, #0]
      /* Configure the main PLL clock source and multiplication factor. */
      __HAL_RCC_PLL_CONFIG(RCC_OscInitStruct->PLL.PLLSource,
                           RCC_OscInitStruct->PLL.PLLMUL);
#endif /* RCC_CFGR_PLLSRC_HSI_PREDIV */
        /* Enable the main PLL. */
        __HAL_RCC_PLL_ENABLE();
 8001a48:	fab3 f383 	clz	r3, r3
 8001a4c:	b2db      	uxtb	r3, r3
 8001a4e:	f103 5384 	add.w	r3, r3, #276824064	; 0x10800000
 8001a52:	f503 1384 	add.w	r3, r3, #1081344	; 0x108000
 8001a56:	009b      	lsls	r3, r3, #2
 8001a58:	461a      	mov	r2, r3
 8001a5a:	2301      	movs	r3, #1
 8001a5c:	6013      	str	r3, [r2, #0]
        
        /* Get Start Tick */
        tickstart = HAL_GetTick();
 8001a5e:	f7fe fe9b 	bl	8000798 <HAL_GetTick>
 8001a62:	f8c7 0200 	str.w	r0, [r7, #512]	; 0x200
        
        /* Wait till PLL is ready */
        while(__HAL_RCC_GET_FLAG(RCC_FLAG_PLLRDY)  == RESET)
 8001a66:	e009      	b.n	8001a7c <HAL_RCC_OscConfig+0xdec>
        {
          if((HAL_GetTick() - tickstart ) > PLL_TIMEOUT_VALUE)
 8001a68:	f7fe fe96 	bl	8000798 <HAL_GetTick>
 8001a6c:	4602      	mov	r2, r0
 8001a6e:	f8d7 3200 	ldr.w	r3, [r7, #512]	; 0x200
 8001a72:	1ad3      	subs	r3, r2, r3
 8001a74:	2b02      	cmp	r3, #2
 8001a76:	d901      	bls.n	8001a7c <HAL_RCC_OscConfig+0xdec>
          {
            return HAL_TIMEOUT;
 8001a78:	2303      	movs	r3, #3
 8001a7a:	e156      	b.n	8001d2a <HAL_RCC_OscConfig+0x109a>
 8001a7c:	f507 7302 	add.w	r3, r7, #520	; 0x208
 8001a80:	f5a3 73da 	sub.w	r3, r3, #436	; 0x1b4
 8001a84:	f04f 7200 	mov.w	r2, #33554432	; 0x2000000
 8001a88:	601a      	str	r2, [r3, #0]
   __ASM volatile ("rbit %0, %1" : "=r" (result) : "r" (value) );
 8001a8a:	f507 7302 	add.w	r3, r7, #520	; 0x208
 8001a8e:	f5a3 73da 	sub.w	r3, r3, #436	; 0x1b4
 8001a92:	681b      	ldr	r3, [r3, #0]
 8001a94:	fa93 f2a3 	rbit	r2, r3
 8001a98:	f507 7302 	add.w	r3, r7, #520	; 0x208
 8001a9c:	f5a3 73dc 	sub.w	r3, r3, #440	; 0x1b8
 8001aa0:	601a      	str	r2, [r3, #0]
  return result;
 8001aa2:	f507 7302 	add.w	r3, r7, #520	; 0x208
 8001aa6:	f5a3 73dc 	sub.w	r3, r3, #440	; 0x1b8
 8001aaa:	681b      	ldr	r3, [r3, #0]
        while(__HAL_RCC_GET_FLAG(RCC_FLAG_PLLRDY)  == RESET)
 8001aac:	fab3 f383 	clz	r3, r3
 8001ab0:	b2db      	uxtb	r3, r3
 8001ab2:	095b      	lsrs	r3, r3, #5
 8001ab4:	b2db      	uxtb	r3, r3
 8001ab6:	f043 0301 	orr.w	r3, r3, #1
 8001aba:	b2db      	uxtb	r3, r3
 8001abc:	2b01      	cmp	r3, #1
 8001abe:	d105      	bne.n	8001acc <HAL_RCC_OscConfig+0xe3c>
 8001ac0:	4b01      	ldr	r3, [pc, #4]	; (8001ac8 <HAL_RCC_OscConfig+0xe38>)
 8001ac2:	681b      	ldr	r3, [r3, #0]
 8001ac4:	e02a      	b.n	8001b1c <HAL_RCC_OscConfig+0xe8c>
 8001ac6:	bf00      	nop
 8001ac8:	40021000 	.word	0x40021000
 8001acc:	f507 7302 	add.w	r3, r7, #520	; 0x208
 8001ad0:	f5a3 73de 	sub.w	r3, r3, #444	; 0x1bc
 8001ad4:	f04f 7200 	mov.w	r2, #33554432	; 0x2000000
 8001ad8:	601a      	str	r2, [r3, #0]
   __ASM volatile ("rbit %0, %1" : "=r" (result) : "r" (value) );
 8001ada:	f507 7302 	add.w	r3, r7, #520	; 0x208
 8001ade:	f5a3 73de 	sub.w	r3, r3, #444	; 0x1bc
 8001ae2:	681b      	ldr	r3, [r3, #0]
 8001ae4:	fa93 f2a3 	rbit	r2, r3
 8001ae8:	f507 7302 	add.w	r3, r7, #520	; 0x208
 8001aec:	f5a3 73e0 	sub.w	r3, r3, #448	; 0x1c0
 8001af0:	601a      	str	r2, [r3, #0]
 8001af2:	f507 7302 	add.w	r3, r7, #520	; 0x208
 8001af6:	f5a3 73e2 	sub.w	r3, r3, #452	; 0x1c4
 8001afa:	f04f 7200 	mov.w	r2, #33554432	; 0x2000000
 8001afe:	601a      	str	r2, [r3, #0]
 8001b00:	f507 7302 	add.w	r3, r7, #520	; 0x208
 8001b04:	f5a3 73e2 	sub.w	r3, r3, #452	; 0x1c4
 8001b08:	681b      	ldr	r3, [r3, #0]
 8001b0a:	fa93 f2a3 	rbit	r2, r3
 8001b0e:	f507 7302 	add.w	r3, r7, #520	; 0x208
 8001b12:	f5a3 73e4 	sub.w	r3, r3, #456	; 0x1c8
 8001b16:	601a      	str	r2, [r3, #0]
 8001b18:	4b86      	ldr	r3, [pc, #536]	; (8001d34 <HAL_RCC_OscConfig+0x10a4>)
 8001b1a:	6a5b      	ldr	r3, [r3, #36]	; 0x24
 8001b1c:	f507 7202 	add.w	r2, r7, #520	; 0x208
 8001b20:	f5a2 72e6 	sub.w	r2, r2, #460	; 0x1cc
 8001b24:	f04f 7100 	mov.w	r1, #33554432	; 0x2000000
 8001b28:	6011      	str	r1, [r2, #0]
 8001b2a:	f507 7202 	add.w	r2, r7, #520	; 0x208
 8001b2e:	f5a2 72e6 	sub.w	r2, r2, #460	; 0x1cc
 8001b32:	6812      	ldr	r2, [r2, #0]
 8001b34:	fa92 f1a2 	rbit	r1, r2
 8001b38:	f507 7202 	add.w	r2, r7, #520	; 0x208
 8001b3c:	f5a2 72e8 	sub.w	r2, r2, #464	; 0x1d0
 8001b40:	6011      	str	r1, [r2, #0]
  return result;
 8001b42:	f507 7202 	add.w	r2, r7, #520	; 0x208
 8001b46:	f5a2 72e8 	sub.w	r2, r2, #464	; 0x1d0
 8001b4a:	6812      	ldr	r2, [r2, #0]
 8001b4c:	fab2 f282 	clz	r2, r2
 8001b50:	b2d2      	uxtb	r2, r2
 8001b52:	f042 0220 	orr.w	r2, r2, #32
 8001b56:	b2d2      	uxtb	r2, r2
 8001b58:	f002 021f 	and.w	r2, r2, #31
 8001b5c:	2101      	movs	r1, #1
 8001b5e:	fa01 f202 	lsl.w	r2, r1, r2
 8001b62:	4013      	ands	r3, r2
 8001b64:	2b00      	cmp	r3, #0
 8001b66:	f43f af7f 	beq.w	8001a68 <HAL_RCC_OscConfig+0xdd8>
 8001b6a:	e0dd      	b.n	8001d28 <HAL_RCC_OscConfig+0x1098>
 8001b6c:	f507 7302 	add.w	r3, r7, #520	; 0x208
 8001b70:	f5a3 73ea 	sub.w	r3, r3, #468	; 0x1d4
 8001b74:	f04f 7280 	mov.w	r2, #16777216	; 0x1000000
 8001b78:	601a      	str	r2, [r3, #0]
   __ASM volatile ("rbit %0, %1" : "=r" (result) : "r" (value) );
 8001b7a:	f507 7302 	add.w	r3, r7, #520	; 0x208
 8001b7e:	f5a3 73ea 	sub.w	r3, r3, #468	; 0x1d4
 8001b82:	681b      	ldr	r3, [r3, #0]
 8001b84:	fa93 f2a3 	rbit	r2, r3
 8001b88:	f507 7302 	add.w	r3, r7, #520	; 0x208
 8001b8c:	f5a3 73ec 	sub.w	r3, r3, #472	; 0x1d8
 8001b90:	601a      	str	r2, [r3, #0]
  return result;
 8001b92:	f507 7302 	add.w	r3, r7, #520	; 0x208
 8001b96:	f5a3 73ec 	sub.w	r3, r3, #472	; 0x1d8
 8001b9a:	681b      	ldr	r3, [r3, #0]
        }
      }
      else
      {
        /* Disable the main PLL. */
        __HAL_RCC_PLL_DISABLE();
 8001b9c:	fab3 f383 	clz	r3, r3
 8001ba0:	b2db      	uxtb	r3, r3
 8001ba2:	f103 5384 	add.w	r3, r3, #276824064	; 0x10800000
 8001ba6:	f503 1384 	add.w	r3, r3, #1081344	; 0x108000
 8001baa:	009b      	lsls	r3, r3, #2
 8001bac:	461a      	mov	r2, r3
 8001bae:	2300      	movs	r3, #0
 8001bb0:	6013      	str	r3, [r2, #0]
 
        /* Get Start Tick */
        tickstart = HAL_GetTick();
 8001bb2:	f7fe fdf1 	bl	8000798 <HAL_GetTick>
 8001bb6:	f8c7 0200 	str.w	r0, [r7, #512]	; 0x200
        
        /* Wait till PLL is disabled */  
        while(__HAL_RCC_GET_FLAG(RCC_FLAG_PLLRDY)  != RESET)
 8001bba:	e009      	b.n	8001bd0 <HAL_RCC_OscConfig+0xf40>
        {
          if((HAL_GetTick() - tickstart ) > PLL_TIMEOUT_VALUE)
 8001bbc:	f7fe fdec 	bl	8000798 <HAL_GetTick>
 8001bc0:	4602      	mov	r2, r0
 8001bc2:	f8d7 3200 	ldr.w	r3, [r7, #512]	; 0x200
 8001bc6:	1ad3      	subs	r3, r2, r3
 8001bc8:	2b02      	cmp	r3, #2
 8001bca:	d901      	bls.n	8001bd0 <HAL_RCC_OscConfig+0xf40>
          {
            return HAL_TIMEOUT;
 8001bcc:	2303      	movs	r3, #3
 8001bce:	e0ac      	b.n	8001d2a <HAL_RCC_OscConfig+0x109a>
 8001bd0:	f507 7302 	add.w	r3, r7, #520	; 0x208
 8001bd4:	f5a3 73ee 	sub.w	r3, r3, #476	; 0x1dc
 8001bd8:	f04f 7200 	mov.w	r2, #33554432	; 0x2000000
 8001bdc:	601a      	str	r2, [r3, #0]
   __ASM volatile ("rbit %0, %1" : "=r" (result) : "r" (value) );
 8001bde:	f507 7302 	add.w	r3, r7, #520	; 0x208
 8001be2:	f5a3 73ee 	sub.w	r3, r3, #476	; 0x1dc
 8001be6:	681b      	ldr	r3, [r3, #0]
 8001be8:	fa93 f2a3 	rbit	r2, r3
 8001bec:	f507 7302 	add.w	r3, r7, #520	; 0x208
 8001bf0:	f5a3 73f0 	sub.w	r3, r3, #480	; 0x1e0
 8001bf4:	601a      	str	r2, [r3, #0]
  return result;
 8001bf6:	f507 7302 	add.w	r3, r7, #520	; 0x208
 8001bfa:	f5a3 73f0 	sub.w	r3, r3, #480	; 0x1e0
 8001bfe:	681b      	ldr	r3, [r3, #0]
        while(__HAL_RCC_GET_FLAG(RCC_FLAG_PLLRDY)  != RESET)
 8001c00:	fab3 f383 	clz	r3, r3
 8001c04:	b2db      	uxtb	r3, r3
 8001c06:	095b      	lsrs	r3, r3, #5
 8001c08:	b2db      	uxtb	r3, r3
 8001c0a:	f043 0301 	orr.w	r3, r3, #1
 8001c0e:	b2db      	uxtb	r3, r3
 8001c10:	2b01      	cmp	r3, #1
 8001c12:	d102      	bne.n	8001c1a <HAL_RCC_OscConfig+0xf8a>
 8001c14:	4b47      	ldr	r3, [pc, #284]	; (8001d34 <HAL_RCC_OscConfig+0x10a4>)
 8001c16:	681b      	ldr	r3, [r3, #0]
 8001c18:	e027      	b.n	8001c6a <HAL_RCC_OscConfig+0xfda>
 8001c1a:	f507 7302 	add.w	r3, r7, #520	; 0x208
 8001c1e:	f5a3 73f2 	sub.w	r3, r3, #484	; 0x1e4
 8001c22:	f04f 7200 	mov.w	r2, #33554432	; 0x2000000
 8001c26:	601a      	str	r2, [r3, #0]
   __ASM volatile ("rbit %0, %1" : "=r" (result) : "r" (value) );
 8001c28:	f507 7302 	add.w	r3, r7, #520	; 0x208
 8001c2c:	f5a3 73f2 	sub.w	r3, r3, #484	; 0x1e4
 8001c30:	681b      	ldr	r3, [r3, #0]
 8001c32:	fa93 f2a3 	rbit	r2, r3
 8001c36:	f507 7302 	add.w	r3, r7, #520	; 0x208
 8001c3a:	f5a3 73f4 	sub.w	r3, r3, #488	; 0x1e8
 8001c3e:	601a      	str	r2, [r3, #0]
 8001c40:	f507 7302 	add.w	r3, r7, #520	; 0x208
 8001c44:	f5a3 73f6 	sub.w	r3, r3, #492	; 0x1ec
 8001c48:	f04f 7200 	mov.w	r2, #33554432	; 0x2000000
 8001c4c:	601a      	str	r2, [r3, #0]
 8001c4e:	f507 7302 	add.w	r3, r7, #520	; 0x208
 8001c52:	f5a3 73f6 	sub.w	r3, r3, #492	; 0x1ec
 8001c56:	681b      	ldr	r3, [r3, #0]
 8001c58:	fa93 f2a3 	rbit	r2, r3
 8001c5c:	f507 7302 	add.w	r3, r7, #520	; 0x208
 8001c60:	f5a3 73f8 	sub.w	r3, r3, #496	; 0x1f0
 8001c64:	601a      	str	r2, [r3, #0]
 8001c66:	4b33      	ldr	r3, [pc, #204]	; (8001d34 <HAL_RCC_OscConfig+0x10a4>)
 8001c68:	6a5b      	ldr	r3, [r3, #36]	; 0x24
 8001c6a:	f507 7202 	add.w	r2, r7, #520	; 0x208
 8001c6e:	f5a2 72fa 	sub.w	r2, r2, #500	; 0x1f4
 8001c72:	f04f 7100 	mov.w	r1, #33554432	; 0x2000000
 8001c76:	6011      	str	r1, [r2, #0]
 8001c78:	f507 7202 	add.w	r2, r7, #520	; 0x208
 8001c7c:	f5a2 72fa 	sub.w	r2, r2, #500	; 0x1f4
 8001c80:	6812      	ldr	r2, [r2, #0]
 8001c82:	fa92 f1a2 	rbit	r1, r2
 8001c86:	f507 7202 	add.w	r2, r7, #520	; 0x208
 8001c8a:	f5a2 72fc 	sub.w	r2, r2, #504	; 0x1f8
 8001c8e:	6011      	str	r1, [r2, #0]
  return result;
 8001c90:	f507 7202 	add.w	r2, r7, #520	; 0x208
 8001c94:	f5a2 72fc 	sub.w	r2, r2, #504	; 0x1f8
 8001c98:	6812      	ldr	r2, [r2, #0]
 8001c9a:	fab2 f282 	clz	r2, r2
 8001c9e:	b2d2      	uxtb	r2, r2
 8001ca0:	f042 0220 	orr.w	r2, r2, #32
 8001ca4:	b2d2      	uxtb	r2, r2
 8001ca6:	f002 021f 	and.w	r2, r2, #31
 8001caa:	2101      	movs	r1, #1
 8001cac:	fa01 f202 	lsl.w	r2, r1, r2
 8001cb0:	4013      	ands	r3, r2
 8001cb2:	2b00      	cmp	r3, #0
 8001cb4:	d182      	bne.n	8001bbc <HAL_RCC_OscConfig+0xf2c>
 8001cb6:	e037      	b.n	8001d28 <HAL_RCC_OscConfig+0x1098>
      }
    }
    else
    {
      /* Check if there is a request to disable the PLL used as System clock source */
      if((RCC_OscInitStruct->PLL.PLLState) == RCC_PLL_OFF)
 8001cb8:	f507 7302 	add.w	r3, r7, #520	; 0x208
 8001cbc:	f5a3 7301 	sub.w	r3, r3, #516	; 0x204
 8001cc0:	681b      	ldr	r3, [r3, #0]
 8001cc2:	699b      	ldr	r3, [r3, #24]
 8001cc4:	2b01      	cmp	r3, #1
 8001cc6:	d101      	bne.n	8001ccc <HAL_RCC_OscConfig+0x103c>
      {
        return HAL_ERROR;
 8001cc8:	2301      	movs	r3, #1
 8001cca:	e02e      	b.n	8001d2a <HAL_RCC_OscConfig+0x109a>
      }
      else
      {
        /* Do not return HAL_ERROR if request repeats the current configuration */
        pll_config = RCC->CFGR;
 8001ccc:	4b19      	ldr	r3, [pc, #100]	; (8001d34 <HAL_RCC_OscConfig+0x10a4>)
 8001cce:	685b      	ldr	r3, [r3, #4]
 8001cd0:	f8c7 31fc 	str.w	r3, [r7, #508]	; 0x1fc
#if defined(RCC_CFGR_PLLSRC_HSI_PREDIV)
        pll_config2 = RCC->CFGR2;
 8001cd4:	4b17      	ldr	r3, [pc, #92]	; (8001d34 <HAL_RCC_OscConfig+0x10a4>)
 8001cd6:	6adb      	ldr	r3, [r3, #44]	; 0x2c
 8001cd8:	f8c7 31f8 	str.w	r3, [r7, #504]	; 0x1f8
        if((READ_BIT(pll_config, RCC_CFGR_PLLSRC)   != RCC_OscInitStruct->PLL.PLLSource) ||      
 8001cdc:	f8d7 31fc 	ldr.w	r3, [r7, #508]	; 0x1fc
 8001ce0:	f403 32c0 	and.w	r2, r3, #98304	; 0x18000
 8001ce4:	f507 7302 	add.w	r3, r7, #520	; 0x208
 8001ce8:	f5a3 7301 	sub.w	r3, r3, #516	; 0x204
 8001cec:	681b      	ldr	r3, [r3, #0]
 8001cee:	69db      	ldr	r3, [r3, #28]
 8001cf0:	429a      	cmp	r2, r3
 8001cf2:	d117      	bne.n	8001d24 <HAL_RCC_OscConfig+0x1094>
           (READ_BIT(pll_config, RCC_CFGR_PLLMUL)   != RCC_OscInitStruct->PLL.PLLMUL)    ||      
 8001cf4:	f8d7 31fc 	ldr.w	r3, [r7, #508]	; 0x1fc
 8001cf8:	f403 1270 	and.w	r2, r3, #3932160	; 0x3c0000
 8001cfc:	f507 7302 	add.w	r3, r7, #520	; 0x208
 8001d00:	f5a3 7301 	sub.w	r3, r3, #516	; 0x204
 8001d04:	681b      	ldr	r3, [r3, #0]
 8001d06:	6a1b      	ldr	r3, [r3, #32]
        if((READ_BIT(pll_config, RCC_CFGR_PLLSRC)   != RCC_OscInitStruct->PLL.PLLSource) ||      
 8001d08:	429a      	cmp	r2, r3
 8001d0a:	d10b      	bne.n	8001d24 <HAL_RCC_OscConfig+0x1094>
           (READ_BIT(pll_config2, RCC_CFGR2_PREDIV)  != RCC_OscInitStruct->PLL.PREDIV))     
 8001d0c:	f8d7 31f8 	ldr.w	r3, [r7, #504]	; 0x1f8
 8001d10:	f003 020f 	and.w	r2, r3, #15
 8001d14:	f507 7302 	add.w	r3, r7, #520	; 0x208
 8001d18:	f5a3 7301 	sub.w	r3, r3, #516	; 0x204
 8001d1c:	681b      	ldr	r3, [r3, #0]
 8001d1e:	6a5b      	ldr	r3, [r3, #36]	; 0x24
           (READ_BIT(pll_config, RCC_CFGR_PLLMUL)   != RCC_OscInitStruct->PLL.PLLMUL)    ||      
 8001d20:	429a      	cmp	r2, r3
 8001d22:	d001      	beq.n	8001d28 <HAL_RCC_OscConfig+0x1098>
#else
        if((READ_BIT(pll_config, RCC_CFGR_PLLSRC)   != RCC_OscInitStruct->PLL.PLLSource) ||      
           (READ_BIT(pll_config, RCC_CFGR_PLLMUL)   != RCC_OscInitStruct->PLL.PLLMUL))
#endif
        {
          return HAL_ERROR;
 8001d24:	2301      	movs	r3, #1
 8001d26:	e000      	b.n	8001d2a <HAL_RCC_OscConfig+0x109a>
        }
      }
    }
  }

  return HAL_OK;
 8001d28:	2300      	movs	r3, #0
}
 8001d2a:	4618      	mov	r0, r3
 8001d2c:	f507 7702 	add.w	r7, r7, #520	; 0x208
 8001d30:	46bd      	mov	sp, r7
 8001d32:	bd80      	pop	{r7, pc}
 8001d34:	40021000 	.word	0x40021000

08001d38 <HAL_RCC_ClockConfig>:
  *         You can use @ref HAL_RCC_GetClockConfig() function to know which clock is
  *         currently used as system clock source.
  * @retval HAL status
  */
HAL_StatusTypeDef HAL_RCC_ClockConfig(RCC_ClkInitTypeDef  *RCC_ClkInitStruct, uint32_t FLatency)
{
 8001d38:	b580      	push	{r7, lr}
 8001d3a:	b09e      	sub	sp, #120	; 0x78
 8001d3c:	af00      	add	r7, sp, #0
 8001d3e:	6078      	str	r0, [r7, #4]
 8001d40:	6039      	str	r1, [r7, #0]
  uint32_t tickstart = 0U;
 8001d42:	2300      	movs	r3, #0
 8001d44:	677b      	str	r3, [r7, #116]	; 0x74

  /* Check Null pointer */
  if(RCC_ClkInitStruct == NULL)
 8001d46:	687b      	ldr	r3, [r7, #4]
 8001d48:	2b00      	cmp	r3, #0
 8001d4a:	d101      	bne.n	8001d50 <HAL_RCC_ClockConfig+0x18>
  {
    return HAL_ERROR;
 8001d4c:	2301      	movs	r3, #1
 8001d4e:	e162      	b.n	8002016 <HAL_RCC_ClockConfig+0x2de>
  /* To correctly read data from FLASH memory, the number of wait states (LATENCY) 
  must be correctly programmed according to the frequency of the CPU clock 
    (HCLK) of the device. */

  /* Increasing the number of wait states because of higher CPU frequency */
  if(FLatency > __HAL_FLASH_GET_LATENCY())
 8001d50:	4b90      	ldr	r3, [pc, #576]	; (8001f94 <HAL_RCC_ClockConfig+0x25c>)
 8001d52:	681b      	ldr	r3, [r3, #0]
 8001d54:	f003 0307 	and.w	r3, r3, #7
 8001d58:	683a      	ldr	r2, [r7, #0]
 8001d5a:	429a      	cmp	r2, r3
 8001d5c:	d910      	bls.n	8001d80 <HAL_RCC_ClockConfig+0x48>
  {    
    /* Program the new number of wait states to the LATENCY bits in the FLASH_ACR register */
    __HAL_FLASH_SET_LATENCY(FLatency);
 8001d5e:	4b8d      	ldr	r3, [pc, #564]	; (8001f94 <HAL_RCC_ClockConfig+0x25c>)
 8001d60:	681b      	ldr	r3, [r3, #0]
 8001d62:	f023 0207 	bic.w	r2, r3, #7
 8001d66:	498b      	ldr	r1, [pc, #556]	; (8001f94 <HAL_RCC_ClockConfig+0x25c>)
 8001d68:	683b      	ldr	r3, [r7, #0]
 8001d6a:	4313      	orrs	r3, r2
 8001d6c:	600b      	str	r3, [r1, #0]
    
    /* Check that the new number of wait states is taken into account to access the Flash
    memory by reading the FLASH_ACR register */
    if(__HAL_FLASH_GET_LATENCY() != FLatency)
 8001d6e:	4b89      	ldr	r3, [pc, #548]	; (8001f94 <HAL_RCC_ClockConfig+0x25c>)
 8001d70:	681b      	ldr	r3, [r3, #0]
 8001d72:	f003 0307 	and.w	r3, r3, #7
 8001d76:	683a      	ldr	r2, [r7, #0]
 8001d78:	429a      	cmp	r2, r3
 8001d7a:	d001      	beq.n	8001d80 <HAL_RCC_ClockConfig+0x48>
    {
      return HAL_ERROR;
 8001d7c:	2301      	movs	r3, #1
 8001d7e:	e14a      	b.n	8002016 <HAL_RCC_ClockConfig+0x2de>
    }
  }

  /*-------------------------- HCLK Configuration --------------------------*/
  if(((RCC_ClkInitStruct->ClockType) & RCC_CLOCKTYPE_HCLK) == RCC_CLOCKTYPE_HCLK)
 8001d80:	687b      	ldr	r3, [r7, #4]
 8001d82:	681b      	ldr	r3, [r3, #0]
 8001d84:	f003 0302 	and.w	r3, r3, #2
 8001d88:	2b00      	cmp	r3, #0
 8001d8a:	d008      	beq.n	8001d9e <HAL_RCC_ClockConfig+0x66>
  {
    assert_param(IS_RCC_HCLK(RCC_ClkInitStruct->AHBCLKDivider));
    MODIFY_REG(RCC->CFGR, RCC_CFGR_HPRE, RCC_ClkInitStruct->AHBCLKDivider);
 8001d8c:	4b82      	ldr	r3, [pc, #520]	; (8001f98 <HAL_RCC_ClockConfig+0x260>)
 8001d8e:	685b      	ldr	r3, [r3, #4]
 8001d90:	f023 02f0 	bic.w	r2, r3, #240	; 0xf0
 8001d94:	687b      	ldr	r3, [r7, #4]
 8001d96:	689b      	ldr	r3, [r3, #8]
 8001d98:	497f      	ldr	r1, [pc, #508]	; (8001f98 <HAL_RCC_ClockConfig+0x260>)
 8001d9a:	4313      	orrs	r3, r2
 8001d9c:	604b      	str	r3, [r1, #4]
  }

  /*------------------------- SYSCLK Configuration ---------------------------*/ 
  if(((RCC_ClkInitStruct->ClockType) & RCC_CLOCKTYPE_SYSCLK) == RCC_CLOCKTYPE_SYSCLK)
 8001d9e:	687b      	ldr	r3, [r7, #4]
 8001da0:	681b      	ldr	r3, [r3, #0]
 8001da2:	f003 0301 	and.w	r3, r3, #1
 8001da6:	2b00      	cmp	r3, #0
 8001da8:	f000 80dc 	beq.w	8001f64 <HAL_RCC_ClockConfig+0x22c>
  {    
    assert_param(IS_RCC_SYSCLKSOURCE(RCC_ClkInitStruct->SYSCLKSource));
    
    /* HSE is selected as System Clock Source */
    if(RCC_ClkInitStruct->SYSCLKSource == RCC_SYSCLKSOURCE_HSE)
 8001dac:	687b      	ldr	r3, [r7, #4]
 8001dae:	685b      	ldr	r3, [r3, #4]
 8001db0:	2b01      	cmp	r3, #1
 8001db2:	d13c      	bne.n	8001e2e <HAL_RCC_ClockConfig+0xf6>
 8001db4:	f44f 3300 	mov.w	r3, #131072	; 0x20000
 8001db8:	673b      	str	r3, [r7, #112]	; 0x70
   __ASM volatile ("rbit %0, %1" : "=r" (result) : "r" (value) );
 8001dba:	6f3b      	ldr	r3, [r7, #112]	; 0x70
 8001dbc:	fa93 f3a3 	rbit	r3, r3
 8001dc0:	66fb      	str	r3, [r7, #108]	; 0x6c
  return result;
 8001dc2:	6efb      	ldr	r3, [r7, #108]	; 0x6c
    {
      /* Check the HSE ready flag */  
      if(__HAL_RCC_GET_FLAG(RCC_FLAG_HSERDY) == RESET)
 8001dc4:	fab3 f383 	clz	r3, r3
 8001dc8:	b2db      	uxtb	r3, r3
 8001dca:	095b      	lsrs	r3, r3, #5
 8001dcc:	b2db      	uxtb	r3, r3
 8001dce:	f043 0301 	orr.w	r3, r3, #1
 8001dd2:	b2db      	uxtb	r3, r3
 8001dd4:	2b01      	cmp	r3, #1
 8001dd6:	d102      	bne.n	8001dde <HAL_RCC_ClockConfig+0xa6>
 8001dd8:	4b6f      	ldr	r3, [pc, #444]	; (8001f98 <HAL_RCC_ClockConfig+0x260>)
 8001dda:	681b      	ldr	r3, [r3, #0]
 8001ddc:	e00f      	b.n	8001dfe <HAL_RCC_ClockConfig+0xc6>
 8001dde:	f44f 3300 	mov.w	r3, #131072	; 0x20000
 8001de2:	66bb      	str	r3, [r7, #104]	; 0x68
   __ASM volatile ("rbit %0, %1" : "=r" (result) : "r" (value) );
 8001de4:	6ebb      	ldr	r3, [r7, #104]	; 0x68
 8001de6:	fa93 f3a3 	rbit	r3, r3
 8001dea:	667b      	str	r3, [r7, #100]	; 0x64
 8001dec:	f44f 3300 	mov.w	r3, #131072	; 0x20000
 8001df0:	663b      	str	r3, [r7, #96]	; 0x60
 8001df2:	6e3b      	ldr	r3, [r7, #96]	; 0x60
 8001df4:	fa93 f3a3 	rbit	r3, r3
 8001df8:	65fb      	str	r3, [r7, #92]	; 0x5c
 8001dfa:	4b67      	ldr	r3, [pc, #412]	; (8001f98 <HAL_RCC_ClockConfig+0x260>)
 8001dfc:	6a5b      	ldr	r3, [r3, #36]	; 0x24
 8001dfe:	f44f 3200 	mov.w	r2, #131072	; 0x20000
 8001e02:	65ba      	str	r2, [r7, #88]	; 0x58
 8001e04:	6dba      	ldr	r2, [r7, #88]	; 0x58
 8001e06:	fa92 f2a2 	rbit	r2, r2
 8001e0a:	657a      	str	r2, [r7, #84]	; 0x54
  return result;
 8001e0c:	6d7a      	ldr	r2, [r7, #84]	; 0x54
 8001e0e:	fab2 f282 	clz	r2, r2
 8001e12:	b2d2      	uxtb	r2, r2
 8001e14:	f042 0220 	orr.w	r2, r2, #32
 8001e18:	b2d2      	uxtb	r2, r2
 8001e1a:	f002 021f 	and.w	r2, r2, #31
 8001e1e:	2101      	movs	r1, #1
 8001e20:	fa01 f202 	lsl.w	r2, r1, r2
 8001e24:	4013      	ands	r3, r2
 8001e26:	2b00      	cmp	r3, #0
 8001e28:	d17b      	bne.n	8001f22 <HAL_RCC_ClockConfig+0x1ea>
      {
        return HAL_ERROR;
 8001e2a:	2301      	movs	r3, #1
 8001e2c:	e0f3      	b.n	8002016 <HAL_RCC_ClockConfig+0x2de>
      }
    }
    /* PLL is selected as System Clock Source */
    else if(RCC_ClkInitStruct->SYSCLKSource == RCC_SYSCLKSOURCE_PLLCLK)
 8001e2e:	687b      	ldr	r3, [r7, #4]
 8001e30:	685b      	ldr	r3, [r3, #4]
 8001e32:	2b02      	cmp	r3, #2
 8001e34:	d13c      	bne.n	8001eb0 <HAL_RCC_ClockConfig+0x178>
 8001e36:	f04f 7300 	mov.w	r3, #33554432	; 0x2000000
 8001e3a:	653b      	str	r3, [r7, #80]	; 0x50
   __ASM volatile ("rbit %0, %1" : "=r" (result) : "r" (value) );
 8001e3c:	6d3b      	ldr	r3, [r7, #80]	; 0x50
 8001e3e:	fa93 f3a3 	rbit	r3, r3
 8001e42:	64fb      	str	r3, [r7, #76]	; 0x4c
  return result;
 8001e44:	6cfb      	ldr	r3, [r7, #76]	; 0x4c
    {
      /* Check the PLL ready flag */  
      if(__HAL_RCC_GET_FLAG(RCC_FLAG_PLLRDY) == RESET)
 8001e46:	fab3 f383 	clz	r3, r3
 8001e4a:	b2db      	uxtb	r3, r3
 8001e4c:	095b      	lsrs	r3, r3, #5
 8001e4e:	b2db      	uxtb	r3, r3
 8001e50:	f043 0301 	orr.w	r3, r3, #1
 8001e54:	b2db      	uxtb	r3, r3
 8001e56:	2b01      	cmp	r3, #1
 8001e58:	d102      	bne.n	8001e60 <HAL_RCC_ClockConfig+0x128>
 8001e5a:	4b4f      	ldr	r3, [pc, #316]	; (8001f98 <HAL_RCC_ClockConfig+0x260>)
 8001e5c:	681b      	ldr	r3, [r3, #0]
 8001e5e:	e00f      	b.n	8001e80 <HAL_RCC_ClockConfig+0x148>
 8001e60:	f04f 7300 	mov.w	r3, #33554432	; 0x2000000
 8001e64:	64bb      	str	r3, [r7, #72]	; 0x48
   __ASM volatile ("rbit %0, %1" : "=r" (result) : "r" (value) );
 8001e66:	6cbb      	ldr	r3, [r7, #72]	; 0x48
 8001e68:	fa93 f3a3 	rbit	r3, r3
 8001e6c:	647b      	str	r3, [r7, #68]	; 0x44
 8001e6e:	f04f 7300 	mov.w	r3, #33554432	; 0x2000000
 8001e72:	643b      	str	r3, [r7, #64]	; 0x40
 8001e74:	6c3b      	ldr	r3, [r7, #64]	; 0x40
 8001e76:	fa93 f3a3 	rbit	r3, r3
 8001e7a:	63fb      	str	r3, [r7, #60]	; 0x3c
 8001e7c:	4b46      	ldr	r3, [pc, #280]	; (8001f98 <HAL_RCC_ClockConfig+0x260>)
 8001e7e:	6a5b      	ldr	r3, [r3, #36]	; 0x24
 8001e80:	f04f 7200 	mov.w	r2, #33554432	; 0x2000000
 8001e84:	63ba      	str	r2, [r7, #56]	; 0x38
 8001e86:	6bba      	ldr	r2, [r7, #56]	; 0x38
 8001e88:	fa92 f2a2 	rbit	r2, r2
 8001e8c:	637a      	str	r2, [r7, #52]	; 0x34
  return result;
 8001e8e:	6b7a      	ldr	r2, [r7, #52]	; 0x34
 8001e90:	fab2 f282 	clz	r2, r2
 8001e94:	b2d2      	uxtb	r2, r2
 8001e96:	f042 0220 	orr.w	r2, r2, #32
 8001e9a:	b2d2      	uxtb	r2, r2
 8001e9c:	f002 021f 	and.w	r2, r2, #31
 8001ea0:	2101      	movs	r1, #1
 8001ea2:	fa01 f202 	lsl.w	r2, r1, r2
 8001ea6:	4013      	ands	r3, r2
 8001ea8:	2b00      	cmp	r3, #0
 8001eaa:	d13a      	bne.n	8001f22 <HAL_RCC_ClockConfig+0x1ea>
      {
        return HAL_ERROR;
 8001eac:	2301      	movs	r3, #1
 8001eae:	e0b2      	b.n	8002016 <HAL_RCC_ClockConfig+0x2de>
 8001eb0:	2302      	movs	r3, #2
 8001eb2:	633b      	str	r3, [r7, #48]	; 0x30
   __ASM volatile ("rbit %0, %1" : "=r" (result) : "r" (value) );
 8001eb4:	6b3b      	ldr	r3, [r7, #48]	; 0x30
 8001eb6:	fa93 f3a3 	rbit	r3, r3
 8001eba:	62fb      	str	r3, [r7, #44]	; 0x2c
  return result;
 8001ebc:	6afb      	ldr	r3, [r7, #44]	; 0x2c
    }
    /* HSI is selected as System Clock Source */
    else
    {
      /* Check the HSI ready flag */  
      if(__HAL_RCC_GET_FLAG(RCC_FLAG_HSIRDY) == RESET)
 8001ebe:	fab3 f383 	clz	r3, r3
 8001ec2:	b2db      	uxtb	r3, r3
 8001ec4:	095b      	lsrs	r3, r3, #5
 8001ec6:	b2db      	uxtb	r3, r3
 8001ec8:	f043 0301 	orr.w	r3, r3, #1
 8001ecc:	b2db      	uxtb	r3, r3
 8001ece:	2b01      	cmp	r3, #1
 8001ed0:	d102      	bne.n	8001ed8 <HAL_RCC_ClockConfig+0x1a0>
 8001ed2:	4b31      	ldr	r3, [pc, #196]	; (8001f98 <HAL_RCC_ClockConfig+0x260>)
 8001ed4:	681b      	ldr	r3, [r3, #0]
 8001ed6:	e00d      	b.n	8001ef4 <HAL_RCC_ClockConfig+0x1bc>
 8001ed8:	2302      	movs	r3, #2
 8001eda:	62bb      	str	r3, [r7, #40]	; 0x28
   __ASM volatile ("rbit %0, %1" : "=r" (result) : "r" (value) );
 8001edc:	6abb      	ldr	r3, [r7, #40]	; 0x28
 8001ede:	fa93 f3a3 	rbit	r3, r3
 8001ee2:	627b      	str	r3, [r7, #36]	; 0x24
 8001ee4:	2302      	movs	r3, #2
 8001ee6:	623b      	str	r3, [r7, #32]
 8001ee8:	6a3b      	ldr	r3, [r7, #32]
 8001eea:	fa93 f3a3 	rbit	r3, r3
 8001eee:	61fb      	str	r3, [r7, #28]
 8001ef0:	4b29      	ldr	r3, [pc, #164]	; (8001f98 <HAL_RCC_ClockConfig+0x260>)
 8001ef2:	6a5b      	ldr	r3, [r3, #36]	; 0x24
 8001ef4:	2202      	movs	r2, #2
 8001ef6:	61ba      	str	r2, [r7, #24]
 8001ef8:	69ba      	ldr	r2, [r7, #24]
 8001efa:	fa92 f2a2 	rbit	r2, r2
 8001efe:	617a      	str	r2, [r7, #20]
  return result;
 8001f00:	697a      	ldr	r2, [r7, #20]
 8001f02:	fab2 f282 	clz	r2, r2
 8001f06:	b2d2      	uxtb	r2, r2
 8001f08:	f042 0220 	orr.w	r2, r2, #32
 8001f0c:	b2d2      	uxtb	r2, r2
 8001f0e:	f002 021f 	and.w	r2, r2, #31
 8001f12:	2101      	movs	r1, #1
 8001f14:	fa01 f202 	lsl.w	r2, r1, r2
 8001f18:	4013      	ands	r3, r2
 8001f1a:	2b00      	cmp	r3, #0
 8001f1c:	d101      	bne.n	8001f22 <HAL_RCC_ClockConfig+0x1ea>
      {
        return HAL_ERROR;
 8001f1e:	2301      	movs	r3, #1
 8001f20:	e079      	b.n	8002016 <HAL_RCC_ClockConfig+0x2de>
      }
    }

    __HAL_RCC_SYSCLK_CONFIG(RCC_ClkInitStruct->SYSCLKSource);
 8001f22:	4b1d      	ldr	r3, [pc, #116]	; (8001f98 <HAL_RCC_ClockConfig+0x260>)
 8001f24:	685b      	ldr	r3, [r3, #4]
 8001f26:	f023 0203 	bic.w	r2, r3, #3
 8001f2a:	687b      	ldr	r3, [r7, #4]
 8001f2c:	685b      	ldr	r3, [r3, #4]
 8001f2e:	491a      	ldr	r1, [pc, #104]	; (8001f98 <HAL_RCC_ClockConfig+0x260>)
 8001f30:	4313      	orrs	r3, r2
 8001f32:	604b      	str	r3, [r1, #4]

    /* Get Start Tick */
    tickstart = HAL_GetTick();
 8001f34:	f7fe fc30 	bl	8000798 <HAL_GetTick>
 8001f38:	6778      	str	r0, [r7, #116]	; 0x74
    
    while (__HAL_RCC_GET_SYSCLK_SOURCE() != (RCC_ClkInitStruct->SYSCLKSource << RCC_CFGR_SWS_Pos))
 8001f3a:	e00a      	b.n	8001f52 <HAL_RCC_ClockConfig+0x21a>
    {
      if ((HAL_GetTick() - tickstart) > CLOCKSWITCH_TIMEOUT_VALUE)
 8001f3c:	f7fe fc2c 	bl	8000798 <HAL_GetTick>
 8001f40:	4602      	mov	r2, r0
 8001f42:	6f7b      	ldr	r3, [r7, #116]	; 0x74
 8001f44:	1ad3      	subs	r3, r2, r3
 8001f46:	f241 3288 	movw	r2, #5000	; 0x1388
 8001f4a:	4293      	cmp	r3, r2
 8001f4c:	d901      	bls.n	8001f52 <HAL_RCC_ClockConfig+0x21a>
      {
        return HAL_TIMEOUT;
 8001f4e:	2303      	movs	r3, #3
 8001f50:	e061      	b.n	8002016 <HAL_RCC_ClockConfig+0x2de>
    while (__HAL_RCC_GET_SYSCLK_SOURCE() != (RCC_ClkInitStruct->SYSCLKSource << RCC_CFGR_SWS_Pos))
 8001f52:	4b11      	ldr	r3, [pc, #68]	; (8001f98 <HAL_RCC_ClockConfig+0x260>)
 8001f54:	685b      	ldr	r3, [r3, #4]
 8001f56:	f003 020c 	and.w	r2, r3, #12
 8001f5a:	687b      	ldr	r3, [r7, #4]
 8001f5c:	685b      	ldr	r3, [r3, #4]
 8001f5e:	009b      	lsls	r3, r3, #2
 8001f60:	429a      	cmp	r2, r3
 8001f62:	d1eb      	bne.n	8001f3c <HAL_RCC_ClockConfig+0x204>
      }
    }
  }
  /* Decreasing the number of wait states because of lower CPU frequency */
  if(FLatency < __HAL_FLASH_GET_LATENCY())
 8001f64:	4b0b      	ldr	r3, [pc, #44]	; (8001f94 <HAL_RCC_ClockConfig+0x25c>)
 8001f66:	681b      	ldr	r3, [r3, #0]
 8001f68:	f003 0307 	and.w	r3, r3, #7
 8001f6c:	683a      	ldr	r2, [r7, #0]
 8001f6e:	429a      	cmp	r2, r3
 8001f70:	d214      	bcs.n	8001f9c <HAL_RCC_ClockConfig+0x264>
  {    
    /* Program the new number of wait states to the LATENCY bits in the FLASH_ACR register */
    __HAL_FLASH_SET_LATENCY(FLatency);
 8001f72:	4b08      	ldr	r3, [pc, #32]	; (8001f94 <HAL_RCC_ClockConfig+0x25c>)
 8001f74:	681b      	ldr	r3, [r3, #0]
 8001f76:	f023 0207 	bic.w	r2, r3, #7
 8001f7a:	4906      	ldr	r1, [pc, #24]	; (8001f94 <HAL_RCC_ClockConfig+0x25c>)
 8001f7c:	683b      	ldr	r3, [r7, #0]
 8001f7e:	4313      	orrs	r3, r2
 8001f80:	600b      	str	r3, [r1, #0]
    
    /* Check that the new number of wait states is taken into account to access the Flash
    memory by reading the FLASH_ACR register */
    if(__HAL_FLASH_GET_LATENCY() != FLatency)
 8001f82:	4b04      	ldr	r3, [pc, #16]	; (8001f94 <HAL_RCC_ClockConfig+0x25c>)
 8001f84:	681b      	ldr	r3, [r3, #0]
 8001f86:	f003 0307 	and.w	r3, r3, #7
 8001f8a:	683a      	ldr	r2, [r7, #0]
 8001f8c:	429a      	cmp	r2, r3
 8001f8e:	d005      	beq.n	8001f9c <HAL_RCC_ClockConfig+0x264>
    {
      return HAL_ERROR;
 8001f90:	2301      	movs	r3, #1
 8001f92:	e040      	b.n	8002016 <HAL_RCC_ClockConfig+0x2de>
 8001f94:	40022000 	.word	0x40022000
 8001f98:	40021000 	.word	0x40021000
    }
  }    

  /*-------------------------- PCLK1 Configuration ---------------------------*/ 
  if(((RCC_ClkInitStruct->ClockType) & RCC_CLOCKTYPE_PCLK1) == RCC_CLOCKTYPE_PCLK1)
 8001f9c:	687b      	ldr	r3, [r7, #4]
 8001f9e:	681b      	ldr	r3, [r3, #0]
 8001fa0:	f003 0304 	and.w	r3, r3, #4
 8001fa4:	2b00      	cmp	r3, #0
 8001fa6:	d008      	beq.n	8001fba <HAL_RCC_ClockConfig+0x282>
  {
    assert_param(IS_RCC_PCLK(RCC_ClkInitStruct->APB1CLKDivider));
    MODIFY_REG(RCC->CFGR, RCC_CFGR_PPRE1, RCC_ClkInitStruct->APB1CLKDivider);
 8001fa8:	4b1d      	ldr	r3, [pc, #116]	; (8002020 <HAL_RCC_ClockConfig+0x2e8>)
 8001faa:	685b      	ldr	r3, [r3, #4]
 8001fac:	f423 62e0 	bic.w	r2, r3, #1792	; 0x700
 8001fb0:	687b      	ldr	r3, [r7, #4]
 8001fb2:	68db      	ldr	r3, [r3, #12]
 8001fb4:	491a      	ldr	r1, [pc, #104]	; (8002020 <HAL_RCC_ClockConfig+0x2e8>)
 8001fb6:	4313      	orrs	r3, r2
 8001fb8:	604b      	str	r3, [r1, #4]
  }
  
  /*-------------------------- PCLK2 Configuration ---------------------------*/ 
  if(((RCC_ClkInitStruct->ClockType) & RCC_CLOCKTYPE_PCLK2) == RCC_CLOCKTYPE_PCLK2)
 8001fba:	687b      	ldr	r3, [r7, #4]
 8001fbc:	681b      	ldr	r3, [r3, #0]
 8001fbe:	f003 0308 	and.w	r3, r3, #8
 8001fc2:	2b00      	cmp	r3, #0
 8001fc4:	d009      	beq.n	8001fda <HAL_RCC_ClockConfig+0x2a2>
  {
    assert_param(IS_RCC_PCLK(RCC_ClkInitStruct->APB2CLKDivider));
    MODIFY_REG(RCC->CFGR, RCC_CFGR_PPRE2, ((RCC_ClkInitStruct->APB2CLKDivider) << 3U));
 8001fc6:	4b16      	ldr	r3, [pc, #88]	; (8002020 <HAL_RCC_ClockConfig+0x2e8>)
 8001fc8:	685b      	ldr	r3, [r3, #4]
 8001fca:	f423 5260 	bic.w	r2, r3, #14336	; 0x3800
 8001fce:	687b      	ldr	r3, [r7, #4]
 8001fd0:	691b      	ldr	r3, [r3, #16]
 8001fd2:	00db      	lsls	r3, r3, #3
 8001fd4:	4912      	ldr	r1, [pc, #72]	; (8002020 <HAL_RCC_ClockConfig+0x2e8>)
 8001fd6:	4313      	orrs	r3, r2
 8001fd8:	604b      	str	r3, [r1, #4]
  }
 
  /* Update the SystemCoreClock global variable */
  SystemCoreClock = HAL_RCC_GetSysClockFreq() >> AHBPrescTable[(RCC->CFGR & RCC_CFGR_HPRE)>> RCC_CFGR_HPRE_BITNUMBER];
 8001fda:	f000 f829 	bl	8002030 <HAL_RCC_GetSysClockFreq>
 8001fde:	4601      	mov	r1, r0
 8001fe0:	4b0f      	ldr	r3, [pc, #60]	; (8002020 <HAL_RCC_ClockConfig+0x2e8>)
 8001fe2:	685b      	ldr	r3, [r3, #4]
 8001fe4:	f003 03f0 	and.w	r3, r3, #240	; 0xf0
 8001fe8:	22f0      	movs	r2, #240	; 0xf0
 8001fea:	613a      	str	r2, [r7, #16]
   __ASM volatile ("rbit %0, %1" : "=r" (result) : "r" (value) );
 8001fec:	693a      	ldr	r2, [r7, #16]
 8001fee:	fa92 f2a2 	rbit	r2, r2
 8001ff2:	60fa      	str	r2, [r7, #12]
  return result;
 8001ff4:	68fa      	ldr	r2, [r7, #12]
 8001ff6:	fab2 f282 	clz	r2, r2
 8001ffa:	b2d2      	uxtb	r2, r2
 8001ffc:	40d3      	lsrs	r3, r2
 8001ffe:	4a09      	ldr	r2, [pc, #36]	; (8002024 <HAL_RCC_ClockConfig+0x2ec>)
 8002000:	5cd3      	ldrb	r3, [r2, r3]
 8002002:	fa21 f303 	lsr.w	r3, r1, r3
 8002006:	4a08      	ldr	r2, [pc, #32]	; (8002028 <HAL_RCC_ClockConfig+0x2f0>)
 8002008:	6013      	str	r3, [r2, #0]

  /* Configure the source of time base considering new system clocks settings*/
  HAL_InitTick (uwTickPrio);
 800200a:	4b08      	ldr	r3, [pc, #32]	; (800202c <HAL_RCC_ClockConfig+0x2f4>)
 800200c:	681b      	ldr	r3, [r3, #0]
 800200e:	4618      	mov	r0, r3
 8002010:	f7fe fb7e 	bl	8000710 <HAL_InitTick>
  
  return HAL_OK;
 8002014:	2300      	movs	r3, #0
}
 8002016:	4618      	mov	r0, r3
 8002018:	3778      	adds	r7, #120	; 0x78
 800201a:	46bd      	mov	sp, r7
 800201c:	bd80      	pop	{r7, pc}
 800201e:	bf00      	nop
 8002020:	40021000 	.word	0x40021000
 8002024:	08002174 	.word	0x08002174
 8002028:	20000004 	.word	0x20000004
 800202c:	20000008 	.word	0x20000008

08002030 <HAL_RCC_GetSysClockFreq>:
  *         right SYSCLK value. Otherwise, any configuration based on this function will be incorrect.
  *         
  * @retval SYSCLK frequency
  */
uint32_t HAL_RCC_GetSysClockFreq(void)
{
 8002030:	b480      	push	{r7}
 8002032:	b08b      	sub	sp, #44	; 0x2c
 8002034:	af00      	add	r7, sp, #0
  uint32_t tmpreg = 0U, prediv = 0U, pllclk = 0U, pllmul = 0U;
 8002036:	2300      	movs	r3, #0
 8002038:	61fb      	str	r3, [r7, #28]
 800203a:	2300      	movs	r3, #0
 800203c:	61bb      	str	r3, [r7, #24]
 800203e:	2300      	movs	r3, #0
 8002040:	627b      	str	r3, [r7, #36]	; 0x24
 8002042:	2300      	movs	r3, #0
 8002044:	617b      	str	r3, [r7, #20]
  uint32_t sysclockfreq = 0U;
 8002046:	2300      	movs	r3, #0
 8002048:	623b      	str	r3, [r7, #32]
  
  tmpreg = RCC->CFGR;
 800204a:	4b2a      	ldr	r3, [pc, #168]	; (80020f4 <HAL_RCC_GetSysClockFreq+0xc4>)
 800204c:	685b      	ldr	r3, [r3, #4]
 800204e:	61fb      	str	r3, [r7, #28]
  
  /* Get SYSCLK source -------------------------------------------------------*/
  switch (tmpreg & RCC_CFGR_SWS)
 8002050:	69fb      	ldr	r3, [r7, #28]
 8002052:	f003 030c 	and.w	r3, r3, #12
 8002056:	2b04      	cmp	r3, #4
 8002058:	d002      	beq.n	8002060 <HAL_RCC_GetSysClockFreq+0x30>
 800205a:	2b08      	cmp	r3, #8
 800205c:	d003      	beq.n	8002066 <HAL_RCC_GetSysClockFreq+0x36>
 800205e:	e03f      	b.n	80020e0 <HAL_RCC_GetSysClockFreq+0xb0>
  {
    case RCC_SYSCLKSOURCE_STATUS_HSE:  /* HSE used as system clock */
    {
      sysclockfreq = HSE_VALUE;
 8002060:	4b25      	ldr	r3, [pc, #148]	; (80020f8 <HAL_RCC_GetSysClockFreq+0xc8>)
 8002062:	623b      	str	r3, [r7, #32]
      break;
 8002064:	e03f      	b.n	80020e6 <HAL_RCC_GetSysClockFreq+0xb6>
    }
    case RCC_SYSCLKSOURCE_STATUS_PLLCLK:  /* PLL used as system clock */
    {
      pllmul = aPLLMULFactorTable[(uint32_t)(tmpreg & RCC_CFGR_PLLMUL) >> POSITION_VAL(RCC_CFGR_PLLMUL)];
 8002066:	69fb      	ldr	r3, [r7, #28]
 8002068:	f403 1370 	and.w	r3, r3, #3932160	; 0x3c0000
 800206c:	f44f 1270 	mov.w	r2, #3932160	; 0x3c0000
 8002070:	60ba      	str	r2, [r7, #8]
   __ASM volatile ("rbit %0, %1" : "=r" (result) : "r" (value) );
 8002072:	68ba      	ldr	r2, [r7, #8]
 8002074:	fa92 f2a2 	rbit	r2, r2
 8002078:	607a      	str	r2, [r7, #4]
  return result;
 800207a:	687a      	ldr	r2, [r7, #4]
 800207c:	fab2 f282 	clz	r2, r2
 8002080:	b2d2      	uxtb	r2, r2
 8002082:	40d3      	lsrs	r3, r2
 8002084:	4a1d      	ldr	r2, [pc, #116]	; (80020fc <HAL_RCC_GetSysClockFreq+0xcc>)
 8002086:	5cd3      	ldrb	r3, [r2, r3]
 8002088:	617b      	str	r3, [r7, #20]
      prediv = aPredivFactorTable[(uint32_t)(RCC->CFGR2 & RCC_CFGR2_PREDIV) >> POSITION_VAL(RCC_CFGR2_PREDIV)];
 800208a:	4b1a      	ldr	r3, [pc, #104]	; (80020f4 <HAL_RCC_GetSysClockFreq+0xc4>)
 800208c:	6adb      	ldr	r3, [r3, #44]	; 0x2c
 800208e:	f003 030f 	and.w	r3, r3, #15
 8002092:	220f      	movs	r2, #15
 8002094:	613a      	str	r2, [r7, #16]
   __ASM volatile ("rbit %0, %1" : "=r" (result) : "r" (value) );
 8002096:	693a      	ldr	r2, [r7, #16]
 8002098:	fa92 f2a2 	rbit	r2, r2
 800209c:	60fa      	str	r2, [r7, #12]
  return result;
 800209e:	68fa      	ldr	r2, [r7, #12]
 80020a0:	fab2 f282 	clz	r2, r2
 80020a4:	b2d2      	uxtb	r2, r2
 80020a6:	40d3      	lsrs	r3, r2
 80020a8:	4a15      	ldr	r2, [pc, #84]	; (8002100 <HAL_RCC_GetSysClockFreq+0xd0>)
 80020aa:	5cd3      	ldrb	r3, [r2, r3]
 80020ac:	61bb      	str	r3, [r7, #24]
      {
        /* HSI used as PLL clock source : PLLCLK = HSI/2 * PLLMUL */
        pllclk = (uint32_t)((uint64_t) (HSI_VALUE >> 1U) * ((uint64_t) pllmul));
      }
#else
      if ((tmpreg & RCC_CFGR_PLLSRC_HSE_PREDIV) == RCC_CFGR_PLLSRC_HSE_PREDIV)
 80020ae:	69fb      	ldr	r3, [r7, #28]
 80020b0:	f403 3380 	and.w	r3, r3, #65536	; 0x10000
 80020b4:	2b00      	cmp	r3, #0
 80020b6:	d008      	beq.n	80020ca <HAL_RCC_GetSysClockFreq+0x9a>
      {
        /* HSE used as PLL clock source : PLLCLK = HSE/PREDIV * PLLMUL */
        pllclk = (uint32_t)((uint64_t) HSE_VALUE / (uint64_t) (prediv)) * ((uint64_t) pllmul);
 80020b8:	4a0f      	ldr	r2, [pc, #60]	; (80020f8 <HAL_RCC_GetSysClockFreq+0xc8>)
 80020ba:	69bb      	ldr	r3, [r7, #24]
 80020bc:	fbb2 f2f3 	udiv	r2, r2, r3
 80020c0:	697b      	ldr	r3, [r7, #20]
 80020c2:	fb02 f303 	mul.w	r3, r2, r3
 80020c6:	627b      	str	r3, [r7, #36]	; 0x24
 80020c8:	e007      	b.n	80020da <HAL_RCC_GetSysClockFreq+0xaa>
      }
      else
      {
        /* HSI used as PLL clock source : PLLCLK = HSI/PREDIV * PLLMUL */
        pllclk = (uint32_t)((uint64_t) HSI_VALUE / (uint64_t) (prediv)) * ((uint64_t) pllmul);
 80020ca:	4a0b      	ldr	r2, [pc, #44]	; (80020f8 <HAL_RCC_GetSysClockFreq+0xc8>)
 80020cc:	69bb      	ldr	r3, [r7, #24]
 80020ce:	fbb2 f2f3 	udiv	r2, r2, r3
 80020d2:	697b      	ldr	r3, [r7, #20]
 80020d4:	fb02 f303 	mul.w	r3, r2, r3
 80020d8:	627b      	str	r3, [r7, #36]	; 0x24
      }
#endif /* RCC_CFGR_PLLSRC_HSI_DIV2 */
      sysclockfreq = pllclk;
 80020da:	6a7b      	ldr	r3, [r7, #36]	; 0x24
 80020dc:	623b      	str	r3, [r7, #32]
      break;
 80020de:	e002      	b.n	80020e6 <HAL_RCC_GetSysClockFreq+0xb6>
    }
    case RCC_SYSCLKSOURCE_STATUS_HSI:  /* HSI used as system clock source */
    default: /* HSI used as system clock */
    {
      sysclockfreq = HSI_VALUE;
 80020e0:	4b05      	ldr	r3, [pc, #20]	; (80020f8 <HAL_RCC_GetSysClockFreq+0xc8>)
 80020e2:	623b      	str	r3, [r7, #32]
      break;
 80020e4:	bf00      	nop
    }
  }
  return sysclockfreq;
 80020e6:	6a3b      	ldr	r3, [r7, #32]
}
 80020e8:	4618      	mov	r0, r3
 80020ea:	372c      	adds	r7, #44	; 0x2c
 80020ec:	46bd      	mov	sp, r7
 80020ee:	f85d 7b04 	ldr.w	r7, [sp], #4
 80020f2:	4770      	bx	lr
 80020f4:	40021000 	.word	0x40021000
 80020f8:	007a1200 	.word	0x007a1200
 80020fc:	08002184 	.word	0x08002184
 8002100:	08002194 	.word	0x08002194

08002104 <memset>:
 8002104:	4402      	add	r2, r0
 8002106:	4603      	mov	r3, r0
 8002108:	4293      	cmp	r3, r2
 800210a:	d100      	bne.n	800210e <memset+0xa>
 800210c:	4770      	bx	lr
 800210e:	f803 1b01 	strb.w	r1, [r3], #1
 8002112:	e7f9      	b.n	8002108 <memset+0x4>

08002114 <__libc_init_array>:
 8002114:	b570      	push	{r4, r5, r6, lr}
 8002116:	4d0d      	ldr	r5, [pc, #52]	; (800214c <__libc_init_array+0x38>)
 8002118:	4c0d      	ldr	r4, [pc, #52]	; (8002150 <__libc_init_array+0x3c>)
 800211a:	1b64      	subs	r4, r4, r5
 800211c:	10a4      	asrs	r4, r4, #2
 800211e:	2600      	movs	r6, #0
 8002120:	42a6      	cmp	r6, r4
 8002122:	d109      	bne.n	8002138 <__libc_init_array+0x24>
 8002124:	4d0b      	ldr	r5, [pc, #44]	; (8002154 <__libc_init_array+0x40>)
 8002126:	4c0c      	ldr	r4, [pc, #48]	; (8002158 <__libc_init_array+0x44>)
 8002128:	f000 f818 	bl	800215c <_init>
 800212c:	1b64      	subs	r4, r4, r5
 800212e:	10a4      	asrs	r4, r4, #2
 8002130:	2600      	movs	r6, #0
 8002132:	42a6      	cmp	r6, r4
 8002134:	d105      	bne.n	8002142 <__libc_init_array+0x2e>
 8002136:	bd70      	pop	{r4, r5, r6, pc}
 8002138:	f855 3b04 	ldr.w	r3, [r5], #4
 800213c:	4798      	blx	r3
 800213e:	3601      	adds	r6, #1
 8002140:	e7ee      	b.n	8002120 <__libc_init_array+0xc>
 8002142:	f855 3b04 	ldr.w	r3, [r5], #4
 8002146:	4798      	blx	r3
 8002148:	3601      	adds	r6, #1
 800214a:	e7f2      	b.n	8002132 <__libc_init_array+0x1e>
 800214c:	080021a4 	.word	0x080021a4
 8002150:	080021a4 	.word	0x080021a4
 8002154:	080021a4 	.word	0x080021a4
 8002158:	080021a8 	.word	0x080021a8

0800215c <_init>:
 800215c:	b5f8      	push	{r3, r4, r5, r6, r7, lr}
 800215e:	bf00      	nop
 8002160:	bcf8      	pop	{r3, r4, r5, r6, r7}
 8002162:	bc08      	pop	{r3}
 8002164:	469e      	mov	lr, r3
 8002166:	4770      	bx	lr

08002168 <_fini>:
 8002168:	b5f8      	push	{r3, r4, r5, r6, r7, lr}
 800216a:	bf00      	nop
 800216c:	bcf8      	pop	{r3, r4, r5, r6, r7}
 800216e:	bc08      	pop	{r3}
 8002170:	469e      	mov	lr, r3
 8002172:	4770      	bx	lr
